        File DSK:M68DMP.PAS[31024,332221]   Compiled 15-Jun-82 14:22   Pascal, Version 2A(431)

        File DSK:M68DMP.PAS[31024,332221]   Compiled 15-Jun-82 14:22   Pascal, Version 2A(431)

        File DSK:M68DMP.PAS[31024,332221]   Compiled 15-Jun-82 14:22   Pascal, Version 2A(431)

        File DSK:M68DMP.PAS[31024,332221]   Compiled 15-Jun-82 14:22   Pascal, Version 2A(431)





			    $   $     $$     $$$    $$$$    $   $   $$$$ 
			    $$ $$    $      $   $    $  $   $$ $$   $   $
			    $ $ $   $       $   $    $  $   $ $ $   $   $
			    $ $ $   $ $$     $$$     $  $   $ $ $   $$$$ 
			    $   $   $$  $   $   $    $  $   $   $   $    
			    $   $   $   $   $   $    $  $   $   $   $    
			    $   $    $$$     $$$    $$$$    $   $   $    


				M68DMP - M68000 Object File Analyzer


Options in effect: 

	CHECK, NOSPECIAL, NOMAP, NOSYMBOLS, NOCALLS, ASSEMBLY, NOXREF, TRACE, QBLOCKS, NOOPTIMIZE, 
	CODE, NODEBUG, FINISH, NOGLOBAL, NOMAINSEG, NOOVERLAY, AUTOQUICK, SOURCE, NOSTANDARD, 
	LENGTH (45), WIDTH (102), STORAGE (2048), ALLOC (0), ENABLE(M68, STATS)




        File DSK:M68DMP.PAS[31024,332221]   Compiled 15-Jun-82 14:22   Pascal, Version 2A(431)

        File DSK:M68DMP.PAS[31024,332221]   Compiled 15-Jun-82 14:22   Pascal, Version 2A(431)

        File DSK:M68DMP.PAS[31024,332221]   Compiled 15-Jun-82 14:22   Pascal, Version 2A(431)

        File DSK:M68DMP.PAS[31024,332221]   Compiled 15-Jun-82 14:22   Pascal, Version 2A(431)
        File DSK:M68DMP.PAS[31024,332221]   Compiled 15-Jun-82 14:22   Pascal, Version 2A(431)

        File DSK:M68DMP.PAS[31024,332221]   Compiled 15-Jun-82 14:22   Pascal, Version 2A(431)

        File DSK:M68DMP.PAS[31024,332221]   Compiled 15-Jun-82 14:22   Pascal, Version 2A(431)

        File DSK:M68DMP.PAS[31024,332221]   Compiled 15-Jun-82 14:22   Pascal, Version 2A(431)





			    $   $     $$     $$$    $$$$    $   $   $$$$ 
			    $$ $$    $      $   $    $  $   $$ $$   $   $
			    $ $ $   $       $   $    $  $   $ $ $   $   $
			    $ $ $   $ $$     $$$     $  $   $ $ $   $$$$ 
			    $   $   $$  $   $   $    $  $   $   $   $    
			    $   $   $   $   $   $    $  $   $   $   $    
			    $   $    $$$     $$$    $$$$    $   $   $    


				M68DMP - M68000 Object File Analyzer


Options in effect: 

	CHECK, NOSPECIAL, NOMAP, NOSYMBOLS, NOCALLS, ASSEMBLY, NOXREF, TRACE, QBLOCKS, NOOPTIMIZE, 
	CODE, NODEBUG, FINISH, NOGLOBAL, NOMAINSEG, NOOVERLAY, AUTOQUICK, SOURCE, NOSTANDARD, 
	LENGTH (45), WIDTH (102), STORAGE (2048), ALLOC (0), ENABLE(M68, STATS)




        File DSK:M68DMP.PAS[31024,332221]   Compiled 15-Jun-82 14:22   Pascal, Version 2A(431)

        File DSK:M68DMP.PAS[31024,332221]   Compiled 15-Jun-82 14:22   Pascal, Version 2A(431)

        File DSK:M68DMP.PAS[31024,332221]   Compiled 15-Jun-82 14:22   Pascal, Version 2A(431)

        File DSK:M68DMP.PAS[31024,332221]   Compiled 15-Jun-82 14:22   Pascal, Version 2A(431)
MODULE  M68DMP       M68DMP - M68000 Object File Analyzer                              15-Jun-82 14:22
SECTION 0                                                                                       PAGE 1

    1	$TITLE M68DMP - M68000 Object File Analyzer
    2	program m68dmp;
    3	
    4 *	$IF P10
    5 *	$SYSTEM pascal
    6 *	$SYSTEM pasfil
    7 *	$ENDIF
    8	
    9	const
   10 *	$IF P10  num_bytes = 4;
   11	$IF M68  num_bytes = 256;
   12	
   13	type
   14	  one_byte    = 0..2 ** 8 - 1;
   15	  two_bytes   = 0..2 ** 16 - 1;
   16	  three_bytes = 0..2 ** 24 - 1;
   17	  four_bytes  = 0..2 ** 32 - 1;
   18	  input_array = packed array [1..num_bytes] of one_byte;
   19	  string_10 = string[10];
   20	  ESDID_range = 17..255;
   21	$IF STATS
   22	  ESDID_record = record
   23	    name : string_10;
   24	    count : 0..maximum (integer);
   25	  end;
   26	$ENDIF
   27	
   28	var
   29	  eof_flag : boolean          (* end-of-file on input_file? *);
   30	  tty_flag : boolean          (* output to terminal or file? *);
   31	  id_flag : boolean           (* identification record encountered yet? *);
   32	  end_flag : boolean          (* end record encountered yet? *);
   33	  current_ESDID : ESDID_range (* ESDID count for XREF's *);
   34	  byte_ptr : integer          (* which byte of input_record to get next *);
   35	  byte_count : one_byte       (* number of bytes remaining in current logical record *);
   36	  skip_count : integer        (* number of zero-length records skipped *);
   37	  input_record : input_array  (* current num_bytes bytes read in from the input file *);
   38	  input_file : file of input_array;
   39 *	$IF P10  output_file : file_block;
   40	$IF M68  output_file : text;
   41	$IF STATS
   42	  ESDID_array : array [ESDID_range] of ESDID_record;MODULE  M68DMP       M68DMP - M68000 Object File Analyzer                              15-Jun-82 14:22
SECTION 0                                                                                       PAGE 2

   43	$ENDIFMODULE  M68DMP       M68DMP - M68000 Object File Analyzer                              15-Jun-82 14:22
SECTION 1            initialize                                                                 PAGE 3

    2	(* INITIALIZE - opens tty and initializes global variables. *)
    3	
    4	procedure initialize;
    5	
    6	$IF STATS
    7	var
    8	  local_index : ESDID_range;
    9	$ENDIF
   10	
   11	begin
   12	  open (tty);
   13	  rewrite (tty);
   14	  eof_flag := false;
   15	  tty_flag := true;
   16	  id_flag := false;
   17	  end_flag := false;
   18	  current_ESDID := minimum (ESDID_range);
   19	  byte_ptr := 1;
   20	  skip_count := 0;
   21	$IF STATS
   22	  for local_index := minimum (ESDID_range) to maximum (ESDID_range) do begin
   23	    with ESDID_array[local_index] do begin
   24	      name := '';
   25	      count := 0;
   26	    end (* with ESDID_array[local_index] *);
   27	  end (* for *);
   28	$ENDIF
   29	end (* initialize *);MODULE  M68DMP       M68DMP - M68000 Object File Analyzer                              15-Jun-82 14:22
SECTION 2            write_string                                                               PAGE 4

    2	(* WRITE_STRING - writes a string to either the terminal or the output file. *)
    3	
    4	procedure write_string (input_string : string[*]);
    5	
    6	begin
    7	  if tty_flag then
    8	    writeln (tty, input_string)
    9	  else
   10 *	$IF P10  fio_line (output_file, input_string);
   11	$IF M68  writeln (output_file, input_string);
   12	end (* write_string *);MODULE  M68DMP       M68DMP - M68000 Object File Analyzer                              15-Jun-82 14:22
SECTION 3            convert_one_byte                                                           PAGE 5

    2	(* CONVERT_ONE_BYTE - converts a one-byte value to hexadecimal characters. *)
    3	
    4	function convert_one_byte (input_one_byte : one_byte) : string_10;
    5	
    6	begin
    7	  putstring (convert_one_byte, input_one_byte:2:h)
    8	end (* convert_one_byte *);MODULE  M68DMP       M68DMP - M68000 Object File Analyzer                              15-Jun-82 14:22
SECTION 4            convert_two_bytes                                                          PAGE 6

    2	(* CONVERT_TWO_BYTES - converts a two-byte value to hexadecimal characters. *)
    3	
    4	function convert_two_bytes (input_two_bytes : two_bytes) : string_10;
    5	
    6	begin
    7	  putstring (convert_two_bytes, input_two_bytes:4:h)
    8	end (* convert_two_bytes *);MODULE  M68DMP       M68DMP - M68000 Object File Analyzer                              15-Jun-82 14:22
SECTION 5            convert_three_bytes                                                        PAGE 7

    2	(* CONVERT_THREE_BYTES - converts a three-byte value to hexadecimal characters. *)
    3	
    4	function convert_three_bytes (input_three_bytes : three_bytes) : string_10;
    5	
    6	begin
    7	  putstring (convert_three_bytes, input_three_bytes:6:h)
    8	end (* convert_three_bytes *);MODULE  M68DMP       M68DMP - M68000 Object File Analyzer                              15-Jun-82 14:22
SECTION 6            convert_four_bytes                                                         PAGE 8

    2	(* CONVERT_FOUR_BYTES - converts a four-byte value to hexadecimal characters. *)
    3	
    4	function convert_four_bytes (input_four_bytes : four_bytes) : string_10;
    5	
    6	begin
    7	  putstring (convert_four_bytes, input_four_bytes:8:h)
    8	end (* convert_four_bytes *);MODULE  M68DMP       M68DMP - M68000 Object File Analyzer                              15-Jun-82 14:22
SECTION 7            convert_decimal                                                            PAGE 9

    2	function convert_decimal (input_number : integer;
    3	                          input_size : 0..10) : string_10;
    4	
    5	begin
    6	  putstring (convert_decimal, input_number:input_size);
    7	end (* convert_decimal *);MODULE  M68DMP       M68DMP - M68000 Object File Analyzer                              15-Jun-82 14:22
SECTION 8            page_skip                                                                 PAGE 10

    2	(* PAGE_SKIP - does a page skip on the output file. *)
    3	
    4	procedure page_skip;
    5	
    6	begin
    7 *	$IF P10  fio_page (output_file);
    8	$IF M68  page (output_file);
    9	end (* page_skip *);MODULE  M68DMP       M68DMP - M68000 Object File Analyzer                              15-Jun-82 14:22
SECTION 9            write_header                                                              PAGE 11

    2	(* WRITE_HEADER - is called by fio_page in the fio package to write
    3	                  a page header at the top of each new page. *)
    4	
    5 *	$IF P10
    6 *	procedure write_header (var fb : file_block);
    7 *	
    8 *	begin
    9 *	  fio_line (fb, 'M68000 Object File Analysis for file: ' || 
   10 *	            filename (input_file) || 
   11 *	            '         Page ' || 
   12 *	            convert_decimal (fb.pageno, 0));
   13 *	  fio_skip (fb);
   14 *	end (* write_header *);
   15 *	$ENDIFMODULE  M68DMP       M68DMP - M68000 Object File Analyzer                              15-Jun-82 14:22
SECTION 10           warning                                                                   PAGE 12

    2	(* WARNING - writes a warning message to the terminal, and possibly
    3	             to the output file. *)
    4	
    5	procedure warning (input_warning_message : string[*]);
    6	
    7	begin
    8	  writeln (tty, '*** Warning: ' || input_warning_message);
    9	  if not tty_flag then begin
   10	    page_skip;
   11	    write_string ('*** Warning: ' || input_warning_message);
   12	  end;
   13	end (* warning *);MODULE  M68DMP       M68DMP - M68000 Object File Analyzer                              15-Jun-82 14:22
SECTION 11           error                                                                     PAGE 13

    2	(* ERROR - writes an error message to the terminal, and possibly to the
    3	           output file, then closes all open files and stops execution. *)
    4	
    5	procedure error (input_error_message : string[*]);
    6	
    7	begin
    8	  writeln (tty, '*** Error: ' || input_error_message);
    9	  if not tty_flag then begin
   10	    page_skip;
   11	    write_string ('*** Error: ' || input_error_message);
   12	  end;
   13	  stop;
   14	end (* error *);MODULE  M68DMP       M68DMP - M68000 Object File Analyzer                              15-Jun-82 14:22
SECTION 12           check_flags                                                               PAGE 14

    2	procedure check_eof_flag;
    3	
    4	begin
    5	  if eof_flag then
    6	    error ('Unexpected EOF.');
    7	end (* check_eof_flag *);
    8	
    9	(* ------------------------------------------------------------ *)
   10	
   11	procedure check_id_flag;
   12	
   13	begin
   14	  if not id_flag then
   15	    warning ('Record encountered before Identification Record.');
   16	end (* check_id_flag *);
   17	
   18	(* ------------------------------------------------------------ *)
   19	
   20	procedure check_end_flag;
   21	
   22	begin
   23	  if end_flag then
   24	    warning ('Record encountered after End Record.');
   25	end (* check_end_flag *);MODULE  M68DMP       M68DMP - M68000 Object File Analyzer                              15-Jun-82 14:22
SECTION 13           read_one_byte                                                             PAGE 15

    2	(* READ_ONE_BYTE - gets the next byte from input_record, as indicated by
    3	                   byte_ptr.  If necessary, it reads a new num_bytes long
    4	                   input_record and resets byte_ptr to 1. *)
    5	
    6	procedure read_one_byte (var output_one_byte : one_byte);
    7	
    8	var
    9	  local_counter : 1..num_bytes;
   10	
   11	begin
   12	  output_one_byte := input_record[byte_ptr];
   13	  byte_ptr := byte_ptr + 1;
   14	  if byte_ptr = num_bytes + 1 then begin
   15	    if eof (input_file) then begin
   16	      for local_counter := 1 to num_bytes do
   17	        input_record[local_counter] := 0;
   18	      eof_flag := true;
   19	    end
   20	    else
   21	      read (input_file, input_record);
   22	    byte_ptr := 1;
   23	  end;
   24	end (* read_one_byte *);MODULE  M68DMP       M68DMP - M68000 Object File Analyzer                              15-Jun-82 14:22
SECTION 14           read_two_bytes                                                            PAGE 16

    2	(* READ_TWO_BYTES - calls read_one_byte twice and combines these two
    3	                    separate bytes into a single two-byte value. *)
    4	
    5	procedure read_two_bytes (var output_two_bytes : two_bytes);
    6	
    7	var
    8	  local_one_byte : one_byte;
    9	
   10	begin
   11	  read_one_byte (local_one_byte);
   12	  check_eof_flag;
   13	  output_two_bytes := local_one_byte;
   14	  read_one_byte (local_one_byte);
   15	  check_eof_flag;
   16	  output_two_bytes := output_two_bytes * 256 + local_one_byte;
   17	end (* read_two_bytes *);MODULE  M68DMP       M68DMP - M68000 Object File Analyzer                              15-Jun-82 14:22
SECTION 15           read_three_bytes                                                          PAGE 17

    2	(* READ_THREE_BYTES - calls read_one_byte three times and combines these
    3	                      three separate bytes into a single three-byte value. *)
    4	
    5	procedure read_three_bytes (var output_three_bytes : three_bytes);
    6	
    7	var
    8	  local_counter : 1..2;
    9	  local_one_byte : one_byte;
   10	
   11	begin
   12	  read_one_byte (local_one_byte);
   13	  check_eof_flag;
   14	  output_three_bytes := local_one_byte;
   15	  for local_counter := 1 to 2 do begin
   16	    read_one_byte (local_one_byte);
   17	    check_eof_flag;
   18	    output_three_bytes := output_three_bytes * 256 + local_one_byte;
   19	  end;
   20	end (* read_three_bytes *);MODULE  M68DMP       M68DMP - M68000 Object File Analyzer                              15-Jun-82 14:22
SECTION 16           read_four_bytes                                                           PAGE 18

    2	(* READ_FOUR_BYTES - calls read_one_byte four times and combines these
    3	                     four separate bytes into a single four-byte value. *)
    4	
    5	procedure read_four_bytes (var output_four_bytes : four_bytes);
    6	
    7	var
    8	  local_counter : 1..3;
    9	  local_one_byte : one_byte;
   10	
   11	begin
   12	  read_one_byte (local_one_byte);
   13	  check_eof_flag;
   14	  output_four_bytes := local_one_byte;
   15	  for local_counter := 1 to 3 do begin
   16	    read_one_byte (local_one_byte);
   17	    check_eof_flag;
   18	    output_four_bytes := output_four_bytes * 256 + local_one_byte;
   19	  end;
   20	end (* read_four_bytes *);MODULE  M68DMP       M68DMP - M68000 Object File Analyzer                              15-Jun-82 14:22
SECTION 17           read_string                                                               PAGE 19

    2	(* READ_STRING - reads in a given number of bytes, converting each one
    3	                 into a character, and concatenating them into a string. *)
    4	
    5	procedure read_string (input_length : one_byte;
    6	                       var output_string : string[*]);
    7	
    8	var
    9	  local_counter : one_byte;
   10	  local_one_byte : one_byte;
   11	
   12	begin
   13	  output_string := '';
   14	  for local_counter := 1 to input_length do begin
   15	    read_one_byte (local_one_byte);
   16	    check_eof_flag;
   17	    output_string := output_string || chr (local_one_byte);
   18	  end;
   19	end (* read_string *);MODULE  M68DMP       M68DMP - M68000 Object File Analyzer                              15-Jun-82 14:22
SECTION 18           motorola_format_dump                                                      PAGE 20

    2	procedure motorola_format_dump;
    3	
    4	var
    5	  local_code_string : string[100];
    6	  local_char_string : string[25];
    7	  local_char : char;
    8	  local_segment_number : one_byte;
    9	  local_char_number : integer;
   10	  local_one_byte : one_byte;
   11	  local_file_name : file_name;
   12	
   13	begin
   14	  local_code_string := '';
   15	  local_char_string := '';
   16	  local_segment_number := 0;
   17	  local_char_number := 256;
   18	  repeat
   19	    if local_char_number = 256 then begin
   20	      write_string (local_code_string || local_char_string);
   21	      write_string ('');
   22	      local_code_string := '    SN=$' || 
   23	                           convert_one_byte (local_segment_number); 
   24	      local_char_string := '      ' ||
   25	                           convert_decimal (local_segment_number, 0);
   26	      local_segment_number := local_segment_number + 1;
   27	      local_char_number := 0;
   28	    end;
   29	    if local_charer mod 16 = 0 then begin
   30	      write_string (local_code_string || local_char_string);
   31	      local_code_string := convert_one_byte (local_char_number mod 256) || '    ';
   32	      local_char_string := '     ';
   33	    end;
   34	    if local_char_number mod 16 = 8 then
   35	      local_code_string := local_code_string || ' ';
   36	    read_one_byte (local_one_byte);
   37	    local_code_string := local_code_string || convert_one_byte (local_one_byte) || ' ';
   38	    local_char := '.';
   39	    if (local_one_byte >= ord (' ')) and
   40	       (local_one_byte <= ord ('}')) then
   41	      local_char := chr (local_one_byte);
   42	    local_char_string := local_char_string || local_char;
   43	    local_char_number := local_char_number + 1;MODULE  M68DMP       M68DMP - M68000 Object File Analyzer                              15-Jun-82 14:22
SECTION 18           motorola_format_dump                                                      PAGE 21

   44	  until eof_flag;
   45	  write_string (local_code_string || local_char_string);
   46	  local_file_name := filename (input_file);
   47	  close (input_file);
   48	  reset (input_file, local_file_name);
   49	  if iostatus (input_file) <> io_ok then
   50	    error ('Cannot re-open input file.');
   51	  read (input_file, input_record);
   52	  byte_ptr := 1;
   53	  eof_flag := false;
   54	  if not tty_flag then
   55	    page_skip;
   56	end (* motorola_format_dump *);MODULE  M68DMP       M68DMP - M68000 Object File Analyzer                              15-Jun-82 14:22
SECTION 19           process_identification_record                                             PAGE 22

    2	(* PROCESS_IDENTIFICATION_RECORD - breaks an identification record up into
    3	                                   it's component fields. *)
    4	
    5	procedure process_identification_record;
    6	
    7	var
    8	  local_one_byte : one_byte;
    9	  local_two_bytes : two_bytes;
   10	  local_string : string[211];
   11	
   12	begin
   13	  write_string ('');
   14	  write_string ('Identification record:');
   15	  read_string (10, local_string);
   16	  write_string ('   Module name = ''' || local_string || '''');
   17	  read_one_byte (local_one_byte);
   18	  check_eof_flag;
   19	  write_string ('   Module version number = ' || 
   20	                convert_decimal (local_one_byte, 0));
   21	  read_one_byte (local_one_byte);
   22	  check_eof_flag;
   23	  write_string ('   Module revision number = ' || 
   24	                convert_decimal (local_one_byte, 0));
   25	  read_string (1, local_string);
   26	  write_string ('   Language processor = ''' || local_string || '''');
   27	  read_string (4, local_string);
   28	  write_string ('   Source file volume name = ''' || local_string || '''');
   29	  read_two_bytes (local_two_bytes);
   30	  write_string ('   Source file user number = ' || 
   31	                convert_decimal (local_two_bytes, 0));
   32	  read_string (8, local_string);
   33	  write_string ('   Source file catalog name = ''' || local_string || '''');
   34	  read_string (8, local_string);
   35	  write_string ('   Source file file name = ''' || local_string || '''');
   36	  read_string (2, local_string);
   37	  write_string ('   Source file extension = ''' || local_string || '''');
   38	  local_string := '  :  :  ';
   39	  read_one_byte (local_one_byte);
   40	  check_eof_flag;
   41	  putstring (substr (local_string, 1, 2), local_one_byte:2:h);
   42	  read_one_byte (local_one_byte);
   43	  check_eof_flag;MODULE  M68DMP       M68DMP - M68000 Object File Analyzer                              15-Jun-82 14:22
SECTION 19           process_identification_record                                             PAGE 23

   44	  putstring (substr (local_string, 4, 2), local_one_byte:2:h);
   45	  read_one_byte (local_one_byte);
   46	  check_eof_flag;
   47	  putstring (substr (local_string, 7, 2), local_one_byte:2:h);
   48	  write_string ('   Module creation time = ' || local_string);
   49	  local_string := '  /  /  ';
   50	  read_one_byte (local_one_byte);
   51	  check_eof_flag;
   52	  putstring (substr (local_string, 1, 2), local_one_byte:2:h);
   53	  read_one_byte (local_one_byte);
   54	  check_eof_flag;
   55	  putstring (substr (local_string, 4, 2), local_one_byte:2:h);
   56	  read_one_byte (local_one_byte);
   57	  check_eof_flag;
   58	  putstring (substr (local_string, 7, 2), local_one_byte:2:h);
   59	  write_string ('   Module creation date = ' || local_string);
   60	  read_string (byte_count - 44, local_string);
   61	  write_string ('   Module description = ''' || local_string || '''');
   62	  id_flag := true;
   63	  end_flag := false;
   64	end (* process_identification_record *);MODULE  M68DMP       M68DMP - M68000 Object File Analyzer                              15-Jun-82 14:22
SECTION 20           process_ESD_record                                                        PAGE 24

    2	(* PROCESS_ESD_RECORD - breaks an ESD record into it's component fields, 
    3	                        after using the left digit of the first byte to
    4	                        determine the record subtype. *)
    5	
    6	procedure process_ESD_record;
    7	
    8	type
    9	  string_10 = string[10];
   10	
   11	var
   12	  local_one_byte : one_byte;
   13	  local_four_bytes : four_bytes;
   14	  local_string : string_10;
   15	
   16	begin
   17	  check_id_flag;
   18	  check_end_flag;
   19	  write_string ('');
   20	  read_one_byte (local_one_byte);
   21	  check_eof_flag;
   22	  case local_one_byte div 16 of
   23	
   24	    2 : begin
   25	          write_string ('Standard relocatable section:');
   26	          write_string ('   Section = $' || 
   27	                        convert_one_byte (local_one_byte mod 16) ||
   28	                        '  (' || 
   29	                        convert_decimal (local_one_byte mod 16, 0) || 
   30	                        ')');
   31	          read_four_bytes (local_four_bytes);
   32	          write_string ('   Size = $' || 
   33	                        convert_four_bytes (local_four_bytes) || 
   34	                        '  (' || 
   35	                        convert_decimal (local_four_bytes, 0) || 
   36	                        ')');
   37	        end;
   38	
   39	    4 : begin
   40	          write_string ('Relocatable XDEF:');
   41	          write_string ('   Section = $' || 
   42	                        convert_one_byte (local_one_byte mod 16) ||
   43	                        '  (' || MODULE  M68DMP       M68DMP - M68000 Object File Analyzer                              15-Jun-82 14:22
SECTION 20           process_ESD_record                                                        PAGE 25

   44	                        convert_decimal (local_one_byte mod 16, 0) || 
   45	                        ')');
   46	          read_string (10, local_string);
   47	          write_string ('   XDEF = ''' || local_string || '''');
   48	          read_four_bytes (local_four_bytes);
   49	          write_string ('   Address = $' || 
   50	                        convert_four_bytes (local_four_bytes));
   51	        end;
   52	
   53	    7 : begin
   54	          write_string ('Absolute XREF:');
   55	          read_string (10, local_string);
   56	          write_string ('   XREF = ''' || local_string || '''');
   57	          write_string ('   ESDID = $' ||
   58	                        convert_one_byte (current_ESDID) ||
   59	                        '  (' || 
   60	                        convert_decimal (current_ESDID, 0) || 
   61	                        ')');
   62	$IF STATS
   63	          ESDID_array[current_ESDID].name := local_string;
   64	$ENDIF
   65	          current_ESDID := current_ESDID + 1;
   66	        end;
   67	
   68	    others : error ('Illegal ESD record type.');
   69	
   70	  end (* case *);
   71	end (* process_ESD_record *);MODULE  M68DMP       M68DMP - M68000 Object File Analyzer                              15-Jun-82 14:22
SECTION 21           get_bits                                                                  PAGE 26

    2	(* GET_BITS - returns the value of the given bit range for a given byte, 
    3	              with the bits numbered in Motorola fashion (7 6 5 4 3 2 1 0). *) 
    4	
    5	function get_bits (input_byte : one_byte;
    6	                   input_last_bit : 0..7;
    7	                   input_number_bits : 1..8) : one_byte;
    8	
    9	var
   10	  local_counter : 0..7;
   11	  local_bit : 0..1;
   12	  local_byte : one_byte;
   13	
   14	begin
   15	  get_bits := 0;
   16	  local_byte := input_byte;
   17	  for local_counter := 0 to 7 do begin
   18	    local_bit := local_byte mod 2;
   19	    local_byte := local_byte div 2;
   20	    if (local_counter >= input_last_bit) and
   21	       (local_counter < input_last_bit + input_number_bits) then
   22	      get_bits := get_bits + (local_bit * 2 ** (local_counter - input_last_bit));
   23	  end (* for *);
   24	end (* get_bits *);MODULE  M68DMP       M68DMP - M68000 Object File Analyzer                              15-Jun-82 14:22
SECTION 22           decrement_check_byte_count                                                PAGE 27

    2	(* DECREMENT_CHECK_BYTE_COUNT - subtracts a given amount from the number of
    3	                                bytes remaining in the current logical
    4	                                record, and signals an error if the count
    5	                                goes negative. *)
    6	
    7	procedure decrement_check_byte_count (input_amount : integer);
    8	
    9	begin
   10	  byte_count := byte_count - input_amount;
   11	  if byte_count < 0 then
   12	    error ('Incorrect Text Record byte count.');
   13	end (* decrement_check_byte_count *);MODULE  M68DMP       M68DMP - M68000 Object File Analyzer                              15-Jun-82 14:22
SECTION 23           process_absolute_code                                                     PAGE 28

    2	(* PROCESS_ABSOLUTE_CODE - writes out the two bytes of absolute code that
    3	                           make up an entry in a text record. *)
    4	
    5	procedure process_absolute_code (input_counter : 0..32);
    6	
    7	var
    8	  local_two_bytes : two_bytes;
    9	
   10	begin
   11	  read_two_bytes (local_two_bytes);
   12	  decrement_check_byte_count (2);
   13	  write_string ('   (' ||
   14	                convert_decimal (input_counter + 1, 2) ||
   15	                ') Absolute code: $' ||
   16	                convert_two_bytes (local_two_bytes));
   17	end (* process_absolute_code *);MODULE  M68DMP       M68DMP - M68000 Object File Analyzer                              15-Jun-82 14:22
SECTION 24           process_relocation_data                                                   PAGE 29

    2	(* PROCESS_RELOCATION_DATA - breaks a relocation data entry from a text
    3	                             record up into it's component fields. *)
    4	
    5	procedure process_relocation_data (input_counter : 0..32);
    6	
    7	var
    8	  local_counter : 0..7;
    9	  local_num_ESDID : 0..7;
   10	  local_data_size : 1..2;
   11	  local_offset_length : 0..4;
   12	  local_one_byte : one_byte;
   13	  local_two_bytes : two_bytes;
   14	  local_three_bytes : three_bytes;
   15	  local_four_bytes : four_bytes;
   16	
   17	begin
   18	  write_string ('   (' ||
   19	                convert_decimal (input_counter + 1, 2) ||
   20	                ') Relocation data:');
   21	  read_one_byte (local_one_byte);
   22	  check_eof_flag;
   23	  decrement_check_byte_count (1);
   24	  local_num_ESDID := get_bits (local_one_byte, 5, 3);
   25	  local_data_size := get_bits (local_one_byte, 3, 1) + 1;
   26	  local_offset_length := get_bits (local_one_byte, 0, 3);
   27	  write_string ('           Flag byte = $' || 
   28	                convert_one_byte (local_one_byte) ||
   29	                ' [Number ESDIDs = ' ||
   30	                convert_decimal (local_num_ESDID, 0) ||
   31	                ', Data size = ' ||
   32	                convert_decimal (local_data_size, 0) ||
   33	                ' word(s), Offset length = ' ||
   34	                convert_decimal (local_offset_length, 0) ||
   35	                ' byte(s)]');
   36	  for local_counter := 1 to local_num_ESDID do begin
   37	    read_one_byte (local_one_byte);
   38	    check_eof_flag;
   39	    decrement_check_byte_count (1);
   40	    write_string ('           ESDID = $' || 
   41	                  convert_one_byte (local_one_byte) ||
   42	                  '  (' || 
   43	                  convert_decimal (local_one_byte, 0) || MODULE  M68DMP       M68DMP - M68000 Object File Analyzer                              15-Jun-82 14:22
SECTION 24           process_relocation_data                                                   PAGE 30

   44	                  ')');
   45	$IF STATS
   46	    if local_one_byte >= minimum (ESDID_range) then
   47	      ESDID_array[local_one_byte].count := ESDID_array[local_one_byte].count + 1;
   48	$ENDIF
   49	  end (* for *);
   50	  case local_offset_length of
   51	    0 : ;
   52	    1 : read_one_byte (local_one_byte);
   53	    2 : read_two_bytes (local_two_bytes);
   54	    3 : read_three_bytes (local_three_bytes);
   55	    4 : read_four_bytes (local_four_bytes);
   56	    others : error ('Illegal offset length.');
   57	  end (* case *);
   58	  decrement_check_byte_count (local_offset_length);
   59	  case local_offset_length of
   60	    0 : ;
   61	    1 : write_string ('           Offset = $' || 
   62	                      convert_one_byte (local_one_byte));
   63	    2 : write_string ('           Offset = $' || 
   64	                      convert_two_bytes (local_two_bytes));
   65	    3 : write_string ('           Offset = $' || 
   66	                      convert_three_bytes (local_three_bytes));
   67	    4 : write_string ('           Offset = $' || 
   68	                      convert_four_bytes (local_four_bytes));
   69	    others : error ('Illegal offset length.');
   70	  end (* case *);
   71	end (* process_relocation_data *);MODULE  M68DMP       M68DMP - M68000 Object File Analyzer                              15-Jun-82 14:22
SECTION 25           convert_binary                                                            PAGE 31

    2	(* CONVERT_BINARY - converts a byte into printable characters that
    3	                    represent it's bit pattern. *)
    4	
    5	function convert_binary (input_one_byte : one_byte) : string_10;
    6	
    7	const
    8	  bit_char : array [0..1] of char = ('0', '1');
    9	
   10	var
   11	  local_counter : 0..7;
   12	
   13	begin
   14	  convert_binary := '';
   15	  for local_counter := 7 downto 0 do begin
   16	    convert_binary := convert_binary ||
   17	                      bit_char[get_bits (input_one_byte, local_counter, 1)];
   18	    if local_counter = 4 then
   19	      convert_binary := convert_binary || ' ';
   20	  end (* for loop *);
   21	end (* convert_binary *);MODULE  M68DMP       M68DMP - M68000 Object File Analyzer                              15-Jun-82 14:22
SECTION 26           process_text_record                                                       PAGE 32

    2	(* PROCESS_TEXT_RECORD - breaks up a text record into it's component fields
    3	                         using the four bytes of bit maps read in to 
    4	                         determine the type of each of the next 1 to 32
    5	                         sub-records.  *)
    6	
    7	procedure process_text_record;
    8	
    9	var
   10	  local_counter : 0..32;
   11	  local_map : array [1..4] of one_byte;
   12	  local_ESDID : one_byte;
   13	
   14	begin
   15	  check_id_flag;
   16	  check_end_flag;
   17	  decrement_check_byte_count (1);
   18	  write_string ('');
   19	  write_string ('Text record:');
   20	  for local_counter := 1 to 4 do begin
   21	    read_one_byte (local_map[local_counter]);
   22	    check_eof_flag;
   23	    decrement_check_byte_count (1);
   24	    write_string ('   Map byte = $' || 
   25	                  convert_one_byte (local_map[local_counter]) ||
   26	                  '  (' ||
   27	                  convert_binary (local_map[local_counter]) ||
   28	                  ')');
   29	  end (* for *);
   30	  read_one_byte (local_ESDID);
   31	  check_eof_flag;
   32	  decrement_check_byte_count (1);
   33	  write_string ('   ESDID = $' || 
   34	                convert_one_byte (local_ESDID) ||
   35	                '  (' || 
   36	                convert_decimal (local_ESDID, 0) || 
   37	                ')');
   38	  write_string ('');
   39	  local_counter := 0;
   40	  while (local_counter < 32) and
   41	         (byte_count > 0) do begin
   42	    if get_bits (local_map[ (local_counter div 8) + 1], 
   43	                 7 - (local_counter mod 8), 1) = 0 thenMODULE  M68DMP       M68DMP - M68000 Object File Analyzer                              15-Jun-82 14:22
SECTION 26           process_text_record                                                       PAGE 33

   44	      process_absolute_code (local_counter)
   45	    else
   46	      process_relocation_data (local_counter);
   47	    local_counter := local_counter + 1;
   48	  end (* while *);
   49	  write_string ('');
   50	  if byte_count <> 0 then
   51	    error ('Incorrect Text Record byte count.');
   52	end (* process_text_record *);MODULE  M68DMP       M68DMP - M68000 Object File Analyzer                              15-Jun-82 14:22
SECTION 27           process_end_record                                                        PAGE 34

    2	(* PROCESS_END_RECORD - breaks up an end record into it's component fields. *)
    3	
    4	procedure process_end_record;
    5	
    6	var
    7	  local_one_byte : one_byte;
    8	  local_four_bytes : four_bytes;
    9	
   10	begin
   11	  if not id_flag then
   12	    warning ('Record encountered before Identification Record.');
   13	  write_string ('');
   14	  write_string ('End record:');
   15	  read_one_byte (local_one_byte);
   16	  check_eof_flag;
   17	  write_string ('   Starting execution section = $' || 
   18	                convert_one_byte (local_one_byte) ||
   19	                '  (' || 
   20	                convert_decimal (local_one_byte, 0) ||
   21	                ')');
   22	  if local_one_byte < 17 then begin
   23	    read_four_bytes (local_four_bytes);
   24	    write_string ('   Starting execution address = $' || 
   25	                  convert_four_bytes (local_four_bytes));
   26	  end;
   27	  end_flag := true;
   28	end (* process_end_record *);MODULE  M68DMP       M68DMP - M68000 Object File Analyzer                              15-Jun-82 14:22
SECTION 28           process_input                                                             PAGE 35

    2	(* PROCESS_INPUT - loops until end-of-file is encountered on the input file, 
    3	                   determining the type of each logical record and then
    4	                   processing it. *)
    5	
    6	procedure process_input;
    7	
    8	var
    9	  local_one_byte : one_byte;
   10	
   11	begin
   12	  read_one_byte (local_one_byte);
   13	  while not eof_flag do begin
   14	    byte_count := local_one_byte;
   15	    if byte_count = 0 then
   16	      skip_count := skip_count + 1
   17	    else begin
   18	      if skip_count > 0 then begin
   19	        write_string ('');
   20	        write_string (convert_decimal (skip_count, 0) || 
   21	                      ' zero-length record(s) skipped');
   22	        skip_count := 0;
   23	      end;
   24	      read_one_byte (local_one_byte);
   25	      check_eof_flag;
   26	      case local_one_byte of
   27	        ord ('1') : process_identification_record;
   28	        ord ('2') : process_ESD_record;
   29	        ord ('3') : process_text_record;
   30	        ord ('4') : process_end_record;
   31	        others    : error ('Illegal record type.');
   32	      end (* case *);
   33	    end (* else *);
   34	    read_one_byte (local_one_byte);
   35	  end (* while *);
   36	  if skip_count > 0 then begin
   37	    write_string ('');
   38	    write_string (convert_decimal (skip_count, 0) || 
   39	                  ' zero-length record(s) skipped');
   40	  end;
   41	  if not id_flag then
   42	    warning ('Missing Identification Record.');
   43	  if not end_flag thenMODULE  M68DMP       M68DMP - M68000 Object File Analyzer                              15-Jun-82 14:22
SECTION 28           process_input                                                             PAGE 36

   44	    warning ('Missing End Record.');
   45	end (* process_input *);MODULE  M68DMP       M68DMP - M68000 Object File Analyzer                              15-Jun-82 14:22
SECTION 29           print_ESDID_statistics                                                    PAGE 37

    2	(* PRINT_ESDID_STATISTICS - prints out the statistics collected above
    3	                            that count the number of static calls to
    4	                            each runtime call. *)
    5	
    6	$IF STATS
    7	procedure print_ESDID_statistics;
    8	
    9	var
   10	  local_index : ESDID_range;
   11	
   12	begin
   13	  local_index := minimum (ESDID_range);
   14	  page_skip;
   15	  write_string ('Runtime Statistics:');
   16	  write_string ('');
   17	  write_string ('Name        Calls');
   18	  write_string ('----------  -----');
   19	  write_string ('');
   20	  while (local_index <= maximum (ESDID_range)) andif
   21	        (ESDID_array[local_index].name <> '') do begin
   22	    with ESDID_array[local_index] do 
   23	      write_string (name || '  ' || convert_decimal (count, 0));
   24	    local_index := local_index + 1;
   25	  end (* while *);
   26	end (* print_ESDID_statistics *);
   27	$ENDIFMODULE  M68DMP       M68DMP - M68000 Object File Analyzer                              15-Jun-82 14:22
SECTION 30           get_file_names                                                            PAGE 38

    2	(* GET_FILE_NAMES - prompts user for input file name, and either output
    3	                    file name or tty.  Writes out a heading and reads in
    4	                    the first input_record. *)
    5	
    6	procedure get_file_names;
    7	
    8	var
    9	  input_file_name : file_name;
   10	  output_file_name : file_name;
   11	
   12	begin
   13	  writeln (tty, 'M68000 Object File Analyzer, Version 1.0');
   14	  write (tty, 'Input file: ');
   15	  break (tty);
   16	  readln (tty);
   17	  read (tty, input_file_name);
   18	  if input_file_name = '' then
   19	    stop;  (* <--- No input file *)
   20	  reset (input_file, '.RO ' || input_file_name, [retry]);
   21	  if iostatus (input_file) <> io_ok then
   22	    error ('Bad input file.');
   23	  write (tty, 'Output file: ');
   24	  break (tty);
   25	  readln (tty);
   26	  read (tty, output_file_name);
   27	  if output_file_name <> ' ' then begin
   28	$IF M68  rewrite (output_file, '.LS ' || output_file_name);
   29 *	$IF P10  fio_open (output_file, '.LS ' || output_file_name);
   30	    if iostatus <> io_ok then
   31	      error ('Bad output file.');
   32	    tty_flag := false;
   33 *	$IF P10
   34 *	    with output_file do begin
   35 *	      page_header := write_header;
   36 *	      width := 120;
   37 *	      plength := 42;
   38 *	    end (* with output_file *);
   39 *	    page_skip;
   40 *	$ENDIF
   41	$IF M68
   42	    write_string ('M68000 Object File Analysis for File: ' ||
   43	                  filename (input_file));MODULE  M68DMP       M68DMP - M68000 Object File Analyzer                              15-Jun-82 14:22
SECTION 30           get_file_names                                                            PAGE 39

   44	    write_string ('');
   45	$ENDIF
   46	  end;
   47	  read (input_file, input_record);
   48	end (* get_file_names *);MODULE  M68DMP       M68DMP - M68000 Object File Analyzer                              15-Jun-82 14:22
SECTION 31           main                                                                      PAGE 40

    2	begin
    3	  initialize;
    4	  get_file_names;
    5	  motorola_format_dump;
    6	  process_input;
    7	$IF STATS
    8	  print_ESDID_statistics;
    9	$ENDIF
   10	end.

File   level   on page     name

  0	 0	    1	DSK:M68DMP.PAS[31024,332221]



Section   in file   on page     title

    12	      0	        14    check_flags
    25	      0	        31    convert_binary
     7	      0	         9    convert_decimal
     6	      0	         8    convert_four_bytes
     3	      0	         5    convert_one_byte
     5	      0	         7    convert_three_bytes
     4	      0	         6    convert_two_bytes
    22	      0	        27    decrement_check_byte_count
    11	      0	        13    error
    21	      0	        26    get_bits
    30	      0	        38    get_file_names
     1	      0	         3    initialize
    31	      0	        40    main
    18	      0	        20    motorola_format_dump
     8	      0	        10    page_skip
    29	      0	        37    print_ESDID_statistics
    23	      0	        28    process_absolute_code
    27	      0	        34    process_end_record
    20	      0	        24    process_ESD_record
    19	      0	        22    process_identification_record
    28	      0	        35    process_input
    24	      0	        29    process_relocation_data
    26	      0	        32    process_text_record
    16	      0	        18    read_four_bytes
    13	      0	        15    read_one_byte
    17	      0	        19    read_string
    15	      0	        17    read_three_bytes
    14	      0	        16    read_two_bytes
    10	      0	        12    warning
     9	      0	        11    write_header
     2	      0	         4    write_string
                                                                                                                                                                                                                                                                                                                                                                                                                                                                                                                                                                                                           		      M68DMP     IDNT	   0,0
		      *
		      *		 MC68000 Checkout Code Generator,  Jun 15, 1982  02:23:51 pm
		      *
	 00000002		 SECTION   2
	 00000000     STATIC.	 EQU	   *
	 0000000A		 SECTION   10
	 00000000     CODE.	 EQU	   *
00000000 C13E6528     C.1	 DC.L	   $C13E6528			       Date-time
00000004 0000			 DC.W	   0				         $0
00000006 4D3638444D50		 DC.B	   'M68DMP'
	 00000002		 SECTION   2
		      *
		      *		 Initialized static area
		      *
		      *
		      *		 Condition cells
		      *
		      *
		      *		 Unitialized static area
		      *
00000000 0000100C		 DS.B	   4108
	 0000000A		 SECTION   10
0000000C 23434E	      K.1	 DC.B	   '#CN'
0000000F 00000001		 DS.B	   1
00000010 23434E	      K.2	 DC.B	   '#CN'
00000013 00000001		 DS.B	   1
		      *
		      *		 Begin subroutine INITIALIZE
		      *
00000014	      B.3
		      *							       LINE 1/11
		      *							       LINE 1/12
00000014 487AFFF6     L.3.1	 PEA	   K.1(PC)			         CODE.+$C
00000018 7003			 MOVEQ	   #3,D0			         $3
0000001A 3F00			 MOVE.W	   D0,-(A7)
0000001C 7031			 MOVEQ	   #49,D0			         $31
0000001E 3F00			 MOVE.W	   D0,-(A7)
00000020 4EB900000000		 JSR	   T.OPEN
00000026 2B5F0000		 MOVE.L	   (A7)+,TTY(A5)		         TTY
		      *							       LINE 1/13
0000002A 487AFFE4		 PEA	   K.2(PC)			         CODE.+$10
0000002E 7003			 MOVEQ	   #3,D0			         $3
00000030 3F00			 MOVE.W	   D0,-(A7)
00000032 7032			 MOVEQ	   #50,D0			         $3200000034 3F00			 MOVE.W	   D0,-(A7)
00000036 4EB900000000		 JSR	   T.REWRIT
0000003C 2B5F0000		 MOVE.L	   (A7)+,TTYOUTPUT(A5)		         TTYOUTPUT
		      *							       LINE 1/14
00000040 7000			 MOVEQ	   #0,D0			         $0
00000042 1B400000		 MOVE.B	   D0,STATIC.+0(A5)		         EOF_FLAG
		      *							       LINE 1/15
00000046 7001			 MOVEQ	   #1,D0			         $1
00000048 1B400001		 MOVE.B	   D0,STATIC.+1(A5)		         TTY_FLAG
		      *							       LINE 1/16
0000004C 7000			 MOVEQ	   #0,D0			         $0
0000004E 1B400002		 MOVE.B	   D0,STATIC.+2(A5)		         ID_FLAG
		      *							       LINE 1/17
00000052 7000			 MOVEQ	   #0,D0			         $0
00000054 1B400003		 MOVE.B	   D0,STATIC.+3(A5)		         END_FLAG
		      *							       LINE 1/18
00000058 7011			 MOVEQ	   #17,D0			         $11
0000005A 2B400004		 MOVE.L	   D0,STATIC.+4(A5)		         CURRENT_ESDID
		      *							       LINE 1/19
0000005E 7001			 MOVEQ	   #1,D0			         $1
00000060 2B400008		 MOVE.L	   D0,STATIC.+8(A5)		         BYTE_PTR
		      *							       LINE 1/20
00000064 7000			 MOVEQ	   #0,D0			         $0
00000066 2B400010		 MOVE.L	   D0,STATIC.+16(A5)		         SKIP_COUNT
		      *							       LINE 1/22
0000006A 7011	      L.3.2	 MOVEQ	   #17,D0			         $11
0000006C 2D40FFD8		 MOVE.L	   D0,-40(A6)			         LOCAL_INDEX
00000070	      L.3.3
		      *							       LINE 1/22 (2)
		      *							       LINE 1/23
00000070 202EFFD8     L.3.4	 MOVE.L	   -40(A6),D0			         LOCAL_INDEX
00000074 E940			 ASL.W	   #4,D0			         $4
00000076 41ED000C		 LEA	   STATIC.+284-272(A5),A0	         ESDID_ARRAY
0000007A 43F00000		 LEA	   0(A0,D0.W),A1		         $0
0000007E 2D49FFD4		 MOVE.L	   A1,X.3.2(A6)
		      *							       LINE 1/23 (2)
		      *							       LINE 1/24
00000082 206EFFD4     L.3.5	 MOVEA.L   X.3.2(A6),A0
00000086 4250			 CLR.W	   (A0)
		      *							       LINE 1/25
00000088 206EFFD4		 MOVEA.L   X.3.2(A6),A0
0000008C 7000			 MOVEQ	   #0,D0			         $0
0000008E 2140000C		 MOVE.L	   D0,12(A0)			         $C
		      *							       LINE 1/26
00000092 206EFFD4		 MOVEA.L   X.3.2(A6),A0		      *							       LINE 1/27
00000096 202EFFD8		 MOVE.L	   -40(A6),D0			         LOCAL_INDEX
0000009A 5280			 ADDQ.L	   #1,D0			         $1
0000009C 2D40FFD8		 MOVE.L	   D0,-40(A6)			         LOCAL_INDEX
000000A0 0C80000000FF		 CMPI.L	   #255,D0			         $FF
000000A6 6FC8			 BLE.S	   L.3.3(PC)
		      *							       LINE 1/29
000000A8 4E75	      L.3.6	 RTS	   
		      *
		      *		 Begin subroutine WRITE_STRING
		      *
000000AA	      B.4
		      *							       LINE 2/6
		      *							       LINE 2/7
000000AA 4A2D0001     L.4.1	 TST.B	   STATIC.+1(A5)		         TTY_FLAG
000000AE 672E			 BEQ.S	   L.4.3(PC)
		      *							       LINE 2/8
000000B0 202D0000     L.4.2	 MOVE.L	   TTYOUTPUT(A5),D0		         TTYOUTPUT
000000B4 4A80			 TST.L	   D0
000000B6 6606			 BNE.S	   X.4.3(PC)
000000B8 4EB900000000		 JSR	   E.FILE
000000BE 206EFFDE     X.4.3	 MOVEA.L   -34(A6),A0			         INPUT_STRING
000000C2 3F10			 MOVE.W	   (A0),-(A7)
000000C4 7203			 MOVEQ	   #3,D1			         $3
000000C6 3F01			 MOVE.W	   D1,-(A7)
000000C8 48680002		 PEA	   2(A0)			         $2
000000CC 2F00			 MOVE.L	   D0,-(A7)
000000CE 4EB900000000		 JSR	   T.WRITE
000000D4 2F00			 MOVE.L	   D0,-(A7)
000000D6 4EB900000000		 JSR	   T.WRTLN
000000DC 602C			 BRA.S	   L.4.4(PC)
		      *							       LINE 2/11
000000DE 202D0118     L.4.3	 MOVE.L	   STATIC.+280(A5),D0		         OUTPUT_FILE
000000E2 4A80			 TST.L	   D0
000000E4 6606			 BNE.S	   X.4.4(PC)
000000E6 4EB900000000		 JSR	   E.FILE
000000EC 206EFFDE     X.4.4	 MOVEA.L   -34(A6),A0			         INPUT_STRING
000000F0 3F10			 MOVE.W	   (A0),-(A7)
000000F2 7203			 MOVEQ	   #3,D1			         $3
000000F4 3F01			 MOVE.W	   D1,-(A7)
000000F6 48680002		 PEA	   2(A0)			         $2
000000FA 2F00			 MOVE.L	   D0,-(A7)
000000FC 4EB900000000		 JSR	   T.WRITE
00000102 2F00			 MOVE.L	   D0,-(A7)
00000104 4EB900000000		 JSR	   T.WRTLN		      *							       LINE 2/12
0000010A 4E75	      L.4.4	 RTS	   
		      *
		      *		 Begin subroutine CONVERT_ONE_BYTE
		      *
0000010C	      B.5
		      *							       LINE 3/6
		      *							       LINE 3/7
0000010C 206EFFE2     L.5.1	 MOVEA.L   -30(A6),A0			         CONVERT_ONE_BYTE
00000110 426EFF1A		 CLR.W	   -230(A6)			         $FFFFFF1A
00000114 3D7C000AFF18		 MOVE.W	   #10,-232(A6)			         $A  $FFFFFF18
0000011A 426EFF16		 CLR.W	   -234(A6)			         $FFFFFF16
0000011E 43EEFF1A		 LEA	   -230(A6),A1			         $FFFFFF1A
00000122 2D49FF12		 MOVE.L	   A1,-238(A6)			         $FFFFFF12
00000126 7002			 MOVEQ	   #2,D0			         $2
00000128 2F00			 MOVE.L	   D0,-(A7)
0000012A 7050			 MOVEQ	   #80,D0			         $50
0000012C 3F00			 MOVE.W	   D0,-(A7)
0000012E 486EFFE6		 PEA	   -26(A6)			         INPUT_ONE_BYTE
00000132 486EFF12		 PEA	   -238(A6)			         $FFFFFF12
00000136 4EB900000000		 JSR	   I.PTSTRV
0000013C 30AEFF1A		 MOVE.W	   -230(A6),(A0)		         $FFFFFF1A
00000140 48680002		 PEA	   2(A0)			         $2
00000144 700A			 MOVEQ	   #10,D0			         $A
00000146 3F00			 MOVE.W	   D0,-(A7)
00000148 486EFF1C		 PEA	   -228(A6)			         $FFFFFF1C
0000014C 3F2EFF1A		 MOVE.W	   -230(A6),-(A7)		         $FFFFFF1A
00000150 4EB900000000		 JSR	   C.MVFF
		      *							       LINE 3/8
00000156 4E75			 RTS	   
		      *
		      *		 Begin subroutine CONVERT_DECIMAL
		      *
00000158	      B.9
		      *							       LINE 7/5
		      *							       LINE 7/6
00000158 206EFFEA     L.9.1	 MOVEA.L   -22(A6),A0			         CONVERT_DECIMAL
0000015C 426EFECE		 CLR.W	   -306(A6)			         $FFFFFECE
00000160 3D7C000AFECC		 MOVE.W	   #10,-308(A6)			         $A  $FFFFFECC
00000166 426EFECA		 CLR.W	   -310(A6)			         $FFFFFECA
0000016A 43EEFECE		 LEA	   -306(A6),A1			         $FFFFFECE
0000016E 2D49FEC6		 MOVE.L	   A1,-314(A6)			         $FFFFFEC6
00000172 2F2EFFF2		 MOVE.L	   -14(A6),-(A7)		         INPUT_SIZE
00000176 7010			 MOVEQ	   #16,D0			         $10
00000178 3F00			 MOVE.W	   D0,-(A7)0000017A 486EFFEE		 PEA	   -18(A6)			         INPUT_NUMBER
0000017E 486EFEC6		 PEA	   -314(A6)			         $FFFFFEC6
00000182 4EB900000000		 JSR	   I.PTSTRV
00000188 30AEFECE		 MOVE.W	   -306(A6),(A0)		         $FFFFFECE
0000018C 48680002		 PEA	   2(A0)			         $2
00000190 700A			 MOVEQ	   #10,D0			         $A
00000192 3F00			 MOVE.W	   D0,-(A7)
00000194 486EFED0		 PEA	   -304(A6)			         $FFFFFED0
00000198 3F2EFECE		 MOVE.W	   -306(A6),-(A7)		         $FFFFFECE
0000019C 4EB900000000		 JSR	   C.MVFF
		      *							       LINE 7/7
000001A2 4E75			 RTS	   
		      *
		      *		 Begin subroutine PAGE_SKIP
		      *
000001A4	      B.10
		      *							       LINE 8/6
		      *							       LINE 8/8
000001A4 202D0118     L.10.1	 MOVE.L	   STATIC.+280(A5),D0		         OUTPUT_FILE
000001A8 4A80			 TST.L	   D0
000001AA 6606			 BNE.S	   X.10.3(PC)
000001AC 4EB900000000		 JSR	   E.FILE
000001B2 2F00	      X.10.3	 MOVE.L	   D0,-(A7)
000001B4 4EB900000000		 JSR	   T.PAGE
		      *							       LINE 8/9
000001BA 4E75			 RTS	   
000001BC 2A2A2A204572 K.3	 DC.B	   '*** Error: '
000001C7 00000001		 DS.B	   1
000001C8 2A2A2A204572 K.4	 DC.B	   '*** Error: '
000001D3 00000001		 DS.B	   1
		      *
		      *		 Begin subroutine ERROR
		      *
000001D4 2D4FFECA     B.12	 MOVE.L	   A7,X.12.1(A6)
		      *							       LINE 11/7
		      *							       LINE 11/8
000001D8 202D0000     L.12.1	 MOVE.L	   TTYOUTPUT(A5),D0		         TTYOUTPUT
000001DC 4A80			 TST.L	   D0
000001DE 6606			 BNE.S	   X.12.3(PC)
000001E0 4EB900000000		 JSR	   E.FILE
000001E6 206EFFF8     X.12.3	 MOVEA.L   -8(A6),A0			         INPUT_ERROR_MESSAGE
000001EA 3210			 MOVE.W	   (A0),D1
000001EC D27C000B		 ADD.W	   #11,D1			         $B
000001F0 4841			 SWAP	   D1
000001F2 4241			 CLR.W	   D1000001F4 4841			 SWAP	   D1
000001F6 2F01			 MOVE.L	   D1,-(A7)
000001F8 4EB900000000		 JSR	   M.DYNTMB
000001FE 224F			 MOVEA.L   A7,A1
00000200 4851			 PEA	   (A1)
00000202 3F01			 MOVE.W	   D1,-(A7)
00000204 487AFFB6		 PEA	   K.3(PC)			         CODE.+$1BC
00000208 740B			 MOVEQ	   #11,D2			         $B
0000020A 3F02			 MOVE.W	   D2,-(A7)
0000020C 4EB900000000		 JSR	   C.MVFF
00000212 48680002		 PEA	   2(A0)			         $2
00000216 3F10			 MOVE.W	   (A0),-(A7)
00000218 4EB900000000		 JSR	   C.MVFR
0000021E 3F01			 MOVE.W	   D1,-(A7)
00000220 7404			 MOVEQ	   #4,D2			         $4
00000222 3F02			 MOVE.W	   D2,-(A7)
00000224 4851			 PEA	   (A1)
00000226 2F00			 MOVE.L	   D0,-(A7)
00000228 4EB900000000		 JSR	   T.WRITE
0000022E 2F00			 MOVE.L	   D0,-(A7)
00000230 4EB900000000		 JSR	   T.WRTLN
		      *							       LINE 11/9
00000236 4A2D0001		 TST.B	   STATIC.+1(A5)		         TTY_FLAG
0000023A 6672			 BNE.S	   L.12.3(PC)
0000023C 2E6EFECA     L.12.2	 MOVEA.L   X.12.1(A6),A7
		      *							       LINE 11/9 (2)
		      *							       LINE 11/10
00000240 6100FF62		 BSR.L	   B.10(PC)			         PAGE_SKIP = CODE.+$1A
		      *							       LINE 11/11
00000244 206EFFF8		 MOVEA.L   -8(A6),A0			         INPUT_ERROR_MESSAGE
00000248 3010			 MOVE.W	   (A0),D0
0000024A D07C000B		 ADD.W	   #11,D0			         $B
0000024E 4840			 SWAP	   D0
00000250 4240			 CLR.W	   D0
00000252 4840			 SWAP	   D0
00000254 2F00			 MOVE.L	   D0,-(A7)
00000256 4EB900000000		 JSR	   M.DYNTMB
0000025C 224F			 MOVEA.L   A7,A1
0000025E 4851			 PEA	   (A1)
00000260 3F00			 MOVE.W	   D0,-(A7)
00000262 487AFF64		 PEA	   K.4(PC)			         CODE.+$1C8
00000266 720B			 MOVEQ	   #11,D1			         $B
00000268 3F01			 MOVE.W	   D1,-(A7)
0000026A 4EB900000000		 JSR	   C.MVFF
00000270 48680002		 PEA	   2(A0)			         $200000274 3F10			 MOVE.W	   (A0),-(A7)
00000276 4EB900000000		 JSR	   C.MVFR
0000027C 3200			 MOVE.W	   D0,D1
0000027E 5441			 ADDQ.W	   #2,D1			         $2
00000280 4841			 SWAP	   D1
00000282 4241			 CLR.W	   D1
00000284 4841			 SWAP	   D1
00000286 2F01			 MOVE.L	   D1,-(A7)
00000288 4EB900000000		 JSR	   M.DYNTMB
0000028E 204F			 MOVEA.L   A7,A0
00000290 3080			 MOVE.W	   D0,(A0)
00000292 48680002		 PEA	   2(A0)			         $2
00000296 3F10			 MOVE.W	   (A0),-(A7)
00000298 4851			 PEA	   (A1)
0000029A 3F00			 MOVE.W	   D0,-(A7)
0000029C 4EB900000000		 JSR	   C.MVFF
000002A2 2D48FFDE		 MOVE.L	   A0,-34(A6)			         $FFFFFFDE
000002A6 3D40FFDC		 MOVE.W	   D0,-36(A6)			         $FFFFFFDC
000002AA 6100FDFE		 BSR.L	   B.4(PC)			         WRITE_STRING = CODE.+
000002AE 2E6EFECA     L.12.3	 MOVEA.L   X.12.1(A6),A7
		      *							       LINE 11/12
		      *							       LINE 11/13
000002B2 4EB900000000		 JSR	   M.STOP
		      *
		      *		 Begin subroutine READ_ONE_BYTE
		      *
000002B8	      B.16
		      *							       LINE 13/11
		      *							       LINE 13/12
000002B8 206EFFFC     L.16.1	 MOVEA.L   -4(A6),A0			         OUTPUT_ONE_BYTE
000002BC 202D0008		 MOVE.L	   STATIC.+8(A5),D0		         BYTE_PTR
000002C0 4A80			 TST.L	   D0
000002C2 6E06			 BGT.S	   X.16.3(PC)
000002C4 4EB900000000 X.16.4	 JSR	   E.INDEX
000002CA 0C8000000100 X.16.3	 CMPI.L	   #256,D0			         $100
000002D0 6EF2			 BGT.S	   X.16.4(PC)
000002D2 43ED0013		 LEA	   STATIC.+20-1(A5),A1		         INPUT_RECORD
000002D6 10310800		 MOVE.B	   0(A1,D0.L),D0		         $0
000002DA C07C00FF		 AND.W	   #255,D0			         $FF
000002DE 48C0			 EXT.L	   D0
000002E0 2080			 MOVE.L	   D0,(A0)
		      *							       LINE 13/13
000002E2 202D0008		 MOVE.L	   STATIC.+8(A5),D0		         BYTE_PTR
000002E6 5280			 ADDQ.L	   #1,D0			         $1
000002E8 2B400008		 MOVE.L	   D0,STATIC.+8(A5)		         BYTE_PTR		      *							       LINE 13/14
000002EC 0CAD00000101		 CMPI.L	   #257,STATIC.+8(A5)		         $101  BYTE_PTR
	 0008
000002F4 6678			 BNE.S	   L.16.9(PC)
		      *							       LINE 13/14 (2)
		      *							       LINE 13/15
000002F6 202D0114     L.16.2	 MOVE.L	   STATIC.+276(A5),D0		         INPUT_FILE
000002FA 4A80			 TST.L	   D0
000002FC 6606			 BNE.S	   X.16.5(PC)
000002FE 4EB900000000		 JSR	   E.FILE
00000304 2F00	      X.16.5	 MOVE.L	   D0,-(A7)
00000306 4EB900000000		 JSR	   I.EOF
0000030C 4A1F			 TST.B	   (A7)+
0000030E 6730			 BEQ.S	   L.16.7(PC)
		      *							       LINE 13/15 (2)
		      *							       LINE 13/16
00000310	      L.16.3
00000310 7001	      L.16.4	 MOVEQ	   #1,D0			         $1
00000312 2D40FECA		 MOVE.L	   D0,-310(A6)			         LOCAL_COUNTER
		      *							       LINE 13/17
00000316 202EFECA     L.16.5	 MOVE.L	   -310(A6),D0			         LOCAL_COUNTER
0000031A D0BC00000013		 ADD.L	   #STATIC.+20-1,D0		         INPUT_RECORD
00000320 7200			 MOVEQ	   #0,D1			         $0
00000322 1B810800		 MOVE.B	   D1,0(A5,D0.L)		         $0
00000326 202EFECA		 MOVE.L	   -310(A6),D0			         LOCAL_COUNTER
0000032A 5280			 ADDQ.L	   #1,D0			         $1
0000032C 2D40FECA		 MOVE.L	   D0,-310(A6)			         LOCAL_COUNTER
00000330 0C8000000100		 CMPI.L	   #256,D0			         $100
00000336 6FDE			 BLE.S	   L.16.5(PC)
		      *							       LINE 13/18
00000338 7001	      L.16.6	 MOVEQ	   #1,D0			         $1
0000033A 1B400000		 MOVE.B	   D0,STATIC.+0(A5)		         EOF_FLAG
		      *							       LINE 13/19
0000033E 6028			 BRA.S	   L.16.8(PC)
		      *							       LINE 13/21
00000340 202D0114     L.16.7	 MOVE.L	   STATIC.+276(A5),D0		         INPUT_FILE
00000344 4A80			 TST.L	   D0
00000346 6606			 BNE.S	   X.16.6(PC)
00000348 4EB900000000		 JSR	   E.FILE
0000034E 2040	      X.16.6	 MOVEA.L   D0,A0
00000350 2050			 MOVEA.L   (A0),A0
00000352 43ED0014		 LEA	   STATIC.+20(A5),A1		         INPUT_RECORD
00000356 721F			 MOVEQ	   #31,D1			         $1F
00000358 22D8	      X.16.7	 MOVE.L	   (A0)+,(A1)+
0000035A 22D8			 MOVE.L	   (A0)+,(A1)+0000035C 51C9FFFA		 DBF	   D1,X.16.7(PC)
00000360 2F00			 MOVE.L	   D0,-(A7)
00000362 4EB900000000		 JSR	   Y.GET
		      *							       LINE 13/22
00000368 7001	      L.16.8	 MOVEQ	   #1,D0			         $1
0000036A 2B400008		 MOVE.L	   D0,STATIC.+8(A5)		         BYTE_PTR
		      *							       LINE 13/23
		      *							       LINE 13/24
0000036E 4E75	      L.16.9	 RTS	   
00000370	      K.5
00000370 20202020534E K.6	 DC.B	   '    SN=$'
00000378 202020202020 K.7	 DC.B	   '      '
0000037E 20202020     K.8	 DC.B	   '    '
00000382 43616E6E6F74 K.9	 DC.B	   'Cannot re-open input file.'
		      *
		      *		 Begin subroutine MOTOROLA_FORMAT_DUMP
		      *
0000039C 2D4FFE44     B.21	 MOVE.L	   A7,X.21.1(A6)
		      *							       LINE 18/13
		      *							       LINE 18/14
000003A0 426EFF76     L.21.1	 CLR.W	   -138(A6)			         LOCAL_CODE_STRING
		      *							       LINE 18/15
000003A4 426EFF5A		 CLR.W	   -166(A6)			         LOCAL_CHAR_STRING
		      *							       LINE 18/16
000003A8 7000			 MOVEQ	   #0,D0			         $0
000003AA 2D40FF54		 MOVE.L	   D0,-172(A6)			         LOCAL_SEGMENT_NUMBER
		      *							       LINE 18/17
000003AE 2D7C00000100		 MOVE.L	   #256,-176(A6)		         $100  LOCAL_CHAR_NUMB
	 FF50
		      *							       LINE 18/18
		      *							       LINE 18/19
000003B6 0CAE00000100 L.21.2	 CMPI.L	   #256,-176(A6)		         $100  LOCAL_CHAR_NUMB
	 FF50
000003BE 6600015A		 BNE.L	   L.21.4(PC)
		      *							       LINE 18/19 (2)
		      *							       LINE 18/20
000003C2 302EFF76     L.21.3	 MOVE.W	   -138(A6),D0			         LOCAL_CODE_STRING
000003C6 D06EFF5A		 ADD.W	   -166(A6),D0			         LOCAL_CHAR_STRING
000003CA 486EFE48		 PEA	   -440(A6)			         $FFFFFE48
000003CE 727D			 MOVEQ	   #125,D1			         $7D
000003D0 3F01			 MOVE.W	   D1,-(A7)
000003D2 486EFF78		 PEA	   -138+2(A6)			         LOCAL_CODE_STRING
000003D6 3F2EFF76		 MOVE.W	   -138(A6),-(A7)		         LOCAL_CODE_STRING
000003DA 4EB900000000		 JSR	   C.MVFF
000003E0 486EFF5C		 PEA	   -166+2(A6)			         LOCAL_CHAR_STRING000003E4 3F2EFF5A		 MOVE.W	   -166(A6),-(A7)		         LOCAL_CHAR_STRING
000003E8 4EB900000000		 JSR	   C.MVFR
000003EE 3200			 MOVE.W	   D0,D1
000003F0 5441			 ADDQ.W	   #2,D1			         $2
000003F2 4841			 SWAP	   D1
000003F4 4241			 CLR.W	   D1
000003F6 4841			 SWAP	   D1
000003F8 2F01			 MOVE.L	   D1,-(A7)
000003FA 4EB900000000		 JSR	   M.DYNTMB
00000400 204F			 MOVEA.L   A7,A0
00000402 3080			 MOVE.W	   D0,(A0)
00000404 48680002		 PEA	   2(A0)			         $2
00000408 3F10			 MOVE.W	   (A0),-(A7)
0000040A 486EFE48		 PEA	   -440(A6)			         $FFFFFE48
0000040E 3F00			 MOVE.W	   D0,-(A7)
00000410 4EB900000000		 JSR	   C.MVFF
00000416 2D48FFDE		 MOVE.L	   A0,-34(A6)			         $FFFFFFDE
0000041A 3D40FFDC		 MOVE.W	   D0,-36(A6)			         $FFFFFFDC
0000041E 6100FC8A		 BSR.L	   B.4(PC)			         WRITE_STRING = CODE.+
		      *							       LINE 18/21
00000422 426EFEC4		 CLR.W	   -316(A6)			         $FFFFFEC4
00000426 41EEFEC4		 LEA	   -316(A6),A0			         $FFFFFEC4
0000042A 2D48FFDE		 MOVE.L	   A0,-34(A6)			         $FFFFFFDE
0000042E 426EFFDC		 CLR.W	   -36(A6)			         $FFFFFFDC
00000432 6100FC76		 BSR.L	   B.4(PC)			         WRITE_STRING = CODE.+
		      *							       LINE 18/22
00000436 2D6EFF54FFE6		 MOVE.L	   -172(A6),-26(A6)		         LOCAL_SEGMENT_NUMBER 
0000043C 41EEFEBA		 LEA	   -326(A6),A0			         $FFFFFEBA
00000440 2D48FFE2		 MOVE.L	   A0,-30(A6)			         $FFFFFFE2
00000444 6100FCC6		 BSR.L	   B.5(PC)			         CONVERT_ONE_BYTE = CO
00000448 302EFEBA		 MOVE.W	   -326(A6),D0			         $FFFFFEBA
0000044C 5040			 ADDQ.W	   #8,D0			         $8
0000044E 486EFEA8		 PEA	   -344(A6)			         $FFFFFEA8
00000452 7212			 MOVEQ	   #18,D1			         $12
00000454 3F01			 MOVE.W	   D1,-(A7)
00000456 487AFF18		 PEA	   K.6(PC)			         CODE.+$370
0000045A 7208			 MOVEQ	   #8,D1			         $8
0000045C 3F01			 MOVE.W	   D1,-(A7)
0000045E 4EB900000000		 JSR	   C.MVFF
00000464 486EFEBC		 PEA	   -324(A6)			         $FFFFFEBC
00000468 3F2EFEBA		 MOVE.W	   -326(A6),-(A7)		         $FFFFFEBA
0000046C 4EB900000000		 JSR	   C.MVFR
00000472 3200			 MOVE.W	   D0,D1
00000474 0C410064		 CMPI.W	   #100,D1			         $64
00000478 6F04			 BLE.S	   X.21.3(PC)0000047A 323C0064		 MOVE.W	   #100,D1			         $64
0000047E 3D41FF76     X.21.3	 MOVE.W	   D1,-138(A6)			         LOCAL_CODE_STRING
00000482 486EFF78		 PEA	   -138+2(A6)			         LOCAL_CODE_STRING
00000486 7264			 MOVEQ	   #100,D1			         $64
00000488 3F01			 MOVE.W	   D1,-(A7)
0000048A 486EFEA8		 PEA	   -344(A6)			         $FFFFFEA8
0000048E 3F00			 MOVE.W	   D0,-(A7)
00000490 4EB900000000		 JSR	   C.MVFF
		      *							       LINE 18/24
00000496 42AEFFF2		 CLR.L	   -14(A6)			         $FFFFFFF2
0000049A 2D6EFF54FFEE		 MOVE.L	   -172(A6),-18(A6)		         LOCAL_SEGMENT_NUMBER 
000004A0 41EEFEBA		 LEA	   -326(A6),A0			         $FFFFFEBA
000004A4 2D48FFEA		 MOVE.L	   A0,-22(A6)			         $FFFFFFEA
000004A8 6100FCAE		 BSR.L	   B.9(PC)			         CONVERT_DECIMAL = COD
000004AC 302EFEBA		 MOVE.W	   -326(A6),D0			         $FFFFFEBA
000004B0 5C40			 ADDQ.W	   #6,D0			         $6
000004B2 486EFEAA		 PEA	   -342(A6)			         $FFFFFEAA
000004B6 7210			 MOVEQ	   #16,D1			         $10
000004B8 3F01			 MOVE.W	   D1,-(A7)
000004BA 487AFEBC		 PEA	   K.7(PC)			         CODE.+$378
000004BE 7206			 MOVEQ	   #6,D1			         $6
000004C0 3F01			 MOVE.W	   D1,-(A7)
000004C2 4EB900000000		 JSR	   C.MVFF
000004C8 486EFEBC		 PEA	   -324(A6)			         $FFFFFEBC
000004CC 3F2EFEBA		 MOVE.W	   -326(A6),-(A7)		         $FFFFFEBA
000004D0 4EB900000000		 JSR	   C.MVFR
000004D6 3200			 MOVE.W	   D0,D1
000004D8 0C410019		 CMPI.W	   #25,D1			         $19
000004DC 6F04			 BLE.S	   X.21.4(PC)
000004DE 323C0019		 MOVE.W	   #25,D1			         $19
000004E2 3D41FF5A     X.21.4	 MOVE.W	   D1,-166(A6)			         LOCAL_CHAR_STRING
000004E6 486EFF5C		 PEA	   -166+2(A6)			         LOCAL_CHAR_STRING
000004EA 7219			 MOVEQ	   #25,D1			         $19
000004EC 3F01			 MOVE.W	   D1,-(A7)
000004EE 486EFEAA		 PEA	   -342(A6)			         $FFFFFEAA
000004F2 3F00			 MOVE.W	   D0,-(A7)
000004F4 4EB900000000		 JSR	   C.MVFF
		      *							       LINE 18/26
000004FA 202EFF54		 MOVE.L	   -172(A6),D0			         LOCAL_SEGMENT_NUMBER
000004FE 5280			 ADDQ.L	   #1,D0			         $1
00000500 4A40			 TST.W	   D0
00000502 6C06			 BGE.S	   X.21.5(PC)
00000504 4EB900000000 X.21.6	 JSR	   E.VALUE
0000050A 0C4000FF     X.21.5	 CMPI.W	   #255,D0			         $FF
0000050E 6EF4			 BGT.S	   X.21.6(PC)00000510 2D40FF54		 MOVE.L	   D0,-172(A6)			         LOCAL_SEGMENT_NUMBER
		      *							       LINE 18/27
00000514 7000			 MOVEQ	   #0,D0			         $0
00000516 2D40FF50		 MOVE.L	   D0,-176(A6)			         LOCAL_CHAR_NUMBER
0000051A 2E6EFE44     L.21.4	 MOVEA.L   X.21.1(A6),A7
		      *							       LINE 18/28
		      *							       LINE 18/29
0000051E 202EFF50		 MOVE.L	   -176(A6),D0			         LOCAL_CHAR_NUMBER
00000522 81FC0010		 DIVS	   #16,D0			         $10
00000526 4840			 SWAP	   D0
00000528 4A00			 TST.B	   D0
0000052A 660000EC		 BNE.L	   L.21.6(PC)
		      *							       LINE 18/29 (2)
		      *							       LINE 18/30
0000052E 302EFF76     L.21.5	 MOVE.W	   -138(A6),D0			         LOCAL_CODE_STRING
00000532 D06EFF5A		 ADD.W	   -166(A6),D0			         LOCAL_CHAR_STRING
00000536 486EFE48		 PEA	   -440(A6)			         $FFFFFE48
0000053A 727D			 MOVEQ	   #125,D1			         $7D
0000053C 3F01			 MOVE.W	   D1,-(A7)
0000053E 486EFF78		 PEA	   -138+2(A6)			         LOCAL_CODE_STRING
00000542 3F2EFF76		 MOVE.W	   -138(A6),-(A7)		         LOCAL_CODE_STRING
00000546 4EB900000000		 JSR	   C.MVFF
0000054C 486EFF5C		 PEA	   -166+2(A6)			         LOCAL_CHAR_STRING
00000550 3F2EFF5A		 MOVE.W	   -166(A6),-(A7)		         LOCAL_CHAR_STRING
00000554 4EB900000000		 JSR	   C.MVFR
0000055A 3200			 MOVE.W	   D0,D1
0000055C 5441			 ADDQ.W	   #2,D1			         $2
0000055E 4841			 SWAP	   D1
00000560 4241			 CLR.W	   D1
00000562 4841			 SWAP	   D1
00000564 2F01			 MOVE.L	   D1,-(A7)
00000566 4EB900000000		 JSR	   M.DYNTMB
0000056C 204F			 MOVEA.L   A7,A0
0000056E 3080			 MOVE.W	   D0,(A0)
00000570 48680002		 PEA	   2(A0)			         $2
00000574 3F10			 MOVE.W	   (A0),-(A7)
00000576 486EFE48		 PEA	   -440(A6)			         $FFFFFE48
0000057A 3F00			 MOVE.W	   D0,-(A7)
0000057C 4EB900000000		 JSR	   C.MVFF
00000582 2D48FFDE		 MOVE.L	   A0,-34(A6)			         $FFFFFFDE
00000586 3D40FFDC		 MOVE.W	   D0,-36(A6)			         $FFFFFFDC
0000058A 6100FB1E		 BSR.L	   B.4(PC)			         WRITE_STRING = CODE.+
		      *							       LINE 18/31
0000058E 202EFF50		 MOVE.L	   -176(A6),D0			         LOCAL_CHAR_NUMBER
00000592 81FC0100		 DIVS	   #256,D0			         $10000000596 4840			 SWAP	   D0
00000598 4A40			 TST.W	   D0
0000059A 6C06			 BGE.S	   X.21.7(PC)
0000059C 4EB900000000 X.21.8	 JSR	   E.VALUE
000005A2 0C4000FF     X.21.7	 CMPI.W	   #255,D0			         $FF
000005A6 6EF4			 BGT.S	   X.21.8(PC)
000005A8 48C0			 EXT.L	   D0
000005AA 2D40FFE6		 MOVE.L	   D0,-26(A6)			         $FFFFFFE6
000005AE 41EEFEBA		 LEA	   -326(A6),A0			         $FFFFFEBA
000005B2 2D48FFE2		 MOVE.L	   A0,-30(A6)			         $FFFFFFE2
000005B6 6100FB54		 BSR.L	   B.5(PC)			         CONVERT_ONE_BYTE = CO
000005BA 302EFEBA		 MOVE.W	   -326(A6),D0			         $FFFFFEBA
000005BE 5840			 ADDQ.W	   #4,D0			         $4
000005C0 486EFEAC		 PEA	   -340(A6)			         $FFFFFEAC
000005C4 720E			 MOVEQ	   #14,D1			         $E
000005C6 3F01			 MOVE.W	   D1,-(A7)
000005C8 486EFEBC		 PEA	   -324(A6)			         $FFFFFEBC
000005CC 3F2EFEBA		 MOVE.W	   -326(A6),-(A7)		         $FFFFFEBA
000005D0 4EB900000000		 JSR	   C.MVFF
000005D6 487AFDA6		 PEA	   K.8(PC)			         CODE.+$37E
000005DA 7204			 MOVEQ	   #4,D1			         $4
000005DC 3F01			 MOVE.W	   D1,-(A7)
000005DE 4EB900000000		 JSR	   C.MVFR
000005E4 3200			 MOVE.W	   D0,D1
000005E6 0C410064		 CMPI.W	   #100,D1			         $64
000005EA 6F04			 BLE.S	   X.21.9(PC)
000005EC 323C0064		 MOVE.W	   #100,D1			         $64
000005F0 3D41FF76     X.21.9	 MOVE.W	   D1,-138(A6)			         LOCAL_CODE_STRING
000005F4 486EFF78		 PEA	   -138+2(A6)			         LOCAL_CODE_STRING
000005F8 7264			 MOVEQ	   #100,D1			         $64
000005FA 3F01			 MOVE.W	   D1,-(A7)
000005FC 486EFEAC		 PEA	   -340(A6)			         $FFFFFEAC
00000600 3F00			 MOVE.W	   D0,-(A7)
00000602 4EB900000000		 JSR	   C.MVFF
		      *							       LINE 18/32
00000608 41EEFF5A		 LEA	   -166(A6),A0			         LOCAL_CHAR_STRING
0000060C 20FC00052020		 MOVE.L	   #335904,(A0)+		         $52020
00000612 20FC20202020		 MOVE.L	   #538976288,(A0)+		         $20202020
00000618 2E6EFE44     L.21.6	 MOVEA.L   X.21.1(A6),A7
		      *							       LINE 18/33
		      *							       LINE 18/34
0000061C 202EFF50		 MOVE.L	   -176(A6),D0			         LOCAL_CHAR_NUMBER
00000620 81FC0010		 DIVS	   #16,D0			         $10
00000624 4840			 SWAP	   D0
00000626 7208			 MOVEQ	   #8,D1			         $800000628 B001			 CMP.B	   D1,D0
0000062A 664A			 BNE.S	   L.21.8(PC)
		      *							       LINE 18/35
0000062C 302EFF76     L.21.7	 MOVE.W	   -138(A6),D0			         LOCAL_CODE_STRING
00000630 5240			 ADDQ.W	   #1,D0			         $1
00000632 486EFE62		 PEA	   -414(A6)			         $FFFFFE62
00000636 7264			 MOVEQ	   #100,D1			         $64
00000638 3F01			 MOVE.W	   D1,-(A7)
0000063A 486EFF78		 PEA	   -138+2(A6)			         LOCAL_CODE_STRING
0000063E 3F2EFF76		 MOVE.W	   -138(A6),-(A7)		         LOCAL_CODE_STRING
00000642 4EB900000000		 JSR	   C.MVFF
00000648 7220			 MOVEQ	   #32,D1			         $20
0000064A 1F01			 MOVE.B	   D1,-(A7)
0000064C 4EB900000000		 JSR	   C.MVCR
00000652 3200			 MOVE.W	   D0,D1
00000654 0C410064		 CMPI.W	   #100,D1			         $64
00000658 6F04			 BLE.S	   X.21.10(PC)
0000065A 323C0064		 MOVE.W	   #100,D1			         $64
0000065E 3D41FF76     X.21.10	 MOVE.W	   D1,-138(A6)			         LOCAL_CODE_STRING
00000662 486EFF78		 PEA	   -138+2(A6)			         LOCAL_CODE_STRING
00000666 7264			 MOVEQ	   #100,D1			         $64
00000668 3F01			 MOVE.W	   D1,-(A7)
0000066A 486EFE62		 PEA	   -414(A6)			         $FFFFFE62
0000066E 3F00			 MOVE.W	   D0,-(A7)
00000670 4EB900000000		 JSR	   C.MVFF
		      *							       LINE 18/36
00000676 41EEFF4C     L.21.8	 LEA	   -180(A6),A0			         LOCAL_ONE_BYTE
0000067A 2D48FFFC		 MOVE.L	   A0,-4(A6)			         $FFFFFFFC
0000067E 6100FC38		 BSR.L	   B.16(PC)			         READ_ONE_BYTE = CODE.
		      *							       LINE 18/37
00000682 302EFF76		 MOVE.W	   -138(A6),D0			         LOCAL_CODE_STRING
00000686 2D6EFF4CFFE6		 MOVE.L	   -180(A6),-26(A6)		         LOCAL_ONE_BYTE  $FFFF
0000068C 41EEFEBA		 LEA	   -326(A6),A0			         $FFFFFEBA
00000690 2D48FFE2		 MOVE.L	   A0,-30(A6)			         $FFFFFFE2
00000694 2D40FEB6		 MOVE.L	   D0,-330(A6)			         $FFFFFEB6
00000698 6100FA72		 BSR.L	   B.5(PC)			         CONVERT_ONE_BYTE = CO
0000069C 202EFEB6		 MOVE.L	   -330(A6),D0			         $FFFFFEB6
000006A0 D06EFEBA		 ADD.W	   -326(A6),D0			         $FFFFFEBA
000006A4 5240			 ADDQ.W	   #1,D0			         $1
000006A6 486EFE52		 PEA	   -430(A6)			         $FFFFFE52
000006AA 7264			 MOVEQ	   #100,D1			         $64
000006AC 3F01			 MOVE.W	   D1,-(A7)
000006AE 486EFF78		 PEA	   -138+2(A6)			         LOCAL_CODE_STRING
000006B2 3F2EFF76		 MOVE.W	   -138(A6),-(A7)		         LOCAL_CODE_STRING
000006B6 4EB900000000		 JSR	   C.MVFF000006BC 486EFEBC		 PEA	   -324(A6)			         $FFFFFEBC
000006C0 3F2EFEBA		 MOVE.W	   -326(A6),-(A7)		         $FFFFFEBA
000006C4 4EB900000000		 JSR	   C.MVFR
000006CA 7220			 MOVEQ	   #32,D1			         $20
000006CC 1F01			 MOVE.B	   D1,-(A7)
000006CE 4EB900000000		 JSR	   C.MVCR
000006D4 3200			 MOVE.W	   D0,D1
000006D6 0C410064		 CMPI.W	   #100,D1			         $64
000006DA 6F04			 BLE.S	   X.21.11(PC)
000006DC 323C0064		 MOVE.W	   #100,D1			         $64
000006E0 3D41FF76     X.21.11	 MOVE.W	   D1,-138(A6)			         LOCAL_CODE_STRING
000006E4 486EFF78		 PEA	   -138+2(A6)			         LOCAL_CODE_STRING
000006E8 7264			 MOVEQ	   #100,D1			         $64
000006EA 3F01			 MOVE.W	   D1,-(A7)
000006EC 486EFE52		 PEA	   -430(A6)			         $FFFFFE52
000006F0 3F00			 MOVE.W	   D0,-(A7)
000006F2 4EB900000000		 JSR	   C.MVFF
		      *							       LINE 18/38
000006F8 702E			 MOVEQ	   #46,D0			         $2E
000006FA 1D40FF59		 MOVE.B	   D0,-167(A6)			         LOCAL_CHAR
		      *							       LINE 18/39
000006FE 7020			 MOVEQ	   #32,D0			         $20
00000700 B0AEFF4C		 CMP.L	   -180(A6),D0			         LOCAL_ONE_BYTE
00000704 6E1C			 BGT.S	   L.21.11(PC)
00000706 707D	      L.21.9	 MOVEQ	   #125,D0			         $7D
00000708 B0AEFF4C		 CMP.L	   -180(A6),D0			         LOCAL_ONE_BYTE
0000070C 6D14			 BLT.S	   L.21.11(PC)
		      *							       LINE 18/41
0000070E 202EFF4C     L.21.10	 MOVE.L	   -180(A6),D0			         LOCAL_ONE_BYTE
00000712 727F			 MOVEQ	   #127,D1			         $7F
00000714 B081			 CMP.L	   D1,D0
00000716 6F06			 BLE.S	   X.21.12(PC)
00000718 4EB900000000		 JSR	   E.VALUE
0000071E 1D40FF59     X.21.12	 MOVE.B	   D0,-167(A6)			         LOCAL_CHAR
		      *							       LINE 18/42
00000722 302EFF5A     L.21.11	 MOVE.W	   -166(A6),D0			         LOCAL_CHAR_STRING
00000726 5240			 ADDQ.W	   #1,D0			         $1
00000728 486EFEAC		 PEA	   -340(A6)			         $FFFFFEAC
0000072C 7219			 MOVEQ	   #25,D1			         $19
0000072E 3F01			 MOVE.W	   D1,-(A7)
00000730 486EFF5C		 PEA	   -166+2(A6)			         LOCAL_CHAR_STRING
00000734 3F2EFF5A		 MOVE.W	   -166(A6),-(A7)		         LOCAL_CHAR_STRING
00000738 4EB900000000		 JSR	   C.MVFF
0000073E 1F2EFF59		 MOVE.B	   -167(A6),-(A7)		         LOCAL_CHAR
00000742 4EB900000000		 JSR	   C.MVCR00000748 3200			 MOVE.W	   D0,D1
0000074A 0C410019		 CMPI.W	   #25,D1			         $19
0000074E 6F04			 BLE.S	   X.21.13(PC)
00000750 323C0019		 MOVE.W	   #25,D1			         $19
00000754 3D41FF5A     X.21.13	 MOVE.W	   D1,-166(A6)			         LOCAL_CHAR_STRING
00000758 486EFF5C		 PEA	   -166+2(A6)			         LOCAL_CHAR_STRING
0000075C 7219			 MOVEQ	   #25,D1			         $19
0000075E 3F01			 MOVE.W	   D1,-(A7)
00000760 486EFEAC		 PEA	   -340(A6)			         $FFFFFEAC
00000764 3F00			 MOVE.W	   D0,-(A7)
00000766 4EB900000000		 JSR	   C.MVFF
		      *							       LINE 18/43
0000076C 202EFF50		 MOVE.L	   -176(A6),D0			         LOCAL_CHAR_NUMBER
00000770 5280			 ADDQ.L	   #1,D0			         $1
00000772 2D40FF50		 MOVE.L	   D0,-176(A6)			         LOCAL_CHAR_NUMBER
00000776 4A2D0000		 TST.B	   STATIC.+0(A5)		         EOF_FLAG
0000077A 6700FC3A		 BEQ.L	   L.21.2(PC)
		      *							       LINE 18/44
		      *							       LINE 18/45
0000077E 302EFF76     L.21.12	 MOVE.W	   -138(A6),D0			         LOCAL_CODE_STRING
00000782 D06EFF5A		 ADD.W	   -166(A6),D0			         LOCAL_CHAR_STRING
00000786 486EFE48		 PEA	   -440(A6)			         $FFFFFE48
0000078A 727D			 MOVEQ	   #125,D1			         $7D
0000078C 3F01			 MOVE.W	   D1,-(A7)
0000078E 486EFF78		 PEA	   -138+2(A6)			         LOCAL_CODE_STRING
00000792 3F2EFF76		 MOVE.W	   -138(A6),-(A7)		         LOCAL_CODE_STRING
00000796 4EB900000000		 JSR	   C.MVFF
0000079C 486EFF5C		 PEA	   -166+2(A6)			         LOCAL_CHAR_STRING
000007A0 3F2EFF5A		 MOVE.W	   -166(A6),-(A7)		         LOCAL_CHAR_STRING
000007A4 4EB900000000		 JSR	   C.MVFR
000007AA 3200			 MOVE.W	   D0,D1
000007AC 5441			 ADDQ.W	   #2,D1			         $2
000007AE 4841			 SWAP	   D1
000007B0 4241			 CLR.W	   D1
000007B2 4841			 SWAP	   D1
000007B4 2F01			 MOVE.L	   D1,-(A7)
000007B6 4EB900000000		 JSR	   M.DYNTMB
000007BC 204F			 MOVEA.L   A7,A0
000007BE 3080			 MOVE.W	   D0,(A0)
000007C0 48680002		 PEA	   2(A0)			         $2
000007C4 3F10			 MOVE.W	   (A0),-(A7)
000007C6 486EFE48		 PEA	   -440(A6)			         $FFFFFE48
000007CA 3F00			 MOVE.W	   D0,-(A7)
000007CC 4EB900000000		 JSR	   C.MVFF
000007D2 2D48FFDE		 MOVE.L	   A0,-34(A6)			         $FFFFFFDE000007D6 3D40FFDC		 MOVE.W	   D0,-36(A6)			         $FFFFFFDC
000007DA 6100F8CE		 BSR.L	   B.4(PC)			         WRITE_STRING = CODE.+
		      *							       LINE 18/46
000007DE 2F2D0114		 MOVE.L	   STATIC.+276(A5),-(A7)	         INPUT_FILE
000007E2 486EFEA0		 PEA	   -352(A6)			         $FFFFFEA0
000007E6 4EB900000000		 JSR	   I.FILNAM			         FILENAME
000007EC 302EFEA0		 MOVE.W	   -352(A6),D0			         $FFFFFEA0
000007F0 41EEFEA0		 LEA	   -352(A6),A0			         $FFFFFEA0
000007F4 43EEFF26		 LEA	   -218(A6),A1			         LOCAL_FILE_NAME
000007F8 5240			 ADDQ.W	   #1,D0			         $1
000007FA E248			 LSR.W	   #1,D0			         $1
000007FC 32D8	      X.21.14	 MOVE.W	   (A0)+,(A1)+
000007FE 51C8FFFC		 DBF	   D0,X.21.14(PC)
		      *							       LINE 18/47
00000802 202D0114		 MOVE.L	   STATIC.+276(A5),D0		         INPUT_FILE
00000806 4A80			 TST.L	   D0
00000808 6606			 BNE.S	   X.21.15(PC)
0000080A 4EB900000000		 JSR	   E.FILE
00000810 2F00	      X.21.15	 MOVE.L	   D0,-(A7)
00000812 4EB900000000		 JSR	   I.CLOSE
		      *							       LINE 18/48
00000818 3F3C0100		 MOVE.W	   #256,-(A7)			         $100
0000081C 486EFF28		 PEA	   -218+2(A6)			         LOCAL_FILE_NAME
00000820 3F2EFF26		 MOVE.W	   -218(A6),-(A7)		         LOCAL_FILE_NAME
00000824 7029			 MOVEQ	   #41,D0			         $29
00000826 3F00			 MOVE.W	   D0,-(A7)
00000828 4EB900000000		 JSR	   Y.INIT
0000082E 2B5F0114		 MOVE.L	   (A7)+,STATIC.+276(A5)	         INPUT_FILE
		      *							       LINE 18/49
00000832 202D0114		 MOVE.L	   STATIC.+276(A5),D0		         INPUT_FILE
00000836 4A80			 TST.L	   D0
00000838 6606			 BNE.S	   X.21.16(PC)
0000083A 4EB900000000		 JSR	   E.FILE
00000840 2F00	      X.21.16	 MOVE.L	   D0,-(A7)
00000842 4EB900000000		 JSR	   I.FILSTA
00000848 4A5F			 TST.W	   (A7)+
0000084A 6732			 BEQ.S	   L.21.14(PC)
0000084C 2E6EFE44     L.21.13	 MOVEA.L   X.21.1(A6),A7
		      *							       LINE 18/50
00000850 3D7C001AFEAA		 MOVE.W	   #26,-342(A6)			         $1A  $FFFFFEAA
00000856 486EFEAC		 PEA	   -340(A6)			         $FFFFFEAC
0000085A 3F2EFEAA		 MOVE.W	   -342(A6),-(A7)		         $FFFFFEAA
0000085E 487AFB22		 PEA	   K.9(PC)			         CODE.+$382
00000862 701A			 MOVEQ	   #26,D0			         $1A
00000864 3F00			 MOVE.W	   D0,-(A7)00000866 4EB900000000		 JSR	   C.MVFF
0000086C 41EEFEAA		 LEA	   -342(A6),A0			         $FFFFFEAA
00000870 2D48FFF8		 MOVE.L	   A0,-8(A6)			         $FFFFFFF8
00000874 3D7C001AFFF6		 MOVE.W	   #26,-10(A6)			         $1A  $FFFFFFF6
0000087A 6100F958		 BSR.L	   B.12(PC)			         ERROR = CODE.+$1D4
0000087E 2E6EFE44     L.21.14	 MOVEA.L   X.21.1(A6),A7
		      *							       LINE 18/51
00000882 202D0114		 MOVE.L	   STATIC.+276(A5),D0		         INPUT_FILE
00000886 4A80			 TST.L	   D0
00000888 6606			 BNE.S	   X.21.17(PC)
0000088A 4EB900000000		 JSR	   E.FILE
00000890 2040	      X.21.17	 MOVEA.L   D0,A0
00000892 2050			 MOVEA.L   (A0),A0
00000894 43ED0014		 LEA	   STATIC.+20(A5),A1		         INPUT_RECORD
00000898 721F			 MOVEQ	   #31,D1			         $1F
0000089A 22D8	      X.21.18	 MOVE.L	   (A0)+,(A1)+
0000089C 22D8			 MOVE.L	   (A0)+,(A1)+
0000089E 51C9FFFA		 DBF	   D1,X.21.18(PC)
000008A2 2F00			 MOVE.L	   D0,-(A7)
000008A4 4EB900000000		 JSR	   Y.GET
		      *							       LINE 18/52
000008AA 7001			 MOVEQ	   #1,D0			         $1
000008AC 2B400008		 MOVE.L	   D0,STATIC.+8(A5)		         BYTE_PTR
		      *							       LINE 18/53
000008B0 7000			 MOVEQ	   #0,D0			         $0
000008B2 1B400000		 MOVE.B	   D0,STATIC.+0(A5)		         EOF_FLAG
		      *							       LINE 18/54
000008B6 4A2D0001		 TST.B	   STATIC.+1(A5)		         TTY_FLAG
000008BA 6604			 BNE.S	   L.21.16(PC)
		      *							       LINE 18/55
000008BC 6100F8E6     L.21.15	 BSR.L	   B.10(PC)			         PAGE_SKIP = CODE.+$1A
		      *							       LINE 18/56
000008C0 4E75	      L.21.16	 RTS	   
000008C2 2A2A2A205761 K.10	 DC.B	   '*** Warning: '
000008CF 00000001		 DS.B	   1
000008D0 2A2A2A205761 K.11	 DC.B	   '*** Warning: '
000008DD 00000001		 DS.B	   1
		      *
		      *		 Begin subroutine WARNING
		      *
000008DE 2D4FFECA     B.11	 MOVE.L	   A7,X.11.1(A6)
		      *							       LINE 10/7
		      *							       LINE 10/8
000008E2 202D0000     L.11.1	 MOVE.L	   TTYOUTPUT(A5),D0		         TTYOUTPUT
000008E6 4A80			 TST.L	   D0000008E8 6606			 BNE.S	   X.11.3(PC)
000008EA 4EB900000000		 JSR	   E.FILE
000008F0 206EFFBA     X.11.3	 MOVEA.L   -70(A6),A0			         INPUT_WARNING_MESSAG
000008F4 3210			 MOVE.W	   (A0),D1
000008F6 D27C000D		 ADD.W	   #13,D1			         $D
000008FA 4841			 SWAP	   D1
000008FC 4241			 CLR.W	   D1
000008FE 4841			 SWAP	   D1
00000900 2F01			 MOVE.L	   D1,-(A7)
00000902 4EB900000000		 JSR	   M.DYNTMB
00000908 224F			 MOVEA.L   A7,A1
0000090A 4851			 PEA	   (A1)
0000090C 3F01			 MOVE.W	   D1,-(A7)
0000090E 487AFFB2		 PEA	   K.10(PC)			         CODE.+$8C2
00000912 740D			 MOVEQ	   #13,D2			         $D
00000914 3F02			 MOVE.W	   D2,-(A7)
00000916 4EB900000000		 JSR	   C.MVFF
0000091C 48680002		 PEA	   2(A0)			         $2
00000920 3F10			 MOVE.W	   (A0),-(A7)
00000922 4EB900000000		 JSR	   C.MVFR
00000928 3F01			 MOVE.W	   D1,-(A7)
0000092A 7404			 MOVEQ	   #4,D2			         $4
0000092C 3F02			 MOVE.W	   D2,-(A7)
0000092E 4851			 PEA	   (A1)
00000930 2F00			 MOVE.L	   D0,-(A7)
00000932 4EB900000000		 JSR	   T.WRITE
00000938 2F00			 MOVE.L	   D0,-(A7)
0000093A 4EB900000000		 JSR	   T.WRTLN
		      *							       LINE 10/9
00000940 4A2D0001		 TST.B	   STATIC.+1(A5)		         TTY_FLAG
00000944 6672			 BNE.S	   L.11.3(PC)
00000946 2E6EFECA     L.11.2	 MOVEA.L   X.11.1(A6),A7
		      *							       LINE 10/9 (2)
		      *							       LINE 10/10
0000094A 6100F858		 BSR.L	   B.10(PC)			         PAGE_SKIP = CODE.+$1A
		      *							       LINE 10/11
0000094E 206EFFBA		 MOVEA.L   -70(A6),A0			         INPUT_WARNING_MESSAG
00000952 3010			 MOVE.W	   (A0),D0
00000954 D07C000D		 ADD.W	   #13,D0			         $D
00000958 4840			 SWAP	   D0
0000095A 4240			 CLR.W	   D0
0000095C 4840			 SWAP	   D0
0000095E 2F00			 MOVE.L	   D0,-(A7)
00000960 4EB900000000		 JSR	   M.DYNTMB
00000966 224F			 MOVEA.L   A7,A100000968 4851			 PEA	   (A1)
0000096A 3F00			 MOVE.W	   D0,-(A7)
0000096C 487AFF62		 PEA	   K.11(PC)			         CODE.+$8D0
00000970 720D			 MOVEQ	   #13,D1			         $D
00000972 3F01			 MOVE.W	   D1,-(A7)
00000974 4EB900000000		 JSR	   C.MVFF
0000097A 48680002		 PEA	   2(A0)			         $2
0000097E 3F10			 MOVE.W	   (A0),-(A7)
00000980 4EB900000000		 JSR	   C.MVFR
00000986 3200			 MOVE.W	   D0,D1
00000988 5441			 ADDQ.W	   #2,D1			         $2
0000098A 4841			 SWAP	   D1
0000098C 4241			 CLR.W	   D1
0000098E 4841			 SWAP	   D1
00000990 2F01			 MOVE.L	   D1,-(A7)
00000992 4EB900000000		 JSR	   M.DYNTMB
00000998 204F			 MOVEA.L   A7,A0
0000099A 3080			 MOVE.W	   D0,(A0)
0000099C 48680002		 PEA	   2(A0)			         $2
000009A0 3F10			 MOVE.W	   (A0),-(A7)
000009A2 4851			 PEA	   (A1)
000009A4 3F00			 MOVE.W	   D0,-(A7)
000009A6 4EB900000000		 JSR	   C.MVFF
000009AC 2D48FFDE		 MOVE.L	   A0,-34(A6)			         $FFFFFFDE
000009B0 3D40FFDC		 MOVE.W	   D0,-36(A6)			         $FFFFFFDC
000009B4 6100F6F4		 BSR.L	   B.4(PC)			         WRITE_STRING = CODE.+
000009B8 2E6EFECA     L.11.3	 MOVEA.L   X.11.1(A6),A7
		      *							       LINE 10/12
		      *							       LINE 10/13
000009BC 4E75			 RTS	   
000009BE 556E65787065 K.12	 DC.B	   'Unexpected EOF.'
000009CD 00000001		 DS.B	   1
		      *
		      *		 Begin subroutine CHECK_EOF_FLAG
		      *
000009CE	      B.13
		      *							       LINE 12/4
		      *							       LINE 12/5
000009CE 4A2D0000     L.13.1	 TST.B	   STATIC.+0(A5)		         EOF_FLAG
000009D2 672E			 BEQ.S	   L.13.3(PC)
		      *							       LINE 12/6
000009D4 3D7C000FFEB8 L.13.2	 MOVE.W	   #15,-328(A6)			         $F  $FFFFFEB8
000009DA 486EFEBA		 PEA	   -326(A6)			         $FFFFFEBA
000009DE 3F2EFEB8		 MOVE.W	   -328(A6),-(A7)		         $FFFFFEB8
000009E2 487AFFDA		 PEA	   K.12(PC)			         CODE.+$9BE000009E6 700F			 MOVEQ	   #15,D0			         $F
000009E8 3F00			 MOVE.W	   D0,-(A7)
000009EA 4EB900000000		 JSR	   C.MVFF
000009F0 41EEFEB8		 LEA	   -328(A6),A0			         $FFFFFEB8
000009F4 2D48FFF8		 MOVE.L	   A0,-8(A6)			         $FFFFFFF8
000009F8 3D7C000FFFF6		 MOVE.W	   #15,-10(A6)			         $F  $FFFFFFF6
000009FE 6100F7D4		 BSR.L	   B.12(PC)			         ERROR = CODE.+$1D4
		      *							       LINE 12/7
00000A02 4E75	      L.13.3	 RTS	   
		      *
		      *		 Begin subroutine READ_TWO_BYTES
		      *
00000A04	      B.17
		      *							       LINE 14/10
		      *							       LINE 14/11
00000A04 41EEFED6     L.17.1	 LEA	   -298(A6),A0			         LOCAL_ONE_BYTE
00000A08 2D48FFFC		 MOVE.L	   A0,-4(A6)			         $FFFFFFFC
00000A0C 6100F8AA		 BSR.L	   B.16(PC)			         READ_ONE_BYTE = CODE.
		      *							       LINE 14/12
00000A10 61BC			 BSR.S	   B.13(PC)			         CHECK_EOF_FLAG = CODE
		      *							       LINE 14/13
00000A12 206EFFBE		 MOVEA.L   -66(A6),A0			         OUTPUT_TWO_BYTES
00000A16 20AEFED6		 MOVE.L	   -298(A6),(A0)		         LOCAL_ONE_BYTE
		      *							       LINE 14/14
00000A1A 41EEFED6		 LEA	   -298(A6),A0			         LOCAL_ONE_BYTE
00000A1E 2D48FFFC		 MOVE.L	   A0,-4(A6)			         $FFFFFFFC
00000A22 6100F894		 BSR.L	   B.16(PC)			         READ_ONE_BYTE = CODE.
		      *							       LINE 14/15
00000A26 61A6			 BSR.S	   B.13(PC)			         CHECK_EOF_FLAG = CODE
		      *							       LINE 14/16
00000A28 206EFFBE		 MOVEA.L   -66(A6),A0			         OUTPUT_TWO_BYTES
00000A2C 226EFFBE		 MOVEA.L   -66(A6),A1			         OUTPUT_TWO_BYTES
00000A30 2011			 MOVE.L	   (A1),D0
00000A32 E180			 ASL.L	   #8,D0			         $8
00000A34 D0AEFED6		 ADD.L	   -298(A6),D0			         LOCAL_ONE_BYTE
00000A38 4A80			 TST.L	   D0
00000A3A 6C06			 BGE.S	   X.17.3(PC)
00000A3C 4EB900000000 X.17.4	 JSR	   E.VALUE
00000A42 0C800000FFFF X.17.3	 CMPI.L	   #65535,D0			         $FFFF
00000A48 6EF2			 BGT.S	   X.17.4(PC)
00000A4A 2080			 MOVE.L	   D0,(A0)
		      *							       LINE 14/17
00000A4C 4E75			 RTS	   
00000A4E	      K.13
		      *		      *		 Begin subroutine READ_STRING
		      *
00000A4E 2D4FFEB4     B.20	 MOVE.L	   A7,X.20.1(A6)
		      *							       LINE 17/12
		      *							       LINE 17/13
00000A52 206EFFC8     L.20.1	 MOVEA.L   -56(A6),A0			         OUTPUT_STRING
00000A56 4240			 CLR.W	   D0
00000A58 B06EFFC6		 CMP.W	   -56-2(A6),D0			         OUTPUT_STRING
00000A5C 6F04			 BLE.S	   X.20.3(PC)
00000A5E 302EFFC6		 MOVE.W	   -56-2(A6),D0			         OUTPUT_STRING
00000A62 3080	      X.20.3	 MOVE.W	   D0,(A0)
		      *							       LINE 17/14
00000A64 202EFFC2		 MOVE.L	   -62(A6),D0			         INPUT_LENGTH
00000A68 2D40FECE		 MOVE.L	   D0,-306(A6)			         V.39
00000A6C 4A80			 TST.L	   D0
00000A6E 6F000092		 BLE.L	   L.20.5(PC)
00000A72 7001	      L.20.2	 MOVEQ	   #1,D0			         $1
00000A74 2D40FED6		 MOVE.L	   D0,-298(A6)			         LOCAL_COUNTER
00000A78 2E6EFEB4     L.20.3	 MOVEA.L   X.20.1(A6),A7
		      *							       LINE 17/14 (2)
		      *							       LINE 17/15
00000A7C 41EEFED2     L.20.4	 LEA	   -302(A6),A0			         LOCAL_ONE_BYTE
00000A80 2D48FFFC		 MOVE.L	   A0,-4(A6)			         $FFFFFFFC
00000A84 6100F832		 BSR.L	   B.16(PC)			         READ_ONE_BYTE = CODE.
		      *							       LINE 17/16
00000A88 6100FF44		 BSR.L	   B.13(PC)			         CHECK_EOF_FLAG = CODE
		      *							       LINE 17/17
00000A8C 206EFFC8		 MOVEA.L   -56(A6),A0			         OUTPUT_STRING
00000A90 3010			 MOVE.W	   (A0),D0
00000A92 222EFED2		 MOVE.L	   -302(A6),D1			         LOCAL_ONE_BYTE
00000A96 747F			 MOVEQ	   #127,D2			         $7F
00000A98 B282			 CMP.L	   D2,D1
00000A9A 6F06			 BLE.S	   X.20.4(PC)
00000A9C 4EB900000000		 JSR	   E.VALUE
00000AA2 5240	      X.20.4	 ADDQ.W	   #1,D0			         $1
00000AA4 4840			 SWAP	   D0
00000AA6 4240			 CLR.W	   D0
00000AA8 4840			 SWAP	   D0
00000AAA 2F00			 MOVE.L	   D0,-(A7)
00000AAC 4EB900000000		 JSR	   M.DYNTMB
00000AB2 224F			 MOVEA.L   A7,A1
00000AB4 4851			 PEA	   (A1)
00000AB6 3F00			 MOVE.W	   D0,-(A7)
00000AB8 48680002		 PEA	   2(A0)			         $2
00000ABC 3F10			 MOVE.W	   (A0),-(A7)00000ABE 4EB900000000		 JSR	   C.MVFF
00000AC4 1F01			 MOVE.B	   D1,-(A7)
00000AC6 4EB900000000		 JSR	   C.MVCR
00000ACC 206EFFC8		 MOVEA.L   -56(A6),A0			         OUTPUT_STRING
00000AD0 3200			 MOVE.W	   D0,D1
00000AD2 B26EFFC6		 CMP.W	   -56-2(A6),D1			         OUTPUT_STRING
00000AD6 6F04			 BLE.S	   X.20.5(PC)
00000AD8 322EFFC6		 MOVE.W	   -56-2(A6),D1			         OUTPUT_STRING
00000ADC 3081	      X.20.5	 MOVE.W	   D1,(A0)
00000ADE 48680002		 PEA	   2(A0)			         $2
00000AE2 3F2EFFC6		 MOVE.W	   -56-2(A6),-(A7)		         OUTPUT_STRING
00000AE6 4851			 PEA	   (A1)
00000AE8 3F00			 MOVE.W	   D0,-(A7)
00000AEA 4EB900000000		 JSR	   C.MVFF
		      *							       LINE 17/18
00000AF0 202EFED6		 MOVE.L	   -298(A6),D0			         LOCAL_COUNTER
00000AF4 5280			 ADDQ.L	   #1,D0			         $1
00000AF6 2D40FED6		 MOVE.L	   D0,-298(A6)			         LOCAL_COUNTER
00000AFA B0AEFECE		 CMP.L	   -306(A6),D0			         V.39
00000AFE 6F00FF78		 BLE.L	   L.20.3(PC)
00000B02 2E6EFEB4     L.20.5	 MOVEA.L   X.20.1(A6),A7
		      *							       LINE 17/19
00000B06 4E75			 RTS	   
00000B08	      K.14
00000B08 4964656E7469 K.15	 DC.B	   'Identification record:'
00000B1E 2020204D6F64 K.16	 DC.B	   '   Module name = ''
00000B30 2020204D6F64 K.17	 DC.B	   '   Module version number = '
00000B4B 00000001		 DS.B	   1
00000B4C 2020204D6F64 K.18	 DC.B	   '   Module revision number = '
00000B68 2020204C616E K.19	 DC.B	   '   Language processor = ''
00000B81 00000001		 DS.B	   1
00000B82 202020536F75 K.20	 DC.B	   '   Source file volume name = ''
00000BA0 202020536F75 K.21	 DC.B	   '   Source file user number = '
00000BBD 00000001		 DS.B	   1
00000BBE 202020536F75 K.22	 DC.B	   '   Source file catalog name = ''
00000BDD 00000001		 DS.B	   1
00000BDE 202020536F75 K.23	 DC.B	   '   Source file file name = ''
00000BFA 202020536F75 K.24	 DC.B	   '   Source file extension = ''
00000C16 2020204D6F64 K.25	 DC.B	   '   Module creation time = '
00000C30 2020204D6F64 K.26	 DC.B	   '   Module creation date = '
00000C4A 2020204D6F64 K.27	 DC.B	   '   Module description = ''
00000C63 00000001		 DS.B	   1
		      *
		      *		 Begin subroutine PROCESS_IDENTIFICATION_RECORD
		      *00000C64 2D4FFDBC     B.22	 MOVE.L	   A7,X.22.1(A6)
		      *							       LINE 19/12
		      *							       LINE 19/13
00000C68 426EFEB2     L.22.1	 CLR.W	   -334(A6)			         $FFFFFEB2
00000C6C 41EEFEB2		 LEA	   -334(A6),A0			         $FFFFFEB2
00000C70 2D48FFDE		 MOVE.L	   A0,-34(A6)			         $FFFFFFDE
00000C74 426EFFDC		 CLR.W	   -36(A6)			         $FFFFFFDC
00000C78 6100F430		 BSR.L	   B.4(PC)			         WRITE_STRING = CODE.+
		      *							       LINE 19/14
00000C7C 3D7C0016FE9C		 MOVE.W	   #22,-356(A6)			         $16  $FFFFFE9C
00000C82 486EFE9E		 PEA	   -354(A6)			         $FFFFFE9E
00000C86 3F2EFE9C		 MOVE.W	   -356(A6),-(A7)		         $FFFFFE9C
00000C8A 487AFE7C		 PEA	   K.15(PC)			         CODE.+$B08
00000C8E 7016			 MOVEQ	   #22,D0			         $16
00000C90 3F00			 MOVE.W	   D0,-(A7)
00000C92 4EB900000000		 JSR	   C.MVFF
00000C98 41EEFE9C		 LEA	   -356(A6),A0			         $FFFFFE9C
00000C9C 2D48FFDE		 MOVE.L	   A0,-34(A6)			         $FFFFFFDE
00000CA0 3D7C0016FFDC		 MOVE.W	   #22,-36(A6)			         $16  $FFFFFFDC
00000CA6 6100F402		 BSR.L	   B.4(PC)			         WRITE_STRING = CODE.+
		      *							       LINE 19/15
00000CAA 41EEFEDA		 LEA	   -294(A6),A0			         LOCAL_STRING
00000CAE 2D48FFC8		 MOVE.L	   A0,-56(A6)			         $FFFFFFC8
00000CB2 3D7C00D3FFC6		 MOVE.W	   #211,-58(A6)			         $D3  $FFFFFFC6
00000CB8 2D7C0000000A		 MOVE.L	   #10,-62(A6)			         $A  $FFFFFFC2
	 FFC2
00000CC0 6100FD8C		 BSR.L	   B.20(PC)			         READ_STRING = CODE.+$
		      *							       LINE 19/16
00000CC4 302EFEDA		 MOVE.W	   -294(A6),D0			         LOCAL_STRING
00000CC8 D07C0013		 ADD.W	   #19,D0			         $13
00000CCC 486EFDCE		 PEA	   -562(A6)			         $FFFFFDCE
00000CD0 3F3C00E6		 MOVE.W	   #230,-(A7)			         $E6
00000CD4 487AFE48		 PEA	   K.16(PC)			         CODE.+$B1E
00000CD8 7212			 MOVEQ	   #18,D1			         $12
00000CDA 3F01			 MOVE.W	   D1,-(A7)
00000CDC 4EB900000000		 JSR	   C.MVFF
00000CE2 486EFEDC		 PEA	   -294+2(A6)			         LOCAL_STRING
00000CE6 3F2EFEDA		 MOVE.W	   -294(A6),-(A7)		         LOCAL_STRING
00000CEA 4EB900000000		 JSR	   C.MVFR
00000CF0 7227			 MOVEQ	   #39,D1			         $27
00000CF2 1F01			 MOVE.B	   D1,-(A7)
00000CF4 4EB900000000		 JSR	   C.MVCR
00000CFA 3200			 MOVE.W	   D0,D1
00000CFC 5441			 ADDQ.W	   #2,D1			         $2
00000CFE 4841			 SWAP	   D100000D00 4241			 CLR.W	   D1
00000D02 4841			 SWAP	   D1
00000D04 2F01			 MOVE.L	   D1,-(A7)
00000D06 4EB900000000		 JSR	   M.DYNTMB
00000D0C 204F			 MOVEA.L   A7,A0
00000D0E 3080			 MOVE.W	   D0,(A0)
00000D10 48680002		 PEA	   2(A0)			         $2
00000D14 3F10			 MOVE.W	   (A0),-(A7)
00000D16 486EFDCE		 PEA	   -562(A6)			         $FFFFFDCE
00000D1A 3F00			 MOVE.W	   D0,-(A7)
00000D1C 4EB900000000		 JSR	   C.MVFF
00000D22 2D48FFDE		 MOVE.L	   A0,-34(A6)			         $FFFFFFDE
00000D26 3D40FFDC		 MOVE.W	   D0,-36(A6)			         $FFFFFFDC
00000D2A 6100F37E		 BSR.L	   B.4(PC)			         WRITE_STRING = CODE.+
		      *							       LINE 19/17
00000D2E 41EEFFB4		 LEA	   -76(A6),A0			         LOCAL_ONE_BYTE
00000D32 2D48FFFC		 MOVE.L	   A0,-4(A6)			         $FFFFFFFC
00000D36 6100F580		 BSR.L	   B.16(PC)			         READ_ONE_BYTE = CODE.
		      *							       LINE 19/18
00000D3A 6100FC92		 BSR.L	   B.13(PC)			         CHECK_EOF_FLAG = CODE
		      *							       LINE 19/19
00000D3E 42AEFFF2		 CLR.L	   -14(A6)			         $FFFFFFF2
00000D42 2D6EFFB4FFEE		 MOVE.L	   -76(A6),-18(A6)		         LOCAL_ONE_BYTE  $FFFF
00000D48 41EEFEA8		 LEA	   -344(A6),A0			         $FFFFFEA8
00000D4C 2D48FFEA		 MOVE.L	   A0,-22(A6)			         $FFFFFFEA
00000D50 6100F406		 BSR.L	   B.9(PC)			         CONVERT_DECIMAL = COD
00000D54 302EFEA8		 MOVE.W	   -344(A6),D0			         $FFFFFEA8
00000D58 D07C001B		 ADD.W	   #27,D0			         $1B
00000D5C 486EFE82		 PEA	   -382(A6)			         $FFFFFE82
00000D60 7225			 MOVEQ	   #37,D1			         $25
00000D62 3F01			 MOVE.W	   D1,-(A7)
00000D64 487AFDCA		 PEA	   K.17(PC)			         CODE.+$B30
00000D68 721B			 MOVEQ	   #27,D1			         $1B
00000D6A 3F01			 MOVE.W	   D1,-(A7)
00000D6C 4EB900000000		 JSR	   C.MVFF
00000D72 486EFEAA		 PEA	   -342(A6)			         $FFFFFEAA
00000D76 3F2EFEA8		 MOVE.W	   -344(A6),-(A7)		         $FFFFFEA8
00000D7A 4EB900000000		 JSR	   C.MVFR
00000D80 3200			 MOVE.W	   D0,D1
00000D82 5441			 ADDQ.W	   #2,D1			         $2
00000D84 4841			 SWAP	   D1
00000D86 4241			 CLR.W	   D1
00000D88 4841			 SWAP	   D1
00000D8A 2F01			 MOVE.L	   D1,-(A7)
00000D8C 4EB900000000		 JSR	   M.DYNTMB00000D92 204F			 MOVEA.L   A7,A0
00000D94 3080			 MOVE.W	   D0,(A0)
00000D96 48680002		 PEA	   2(A0)			         $2
00000D9A 3F10			 MOVE.W	   (A0),-(A7)
00000D9C 486EFE82		 PEA	   -382(A6)			         $FFFFFE82
00000DA0 3F00			 MOVE.W	   D0,-(A7)
00000DA2 4EB900000000		 JSR	   C.MVFF
00000DA8 2D48FFDE		 MOVE.L	   A0,-34(A6)			         $FFFFFFDE
00000DAC 3D40FFDC		 MOVE.W	   D0,-36(A6)			         $FFFFFFDC
00000DB0 6100F2F8		 BSR.L	   B.4(PC)			         WRITE_STRING = CODE.+
		      *							       LINE 19/21
00000DB4 41EEFFB4		 LEA	   -76(A6),A0			         LOCAL_ONE_BYTE
00000DB8 2D48FFFC		 MOVE.L	   A0,-4(A6)			         $FFFFFFFC
00000DBC 6100F4FA		 BSR.L	   B.16(PC)			         READ_ONE_BYTE = CODE.
		      *							       LINE 19/22
00000DC0 6100FC0C		 BSR.L	   B.13(PC)			         CHECK_EOF_FLAG = CODE
		      *							       LINE 19/23
00000DC4 42AEFFF2		 CLR.L	   -14(A6)			         $FFFFFFF2
00000DC8 2D6EFFB4FFEE		 MOVE.L	   -76(A6),-18(A6)		         LOCAL_ONE_BYTE  $FFFF
00000DCE 41EEFEA8		 LEA	   -344(A6),A0			         $FFFFFEA8
00000DD2 2D48FFEA		 MOVE.L	   A0,-22(A6)			         $FFFFFFEA
00000DD6 6100F380		 BSR.L	   B.9(PC)			         CONVERT_DECIMAL = COD
00000DDA 302EFEA8		 MOVE.W	   -344(A6),D0			         $FFFFFEA8
00000DDE D07C001C		 ADD.W	   #28,D0			         $1C
00000DE2 486EFE82		 PEA	   -382(A6)			         $FFFFFE82
00000DE6 7226			 MOVEQ	   #38,D1			         $26
00000DE8 3F01			 MOVE.W	   D1,-(A7)
00000DEA 487AFD60		 PEA	   K.18(PC)			         CODE.+$B4C
00000DEE 721C			 MOVEQ	   #28,D1			         $1C
00000DF0 3F01			 MOVE.W	   D1,-(A7)
00000DF2 4EB900000000		 JSR	   C.MVFF
00000DF8 486EFEAA		 PEA	   -342(A6)			         $FFFFFEAA
00000DFC 3F2EFEA8		 MOVE.W	   -344(A6),-(A7)		         $FFFFFEA8
00000E00 4EB900000000		 JSR	   C.MVFR
00000E06 3200			 MOVE.W	   D0,D1
00000E08 5441			 ADDQ.W	   #2,D1			         $2
00000E0A 4841			 SWAP	   D1
00000E0C 4241			 CLR.W	   D1
00000E0E 4841			 SWAP	   D1
00000E10 2F01			 MOVE.L	   D1,-(A7)
00000E12 4EB900000000		 JSR	   M.DYNTMB
00000E18 204F			 MOVEA.L   A7,A0
00000E1A 3080			 MOVE.W	   D0,(A0)
00000E1C 48680002		 PEA	   2(A0)			         $2
00000E20 3F10			 MOVE.W	   (A0),-(A7)00000E22 486EFE82		 PEA	   -382(A6)			         $FFFFFE82
00000E26 3F00			 MOVE.W	   D0,-(A7)
00000E28 4EB900000000		 JSR	   C.MVFF
00000E2E 2D48FFDE		 MOVE.L	   A0,-34(A6)			         $FFFFFFDE
00000E32 3D40FFDC		 MOVE.W	   D0,-36(A6)			         $FFFFFFDC
00000E36 6100F272		 BSR.L	   B.4(PC)			         WRITE_STRING = CODE.+
		      *							       LINE 19/25
00000E3A 41EEFEDA		 LEA	   -294(A6),A0			         LOCAL_STRING
00000E3E 2D48FFC8		 MOVE.L	   A0,-56(A6)			         $FFFFFFC8
00000E42 3D7C00D3FFC6		 MOVE.W	   #211,-58(A6)			         $D3  $FFFFFFC6
00000E48 2D7C00000001		 MOVE.L	   #1,-62(A6)			         $1  $FFFFFFC2
	 FFC2
00000E50 6100FBFC		 BSR.L	   B.20(PC)			         READ_STRING = CODE.+$
		      *							       LINE 19/26
00000E54 302EFEDA		 MOVE.W	   -294(A6),D0			         LOCAL_STRING
00000E58 D07C001A		 ADD.W	   #26,D0			         $1A
00000E5C 486EFDC6		 PEA	   -570(A6)			         $FFFFFDC6
00000E60 3F3C00ED		 MOVE.W	   #237,-(A7)			         $ED
00000E64 487AFD02		 PEA	   K.19(PC)			         CODE.+$B68
00000E68 7219			 MOVEQ	   #25,D1			         $19
00000E6A 3F01			 MOVE.W	   D1,-(A7)
00000E6C 4EB900000000		 JSR	   C.MVFF
00000E72 486EFEDC		 PEA	   -294+2(A6)			         LOCAL_STRING
00000E76 3F2EFEDA		 MOVE.W	   -294(A6),-(A7)		         LOCAL_STRING
00000E7A 4EB900000000		 JSR	   C.MVFR
00000E80 7227			 MOVEQ	   #39,D1			         $27
00000E82 1F01			 MOVE.B	   D1,-(A7)
00000E84 4EB900000000		 JSR	   C.MVCR
00000E8A 3200			 MOVE.W	   D0,D1
00000E8C 5441			 ADDQ.W	   #2,D1			         $2
00000E8E 4841			 SWAP	   D1
00000E90 4241			 CLR.W	   D1
00000E92 4841			 SWAP	   D1
00000E94 2F01			 MOVE.L	   D1,-(A7)
00000E96 4EB900000000		 JSR	   M.DYNTMB
00000E9C 204F			 MOVEA.L   A7,A0
00000E9E 3080			 MOVE.W	   D0,(A0)
00000EA0 48680002		 PEA	   2(A0)			         $2
00000EA4 3F10			 MOVE.W	   (A0),-(A7)
00000EA6 486EFDC6		 PEA	   -570(A6)			         $FFFFFDC6
00000EAA 3F00			 MOVE.W	   D0,-(A7)
00000EAC 4EB900000000		 JSR	   C.MVFF
00000EB2 2D48FFDE		 MOVE.L	   A0,-34(A6)			         $FFFFFFDE
00000EB6 3D40FFDC		 MOVE.W	   D0,-36(A6)			         $FFFFFFDC
00000EBA 6100F1EE		 BSR.L	   B.4(PC)			         WRITE_STRING = CODE.+		      *							       LINE 19/27
00000EBE 41EEFEDA		 LEA	   -294(A6),A0			         LOCAL_STRING
00000EC2 2D48FFC8		 MOVE.L	   A0,-56(A6)			         $FFFFFFC8
00000EC6 3D7C00D3FFC6		 MOVE.W	   #211,-58(A6)			         $D3  $FFFFFFC6
00000ECC 2D7C00000004		 MOVE.L	   #4,-62(A6)			         $4  $FFFFFFC2
	 FFC2
00000ED4 6100FB78		 BSR.L	   B.20(PC)			         READ_STRING = CODE.+$
		      *							       LINE 19/28
00000ED8 302EFEDA		 MOVE.W	   -294(A6),D0			         LOCAL_STRING
00000EDC D07C001F		 ADD.W	   #31,D0			         $1F
00000EE0 486EFDC2		 PEA	   -574(A6)			         $FFFFFDC2
00000EE4 3F3C00F2		 MOVE.W	   #242,-(A7)			         $F2
00000EE8 487AFC98		 PEA	   K.20(PC)			         CODE.+$B82
00000EEC 721E			 MOVEQ	   #30,D1			         $1E
00000EEE 3F01			 MOVE.W	   D1,-(A7)
00000EF0 4EB900000000		 JSR	   C.MVFF
00000EF6 486EFEDC		 PEA	   -294+2(A6)			         LOCAL_STRING
00000EFA 3F2EFEDA		 MOVE.W	   -294(A6),-(A7)		         LOCAL_STRING
00000EFE 4EB900000000		 JSR	   C.MVFR
00000F04 7227			 MOVEQ	   #39,D1			         $27
00000F06 1F01			 MOVE.B	   D1,-(A7)
00000F08 4EB900000000		 JSR	   C.MVCR
00000F0E 3200			 MOVE.W	   D0,D1
00000F10 5441			 ADDQ.W	   #2,D1			         $2
00000F12 4841			 SWAP	   D1
00000F14 4241			 CLR.W	   D1
00000F16 4841			 SWAP	   D1
00000F18 2F01			 MOVE.L	   D1,-(A7)
00000F1A 4EB900000000		 JSR	   M.DYNTMB
00000F20 204F			 MOVEA.L   A7,A0
00000F22 3080			 MOVE.W	   D0,(A0)
00000F24 48680002		 PEA	   2(A0)			         $2
00000F28 3F10			 MOVE.W	   (A0),-(A7)
00000F2A 486EFDC2		 PEA	   -574(A6)			         $FFFFFDC2
00000F2E 3F00			 MOVE.W	   D0,-(A7)
00000F30 4EB900000000		 JSR	   C.MVFF
00000F36 2D48FFDE		 MOVE.L	   A0,-34(A6)			         $FFFFFFDE
00000F3A 3D40FFDC		 MOVE.W	   D0,-36(A6)			         $FFFFFFDC
00000F3E 6100F16A		 BSR.L	   B.4(PC)			         WRITE_STRING = CODE.+
		      *							       LINE 19/29
00000F42 41EEFFB0		 LEA	   -80(A6),A0			         LOCAL_TWO_BYTES
00000F46 2D48FFBE		 MOVE.L	   A0,-66(A6)			         $FFFFFFBE
00000F4A 6100FAB8		 BSR.L	   B.17(PC)			         READ_TWO_BYTES = CODE
		      *							       LINE 19/30
00000F4E 42AEFFF2		 CLR.L	   -14(A6)			         $FFFFFFF200000F52 2D6EFFB0FFEE		 MOVE.L	   -80(A6),-18(A6)		         LOCAL_TWO_BYTES  $FFF
00000F58 41EEFEA8		 LEA	   -344(A6),A0			         $FFFFFEA8
00000F5C 2D48FFEA		 MOVE.L	   A0,-22(A6)			         $FFFFFFEA
00000F60 6100F1F6		 BSR.L	   B.9(PC)			         CONVERT_DECIMAL = COD
00000F64 302EFEA8		 MOVE.W	   -344(A6),D0			         $FFFFFEA8
00000F68 D07C001D		 ADD.W	   #29,D0			         $1D
00000F6C 486EFE80		 PEA	   -384(A6)			         $FFFFFE80
00000F70 7227			 MOVEQ	   #39,D1			         $27
00000F72 3F01			 MOVE.W	   D1,-(A7)
00000F74 487AFC2A		 PEA	   K.21(PC)			         CODE.+$BA0
00000F78 721D			 MOVEQ	   #29,D1			         $1D
00000F7A 3F01			 MOVE.W	   D1,-(A7)
00000F7C 4EB900000000		 JSR	   C.MVFF
00000F82 486EFEAA		 PEA	   -342(A6)			         $FFFFFEAA
00000F86 3F2EFEA8		 MOVE.W	   -344(A6),-(A7)		         $FFFFFEA8
00000F8A 4EB900000000		 JSR	   C.MVFR
00000F90 3200			 MOVE.W	   D0,D1
00000F92 5441			 ADDQ.W	   #2,D1			         $2
00000F94 4841			 SWAP	   D1
00000F96 4241			 CLR.W	   D1
00000F98 4841			 SWAP	   D1
00000F9A 2F01			 MOVE.L	   D1,-(A7)
00000F9C 4EB900000000		 JSR	   M.DYNTMB
00000FA2 204F			 MOVEA.L   A7,A0
00000FA4 3080			 MOVE.W	   D0,(A0)
00000FA6 48680002		 PEA	   2(A0)			         $2
00000FAA 3F10			 MOVE.W	   (A0),-(A7)
00000FAC 486EFE80		 PEA	   -384(A6)			         $FFFFFE80
00000FB0 3F00			 MOVE.W	   D0,-(A7)
00000FB2 4EB900000000		 JSR	   C.MVFF
00000FB8 2D48FFDE		 MOVE.L	   A0,-34(A6)			         $FFFFFFDE
00000FBC 3D40FFDC		 MOVE.W	   D0,-36(A6)			         $FFFFFFDC
00000FC0 6100F0E8		 BSR.L	   B.4(PC)			         WRITE_STRING = CODE.+
		      *							       LINE 19/32
00000FC4 41EEFEDA		 LEA	   -294(A6),A0			         LOCAL_STRING
00000FC8 2D48FFC8		 MOVE.L	   A0,-56(A6)			         $FFFFFFC8
00000FCC 3D7C00D3FFC6		 MOVE.W	   #211,-58(A6)			         $D3  $FFFFFFC6
00000FD2 2D7C00000008		 MOVE.L	   #8,-62(A6)			         $8  $FFFFFFC2
	 FFC2
00000FDA 6100FA72		 BSR.L	   B.20(PC)			         READ_STRING = CODE.+$
		      *							       LINE 19/33
00000FDE 302EFEDA		 MOVE.W	   -294(A6),D0			         LOCAL_STRING
00000FE2 D07C0020		 ADD.W	   #32,D0			         $20
00000FE6 486EFDC0		 PEA	   -576(A6)			         $FFFFFDC0
00000FEA 3F3C00F3		 MOVE.W	   #243,-(A7)			         $F300000FEE 487AFBCE		 PEA	   K.22(PC)			         CODE.+$BBE
00000FF2 721F			 MOVEQ	   #31,D1			         $1F
00000FF4 3F01			 MOVE.W	   D1,-(A7)
00000FF6 4EB900000000		 JSR	   C.MVFF
00000FFC 486EFEDC		 PEA	   -294+2(A6)			         LOCAL_STRING
00001000 3F2EFEDA		 MOVE.W	   -294(A6),-(A7)		         LOCAL_STRING
00001004 4EB900000000		 JSR	   C.MVFR
0000100A 7227			 MOVEQ	   #39,D1			         $27
0000100C 1F01			 MOVE.B	   D1,-(A7)
0000100E 4EB900000000		 JSR	   C.MVCR
00001014 3200			 MOVE.W	   D0,D1
00001016 5441			 ADDQ.W	   #2,D1			         $2
00001018 4841			 SWAP	   D1
0000101A 4241			 CLR.W	   D1
0000101C 4841			 SWAP	   D1
0000101E 2F01			 MOVE.L	   D1,-(A7)
00001020 4EB900000000		 JSR	   M.DYNTMB
00001026 204F			 MOVEA.L   A7,A0
00001028 3080			 MOVE.W	   D0,(A0)
0000102A 48680002		 PEA	   2(A0)			         $2
0000102E 3F10			 MOVE.W	   (A0),-(A7)
00001030 486EFDC0		 PEA	   -576(A6)			         $FFFFFDC0
00001034 3F00			 MOVE.W	   D0,-(A7)
00001036 4EB900000000		 JSR	   C.MVFF
0000103C 2D48FFDE		 MOVE.L	   A0,-34(A6)			         $FFFFFFDE
00001040 3D40FFDC		 MOVE.W	   D0,-36(A6)			         $FFFFFFDC
00001044 6100F064		 BSR.L	   B.4(PC)			         WRITE_STRING = CODE.+
		      *							       LINE 19/34
00001048 41EEFEDA		 LEA	   -294(A6),A0			         LOCAL_STRING
0000104C 2D48FFC8		 MOVE.L	   A0,-56(A6)			         $FFFFFFC8
00001050 3D7C00D3FFC6		 MOVE.W	   #211,-58(A6)			         $D3  $FFFFFFC6
00001056 2D7C00000008		 MOVE.L	   #8,-62(A6)			         $8  $FFFFFFC2
	 FFC2
0000105E 6100F9EE		 BSR.L	   B.20(PC)			         READ_STRING = CODE.+$
		      *							       LINE 19/35
00001062 302EFEDA		 MOVE.W	   -294(A6),D0			         LOCAL_STRING
00001066 D07C001D		 ADD.W	   #29,D0			         $1D
0000106A 486EFDC4		 PEA	   -572(A6)			         $FFFFFDC4
0000106E 3F3C00F0		 MOVE.W	   #240,-(A7)			         $F0
00001072 487AFB6A		 PEA	   K.23(PC)			         CODE.+$BDE
00001076 721C			 MOVEQ	   #28,D1			         $1C
00001078 3F01			 MOVE.W	   D1,-(A7)
0000107A 4EB900000000		 JSR	   C.MVFF
00001080 486EFEDC		 PEA	   -294+2(A6)			         LOCAL_STRING
00001084 3F2EFEDA		 MOVE.W	   -294(A6),-(A7)		         LOCAL_STRING00001088 4EB900000000		 JSR	   C.MVFR
0000108E 7227			 MOVEQ	   #39,D1			         $27
00001090 1F01			 MOVE.B	   D1,-(A7)
00001092 4EB900000000		 JSR	   C.MVCR
00001098 3200			 MOVE.W	   D0,D1
0000109A 5441			 ADDQ.W	   #2,D1			         $2
0000109C 4841			 SWAP	   D1
0000109E 4241			 CLR.W	   D1
000010A0 4841			 SWAP	   D1
000010A2 2F01			 MOVE.L	   D1,-(A7)
000010A4 4EB900000000		 JSR	   M.DYNTMB
000010AA 204F			 MOVEA.L   A7,A0
000010AC 3080			 MOVE.W	   D0,(A0)
000010AE 48680002		 PEA	   2(A0)			         $2
000010B2 3F10			 MOVE.W	   (A0),-(A7)
000010B4 486EFDC4		 PEA	   -572(A6)			         $FFFFFDC4
000010B8 3F00			 MOVE.W	   D0,-(A7)
000010BA 4EB900000000		 JSR	   C.MVFF
000010C0 2D48FFDE		 MOVE.L	   A0,-34(A6)			         $FFFFFFDE
000010C4 3D40FFDC		 MOVE.W	   D0,-36(A6)			         $FFFFFFDC
000010C8 6100EFE0		 BSR.L	   B.4(PC)			         WRITE_STRING = CODE.+
		      *							       LINE 19/36
000010CC 41EEFEDA		 LEA	   -294(A6),A0			         LOCAL_STRING
000010D0 2D48FFC8		 MOVE.L	   A0,-56(A6)			         $FFFFFFC8
000010D4 3D7C00D3FFC6		 MOVE.W	   #211,-58(A6)			         $D3  $FFFFFFC6
000010DA 2D7C00000002		 MOVE.L	   #2,-62(A6)			         $2  $FFFFFFC2
	 FFC2
000010E2 6100F96A		 BSR.L	   B.20(PC)			         READ_STRING = CODE.+$
		      *							       LINE 19/37
000010E6 302EFEDA		 MOVE.W	   -294(A6),D0			         LOCAL_STRING
000010EA D07C001D		 ADD.W	   #29,D0			         $1D
000010EE 486EFDC4		 PEA	   -572(A6)			         $FFFFFDC4
000010F2 3F3C00F0		 MOVE.W	   #240,-(A7)			         $F0
000010F6 487AFB02		 PEA	   K.24(PC)			         CODE.+$BFA
000010FA 721C			 MOVEQ	   #28,D1			         $1C
000010FC 3F01			 MOVE.W	   D1,-(A7)
000010FE 4EB900000000		 JSR	   C.MVFF
00001104 486EFEDC		 PEA	   -294+2(A6)			         LOCAL_STRING
00001108 3F2EFEDA		 MOVE.W	   -294(A6),-(A7)		         LOCAL_STRING
0000110C 4EB900000000		 JSR	   C.MVFR
00001112 7227			 MOVEQ	   #39,D1			         $27
00001114 1F01			 MOVE.B	   D1,-(A7)
00001116 4EB900000000		 JSR	   C.MVCR
0000111C 3200			 MOVE.W	   D0,D1
0000111E 5441			 ADDQ.W	   #2,D1			         $200001120 4841			 SWAP	   D1
00001122 4241			 CLR.W	   D1
00001124 4841			 SWAP	   D1
00001126 2F01			 MOVE.L	   D1,-(A7)
00001128 4EB900000000		 JSR	   M.DYNTMB
0000112E 204F			 MOVEA.L   A7,A0
00001130 3080			 MOVE.W	   D0,(A0)
00001132 48680002		 PEA	   2(A0)			         $2
00001136 3F10			 MOVE.W	   (A0),-(A7)
00001138 486EFDC4		 PEA	   -572(A6)			         $FFFFFDC4
0000113C 3F00			 MOVE.W	   D0,-(A7)
0000113E 4EB900000000		 JSR	   C.MVFF
00001144 2D48FFDE		 MOVE.L	   A0,-34(A6)			         $FFFFFFDE
00001148 3D40FFDC		 MOVE.W	   D0,-36(A6)			         $FFFFFFDC
0000114C 6100EF5C		 BSR.L	   B.4(PC)			         WRITE_STRING = CODE.+
		      *							       LINE 19/38
00001150 41EEFEDA		 LEA	   -294(A6),A0			         LOCAL_STRING
00001154 20FC00082020		 MOVE.L	   #532512,(A0)+		         $82020
0000115A 20FC3A20203A		 MOVE.L	   #975183930,(A0)+		         $3A20203A
00001160 30FC2020		 MOVE.W	   #8224,(A0)+			         $2020
		      *							       LINE 19/39
00001164 41EEFFB4		 LEA	   -76(A6),A0			         LOCAL_ONE_BYTE
00001168 2D48FFFC		 MOVE.L	   A0,-4(A6)			         $FFFFFFFC
0000116C 6100F14A		 BSR.L	   B.16(PC)			         READ_ONE_BYTE = CODE.
		      *							       LINE 19/40
00001170 6100F85C		 BSR.L	   B.13(PC)			         CHECK_EOF_FLAG = CODE
		      *							       LINE 19/41
00001174 7000			 MOVEQ	   #0,D0			         $0
00001176 302EFEDA		 MOVE.W	   -294(A6),D0			         LOCAL_STRING
0000117A 90BC00000000		 SUB.L	   #0,D0			         $0
00001180 0C8000000002		 CMPI.L	   #2,D0			         $2
00001186 6C06			 BGE.S	   X.22.4(PC)
00001188 4EB900000000 X.22.3	 JSR	   E.SUBSTR
0000118E 3D7C0002FEB0 X.22.4	 MOVE.W	   #2,-336(A6)			         $2  $FFFFFEB0
00001194 426EFEAE		 CLR.W	   -338(A6)			         $FFFFFEAE
00001198 41EEFEB2		 LEA	   -334(A6),A0			         $FFFFFEB2
0000119C 2D48FEAA		 MOVE.L	   A0,-342(A6)			         $FFFFFEAA
000011A0 7002			 MOVEQ	   #2,D0			         $2
000011A2 2F00			 MOVE.L	   D0,-(A7)
000011A4 7050			 MOVEQ	   #80,D0			         $50
000011A6 3F00			 MOVE.W	   D0,-(A7)
000011A8 486EFFB4		 PEA	   -76(A6)			         LOCAL_ONE_BYTE
000011AC 486EFEAA		 PEA	   -342(A6)			         $FFFFFEAA
000011B0 4EB900000000		 JSR	   I.PTSTRF
000011B6 486EFEAA		 PEA	   -342(A6)			         $FFFFFEAA000011BA 4EB900000000		 JSR	   I.PTSTRD
000011C0 486EFEDC		 PEA	   -294+2(A6)			         LOCAL_STRING
000011C4 7002			 MOVEQ	   #2,D0			         $2
000011C6 3F00			 MOVE.W	   D0,-(A7)
000011C8 486EFEB2		 PEA	   -334(A6)			         $FFFFFEB2
000011CC 7002			 MOVEQ	   #2,D0			         $2
000011CE 3F00			 MOVE.W	   D0,-(A7)
000011D0 4EB900000000		 JSR	   C.MVFF
		      *							       LINE 19/42
000011D6 41EEFFB4		 LEA	   -76(A6),A0			         LOCAL_ONE_BYTE
000011DA 2D48FFFC		 MOVE.L	   A0,-4(A6)			         $FFFFFFFC
000011DE 6100F0D8		 BSR.L	   B.16(PC)			         READ_ONE_BYTE = CODE.
		      *							       LINE 19/43
000011E2 6100F7EA		 BSR.L	   B.13(PC)			         CHECK_EOF_FLAG = CODE
		      *							       LINE 19/44
000011E6 7000			 MOVEQ	   #0,D0			         $0
000011E8 302EFEDA		 MOVE.W	   -294(A6),D0			         LOCAL_STRING
000011EC 5780			 SUBQ.L	   #3,D0			         $3
000011EE 0C8000000002		 CMPI.L	   #2,D0			         $2
000011F4 6C06			 BGE.S	   X.22.6(PC)
000011F6 4EB900000000 X.22.5	 JSR	   E.SUBSTR
000011FC 3D7C0002FEB0 X.22.6	 MOVE.W	   #2,-336(A6)			         $2  $FFFFFEB0
00001202 426EFEAE		 CLR.W	   -338(A6)			         $FFFFFEAE
00001206 41EEFEB2		 LEA	   -334(A6),A0			         $FFFFFEB2
0000120A 2D48FEAA		 MOVE.L	   A0,-342(A6)			         $FFFFFEAA
0000120E 7002			 MOVEQ	   #2,D0			         $2
00001210 2F00			 MOVE.L	   D0,-(A7)
00001212 7050			 MOVEQ	   #80,D0			         $50
00001214 3F00			 MOVE.W	   D0,-(A7)
00001216 486EFFB4		 PEA	   -76(A6)			         LOCAL_ONE_BYTE
0000121A 486EFEAA		 PEA	   -342(A6)			         $FFFFFEAA
0000121E 4EB900000000		 JSR	   I.PTSTRF
00001224 486EFEAA		 PEA	   -342(A6)			         $FFFFFEAA
00001228 4EB900000000		 JSR	   I.PTSTRD
0000122E 486EFEDF		 PEA	   -294+5(A6)			         LOCAL_STRING
00001232 7002			 MOVEQ	   #2,D0			         $2
00001234 3F00			 MOVE.W	   D0,-(A7)
00001236 486EFEB2		 PEA	   -334(A6)			         $FFFFFEB2
0000123A 7002			 MOVEQ	   #2,D0			         $2
0000123C 3F00			 MOVE.W	   D0,-(A7)
0000123E 4EB900000000		 JSR	   C.MVFF
		      *							       LINE 19/45
00001244 41EEFFB4		 LEA	   -76(A6),A0			         LOCAL_ONE_BYTE
00001248 2D48FFFC		 MOVE.L	   A0,-4(A6)			         $FFFFFFFC
0000124C 6100F06A		 BSR.L	   B.16(PC)			         READ_ONE_BYTE = CODE.		      *							       LINE 19/46
00001250 6100F77C		 BSR.L	   B.13(PC)			         CHECK_EOF_FLAG = CODE
		      *							       LINE 19/47
00001254 7000			 MOVEQ	   #0,D0			         $0
00001256 302EFEDA		 MOVE.W	   -294(A6),D0			         LOCAL_STRING
0000125A 5D80			 SUBQ.L	   #6,D0			         $6
0000125C 0C8000000002		 CMPI.L	   #2,D0			         $2
00001262 6C06			 BGE.S	   X.22.8(PC)
00001264 4EB900000000 X.22.7	 JSR	   E.SUBSTR
0000126A 3D7C0002FEB0 X.22.8	 MOVE.W	   #2,-336(A6)			         $2  $FFFFFEB0
00001270 426EFEAE		 CLR.W	   -338(A6)			         $FFFFFEAE
00001274 41EEFEB2		 LEA	   -334(A6),A0			         $FFFFFEB2
00001278 2D48FEAA		 MOVE.L	   A0,-342(A6)			         $FFFFFEAA
0000127C 7002			 MOVEQ	   #2,D0			         $2
0000127E 2F00			 MOVE.L	   D0,-(A7)
00001280 7050			 MOVEQ	   #80,D0			         $50
00001282 3F00			 MOVE.W	   D0,-(A7)
00001284 486EFFB4		 PEA	   -76(A6)			         LOCAL_ONE_BYTE
00001288 486EFEAA		 PEA	   -342(A6)			         $FFFFFEAA
0000128C 4EB900000000		 JSR	   I.PTSTRF
00001292 486EFEAA		 PEA	   -342(A6)			         $FFFFFEAA
00001296 4EB900000000		 JSR	   I.PTSTRD
0000129C 486EFEE2		 PEA	   -294+8(A6)			         LOCAL_STRING
000012A0 7002			 MOVEQ	   #2,D0			         $2
000012A2 3F00			 MOVE.W	   D0,-(A7)
000012A4 486EFEB2		 PEA	   -334(A6)			         $FFFFFEB2
000012A8 7002			 MOVEQ	   #2,D0			         $2
000012AA 3F00			 MOVE.W	   D0,-(A7)
000012AC 4EB900000000		 JSR	   C.MVFF
		      *							       LINE 19/48
000012B2 302EFEDA		 MOVE.W	   -294(A6),D0			         LOCAL_STRING
000012B6 D07C001A		 ADD.W	   #26,D0			         $1A
000012BA 486EFDC6		 PEA	   -570(A6)			         $FFFFFDC6
000012BE 3F3C00ED		 MOVE.W	   #237,-(A7)			         $ED
000012C2 487AF952		 PEA	   K.25(PC)			         CODE.+$C16
000012C6 721A			 MOVEQ	   #26,D1			         $1A
000012C8 3F01			 MOVE.W	   D1,-(A7)
000012CA 4EB900000000		 JSR	   C.MVFF
000012D0 486EFEDC		 PEA	   -294+2(A6)			         LOCAL_STRING
000012D4 3F2EFEDA		 MOVE.W	   -294(A6),-(A7)		         LOCAL_STRING
000012D8 4EB900000000		 JSR	   C.MVFR
000012DE 3200			 MOVE.W	   D0,D1
000012E0 5441			 ADDQ.W	   #2,D1			         $2
000012E2 4841			 SWAP	   D1
000012E4 4241			 CLR.W	   D1000012E6 4841			 SWAP	   D1
000012E8 2F01			 MOVE.L	   D1,-(A7)
000012EA 4EB900000000		 JSR	   M.DYNTMB
000012F0 204F			 MOVEA.L   A7,A0
000012F2 3080			 MOVE.W	   D0,(A0)
000012F4 48680002		 PEA	   2(A0)			         $2
000012F8 3F10			 MOVE.W	   (A0),-(A7)
000012FA 486EFDC6		 PEA	   -570(A6)			         $FFFFFDC6
000012FE 3F00			 MOVE.W	   D0,-(A7)
00001300 4EB900000000		 JSR	   C.MVFF
00001306 2D48FFDE		 MOVE.L	   A0,-34(A6)			         $FFFFFFDE
0000130A 3D40FFDC		 MOVE.W	   D0,-36(A6)			         $FFFFFFDC
0000130E 6100ED9A		 BSR.L	   B.4(PC)			         WRITE_STRING = CODE.+
		      *							       LINE 19/49
00001312 41EEFEDA		 LEA	   -294(A6),A0			         LOCAL_STRING
00001316 20FC00082020		 MOVE.L	   #532512,(A0)+		         $82020
0000131C 20FC2F20202F		 MOVE.L	   #790634543,(A0)+		         $2F20202F
00001322 30FC2020		 MOVE.W	   #8224,(A0)+			         $2020
		      *							       LINE 19/50
00001326 41EEFFB4		 LEA	   -76(A6),A0			         LOCAL_ONE_BYTE
0000132A 2D48FFFC		 MOVE.L	   A0,-4(A6)			         $FFFFFFFC
0000132E 6100EF88		 BSR.L	   B.16(PC)			         READ_ONE_BYTE = CODE.
		      *							       LINE 19/51
00001332 6100F69A		 BSR.L	   B.13(PC)			         CHECK_EOF_FLAG = CODE
		      *							       LINE 19/52
00001336 7000			 MOVEQ	   #0,D0			         $0
00001338 302EFEDA		 MOVE.W	   -294(A6),D0			         LOCAL_STRING
0000133C 90BC00000000		 SUB.L	   #0,D0			         $0
00001342 0C8000000002		 CMPI.L	   #2,D0			         $2
00001348 6C06			 BGE.S	   X.22.10(PC)
0000134A 4EB900000000 X.22.9	 JSR	   E.SUBSTR
00001350 3D7C0002FEB0 X.22.10	 MOVE.W	   #2,-336(A6)			         $2  $FFFFFEB0
00001356 426EFEAE		 CLR.W	   -338(A6)			         $FFFFFEAE
0000135A 41EEFEB2		 LEA	   -334(A6),A0			         $FFFFFEB2
0000135E 2D48FEAA		 MOVE.L	   A0,-342(A6)			         $FFFFFEAA
00001362 7002			 MOVEQ	   #2,D0			         $2
00001364 2F00			 MOVE.L	   D0,-(A7)
00001366 7050			 MOVEQ	   #80,D0			         $50
00001368 3F00			 MOVE.W	   D0,-(A7)
0000136A 486EFFB4		 PEA	   -76(A6)			         LOCAL_ONE_BYTE
0000136E 486EFEAA		 PEA	   -342(A6)			         $FFFFFEAA
00001372 4EB900000000		 JSR	   I.PTSTRF
00001378 486EFEAA		 PEA	   -342(A6)			         $FFFFFEAA
0000137C 4EB900000000		 JSR	   I.PTSTRD
00001382 486EFEDC		 PEA	   -294+2(A6)			         LOCAL_STRING00001386 7002			 MOVEQ	   #2,D0			         $2
00001388 3F00			 MOVE.W	   D0,-(A7)
0000138A 486EFEB2		 PEA	   -334(A6)			         $FFFFFEB2
0000138E 7002			 MOVEQ	   #2,D0			         $2
00001390 3F00			 MOVE.W	   D0,-(A7)
00001392 4EB900000000		 JSR	   C.MVFF
		      *							       LINE 19/53
00001398 41EEFFB4		 LEA	   -76(A6),A0			         LOCAL_ONE_BYTE
0000139C 2D48FFFC		 MOVE.L	   A0,-4(A6)			         $FFFFFFFC
000013A0 6100EF16		 BSR.L	   B.16(PC)			         READ_ONE_BYTE = CODE.
		      *							       LINE 19/54
000013A4 6100F628		 BSR.L	   B.13(PC)			         CHECK_EOF_FLAG = CODE
		      *							       LINE 19/55
000013A8 7000			 MOVEQ	   #0,D0			         $0
000013AA 302EFEDA		 MOVE.W	   -294(A6),D0			         LOCAL_STRING
000013AE 5780			 SUBQ.L	   #3,D0			         $3
000013B0 0C8000000002		 CMPI.L	   #2,D0			         $2
000013B6 6C06			 BGE.S	   X.22.12(PC)
000013B8 4EB900000000 X.22.11	 JSR	   E.SUBSTR
000013BE 3D7C0002FEB0 X.22.12	 MOVE.W	   #2,-336(A6)			         $2  $FFFFFEB0
000013C4 426EFEAE		 CLR.W	   -338(A6)			         $FFFFFEAE
000013C8 41EEFEB2		 LEA	   -334(A6),A0			         $FFFFFEB2
000013CC 2D48FEAA		 MOVE.L	   A0,-342(A6)			         $FFFFFEAA
000013D0 7002			 MOVEQ	   #2,D0			         $2
000013D2 2F00			 MOVE.L	   D0,-(A7)
000013D4 7050			 MOVEQ	   #80,D0			         $50
000013D6 3F00			 MOVE.W	   D0,-(A7)
000013D8 486EFFB4		 PEA	   -76(A6)			         LOCAL_ONE_BYTE
000013DC 486EFEAA		 PEA	   -342(A6)			         $FFFFFEAA
000013E0 4EB900000000		 JSR	   I.PTSTRF
000013E6 486EFEAA		 PEA	   -342(A6)			         $FFFFFEAA
000013EA 4EB900000000		 JSR	   I.PTSTRD
000013F0 486EFEDF		 PEA	   -294+5(A6)			         LOCAL_STRING
000013F4 7002			 MOVEQ	   #2,D0			         $2
000013F6 3F00			 MOVE.W	   D0,-(A7)
000013F8 486EFEB2		 PEA	   -334(A6)			         $FFFFFEB2
000013FC 7002			 MOVEQ	   #2,D0			         $2
000013FE 3F00			 MOVE.W	   D0,-(A7)
00001400 4EB900000000		 JSR	   C.MVFF
		      *							       LINE 19/56
00001406 41EEFFB4		 LEA	   -76(A6),A0			         LOCAL_ONE_BYTE
0000140A 2D48FFFC		 MOVE.L	   A0,-4(A6)			         $FFFFFFFC
0000140E 6100EEA8		 BSR.L	   B.16(PC)			         READ_ONE_BYTE = CODE.
		      *							       LINE 19/57
00001412 6100F5BA		 BSR.L	   B.13(PC)			         CHECK_EOF_FLAG = CODE		      *							       LINE 19/58
00001416 7000			 MOVEQ	   #0,D0			         $0
00001418 302EFEDA		 MOVE.W	   -294(A6),D0			         LOCAL_STRING
0000141C 5D80			 SUBQ.L	   #6,D0			         $6
0000141E 0C8000000002		 CMPI.L	   #2,D0			         $2
00001424 6C06			 BGE.S	   X.22.14(PC)
00001426 4EB900000000 X.22.13	 JSR	   E.SUBSTR
0000142C 3D7C0002FEB0 X.22.14	 MOVE.W	   #2,-336(A6)			         $2  $FFFFFEB0
00001432 426EFEAE		 CLR.W	   -338(A6)			         $FFFFFEAE
00001436 41EEFEB2		 LEA	   -334(A6),A0			         $FFFFFEB2
0000143A 2D48FEAA		 MOVE.L	   A0,-342(A6)			         $FFFFFEAA
0000143E 7002			 MOVEQ	   #2,D0			         $2
00001440 2F00			 MOVE.L	   D0,-(A7)
00001442 7050			 MOVEQ	   #80,D0			         $50
00001444 3F00			 MOVE.W	   D0,-(A7)
00001446 486EFFB4		 PEA	   -76(A6)			         LOCAL_ONE_BYTE
0000144A 486EFEAA		 PEA	   -342(A6)			         $FFFFFEAA
0000144E 4EB900000000		 JSR	   I.PTSTRF
00001454 486EFEAA		 PEA	   -342(A6)			         $FFFFFEAA
00001458 4EB900000000		 JSR	   I.PTSTRD
0000145E 486EFEE2		 PEA	   -294+8(A6)			         LOCAL_STRING
00001462 7002			 MOVEQ	   #2,D0			         $2
00001464 3F00			 MOVE.W	   D0,-(A7)
00001466 486EFEB2		 PEA	   -334(A6)			         $FFFFFEB2
0000146A 7002			 MOVEQ	   #2,D0			         $2
0000146C 3F00			 MOVE.W	   D0,-(A7)
0000146E 4EB900000000		 JSR	   C.MVFF
		      *							       LINE 19/59
00001474 302EFEDA		 MOVE.W	   -294(A6),D0			         LOCAL_STRING
00001478 D07C001A		 ADD.W	   #26,D0			         $1A
0000147C 486EFDC6		 PEA	   -570(A6)			         $FFFFFDC6
00001480 3F3C00ED		 MOVE.W	   #237,-(A7)			         $ED
00001484 487AF7AA		 PEA	   K.26(PC)			         CODE.+$C30
00001488 721A			 MOVEQ	   #26,D1			         $1A
0000148A 3F01			 MOVE.W	   D1,-(A7)
0000148C 4EB900000000		 JSR	   C.MVFF
00001492 486EFEDC		 PEA	   -294+2(A6)			         LOCAL_STRING
00001496 3F2EFEDA		 MOVE.W	   -294(A6),-(A7)		         LOCAL_STRING
0000149A 4EB900000000		 JSR	   C.MVFR
000014A0 3200			 MOVE.W	   D0,D1
000014A2 5441			 ADDQ.W	   #2,D1			         $2
000014A4 4841			 SWAP	   D1
000014A6 4241			 CLR.W	   D1
000014A8 4841			 SWAP	   D1
000014AA 2F01			 MOVE.L	   D1,-(A7)000014AC 4EB900000000		 JSR	   M.DYNTMB
000014B2 204F			 MOVEA.L   A7,A0
000014B4 3080			 MOVE.W	   D0,(A0)
000014B6 48680002		 PEA	   2(A0)			         $2
000014BA 3F10			 MOVE.W	   (A0),-(A7)
000014BC 486EFDC6		 PEA	   -570(A6)			         $FFFFFDC6
000014C0 3F00			 MOVE.W	   D0,-(A7)
000014C2 4EB900000000		 JSR	   C.MVFF
000014C8 2D48FFDE		 MOVE.L	   A0,-34(A6)			         $FFFFFFDE
000014CC 3D40FFDC		 MOVE.W	   D0,-36(A6)			         $FFFFFFDC
000014D0 6100EBD8		 BSR.L	   B.4(PC)			         WRITE_STRING = CODE.+
		      *							       LINE 19/60
000014D4 41EEFEDA		 LEA	   -294(A6),A0			         LOCAL_STRING
000014D8 2D48FFC8		 MOVE.L	   A0,-56(A6)			         $FFFFFFC8
000014DC 3D7C00D3FFC6		 MOVE.W	   #211,-58(A6)			         $D3  $FFFFFFC6
000014E2 702C			 MOVEQ	   #44,D0			         $2C
000014E4 90AD000C		 SUB.L	   STATIC.+12(A5),D0		         BYTE_COUNT
000014E8 4480			 NEG.L	   D0
000014EA 4A40			 TST.W	   D0
000014EC 6C06			 BGE.S	   X.22.15(PC)
000014EE 4EB900000000 X.22.16	 JSR	   E.VALUE
000014F4 0C4000FF     X.22.15	 CMPI.W	   #255,D0			         $FF
000014F8 6EF4			 BGT.S	   X.22.16(PC)
000014FA 2D40FFC2		 MOVE.L	   D0,-62(A6)			         $FFFFFFC2
000014FE 6100F54E		 BSR.L	   B.20(PC)			         READ_STRING = CODE.+$
		      *							       LINE 19/61
00001502 302EFEDA		 MOVE.W	   -294(A6),D0			         LOCAL_STRING
00001506 D07C001A		 ADD.W	   #26,D0			         $1A
0000150A 486EFDC6		 PEA	   -570(A6)			         $FFFFFDC6
0000150E 3F3C00ED		 MOVE.W	   #237,-(A7)			         $ED
00001512 487AF736		 PEA	   K.27(PC)			         CODE.+$C4A
00001516 7219			 MOVEQ	   #25,D1			         $19
00001518 3F01			 MOVE.W	   D1,-(A7)
0000151A 4EB900000000		 JSR	   C.MVFF
00001520 486EFEDC		 PEA	   -294+2(A6)			         LOCAL_STRING
00001524 3F2EFEDA		 MOVE.W	   -294(A6),-(A7)		         LOCAL_STRING
00001528 4EB900000000		 JSR	   C.MVFR
0000152E 7227			 MOVEQ	   #39,D1			         $27
00001530 1F01			 MOVE.B	   D1,-(A7)
00001532 4EB900000000		 JSR	   C.MVCR
00001538 3200			 MOVE.W	   D0,D1
0000153A 5441			 ADDQ.W	   #2,D1			         $2
0000153C 4841			 SWAP	   D1
0000153E 4241			 CLR.W	   D1
00001540 4841			 SWAP	   D100001542 2F01			 MOVE.L	   D1,-(A7)
00001544 4EB900000000		 JSR	   M.DYNTMB
0000154A 204F			 MOVEA.L   A7,A0
0000154C 3080			 MOVE.W	   D0,(A0)
0000154E 48680002		 PEA	   2(A0)			         $2
00001552 3F10			 MOVE.W	   (A0),-(A7)
00001554 486EFDC6		 PEA	   -570(A6)			         $FFFFFDC6
00001558 3F00			 MOVE.W	   D0,-(A7)
0000155A 4EB900000000		 JSR	   C.MVFF
00001560 2D48FFDE		 MOVE.L	   A0,-34(A6)			         $FFFFFFDE
00001564 3D40FFDC		 MOVE.W	   D0,-36(A6)			         $FFFFFFDC
00001568 6100EB40		 BSR.L	   B.4(PC)			         WRITE_STRING = CODE.+
		      *							       LINE 19/62
0000156C 7001			 MOVEQ	   #1,D0			         $1
0000156E 1B400002		 MOVE.B	   D0,STATIC.+2(A5)		         ID_FLAG
		      *							       LINE 19/63
00001572 7000			 MOVEQ	   #0,D0			         $0
00001574 1B400003		 MOVE.B	   D0,STATIC.+3(A5)		         END_FLAG
		      *							       LINE 19/64
00001578 2E6EFDBC		 MOVEA.L   X.22.1(A6),A7
0000157C 4E75			 RTS	   
		      *
		      *		 Begin subroutine CONVERT_FOUR_BYTES
		      *
0000157E	      B.8
		      *							       LINE 6/6
		      *							       LINE 6/7
0000157E 206EFFCC     L.8.1	 MOVEA.L   -52(A6),A0			         CONVERT_FOUR_BYTES
00001582 426EFF38		 CLR.W	   -200(A6)			         $FFFFFF38
00001586 3D7C000AFF36		 MOVE.W	   #10,-202(A6)			         $A  $FFFFFF36
0000158C 426EFF34		 CLR.W	   -204(A6)			         $FFFFFF34
00001590 43EEFF38		 LEA	   -200(A6),A1			         $FFFFFF38
00001594 2D49FF30		 MOVE.L	   A1,-208(A6)			         $FFFFFF30
00001598 7008			 MOVEQ	   #8,D0			         $8
0000159A 2F00			 MOVE.L	   D0,-(A7)
0000159C 7050			 MOVEQ	   #80,D0			         $50
0000159E 3F00			 MOVE.W	   D0,-(A7)
000015A0 486EFFD0		 PEA	   -48(A6)			         INPUT_FOUR_BYTES
000015A4 486EFF30		 PEA	   -208(A6)			         $FFFFFF30
000015A8 4EB900000000		 JSR	   I.PTSTRV
000015AE 30AEFF38		 MOVE.W	   -200(A6),(A0)		         $FFFFFF38
000015B2 48680002		 PEA	   2(A0)			         $2
000015B6 700A			 MOVEQ	   #10,D0			         $A
000015B8 3F00			 MOVE.W	   D0,-(A7)
000015BA 486EFF3A		 PEA	   -198(A6)			         $FFFFFF3A000015BE 3F2EFF38		 MOVE.W	   -200(A6),-(A7)		         $FFFFFF38
000015C2 4EB900000000		 JSR	   C.MVFF
		      *							       LINE 6/8
000015C8 4E75			 RTS	   
000015CA 5265636F7264 K.28	 DC.B	   'Record encountered before Identification Record.'
		      *
		      *		 Begin subroutine CHECK_ID_FLAG
		      *
000015FA	      B.14
		      *							       LINE 12/13
		      *							       LINE 12/14
000015FA 4A2D0002     L.14.1	 TST.B	   STATIC.+2(A5)		         ID_FLAG
000015FE 662E			 BNE.S	   L.14.3(PC)
		      *							       LINE 12/15
00001600 3D7C0030FE98 L.14.2	 MOVE.W	   #48,-360(A6)			         $30  $FFFFFE98
00001606 486EFE9A		 PEA	   -358(A6)			         $FFFFFE9A
0000160A 3F2EFE98		 MOVE.W	   -360(A6),-(A7)		         $FFFFFE98
0000160E 487AFFBA		 PEA	   K.28(PC)			         CODE.+$15CA
00001612 7030			 MOVEQ	   #48,D0			         $30
00001614 3F00			 MOVE.W	   D0,-(A7)
00001616 4EB900000000		 JSR	   C.MVFF
0000161C 41EEFE98		 LEA	   -360(A6),A0			         $FFFFFE98
00001620 2D48FFBA		 MOVE.L	   A0,-70(A6)			         $FFFFFFBA
00001624 3D7C0030FFB8		 MOVE.W	   #48,-72(A6)			         $30  $FFFFFFB8
0000162A 6100F2B2		 BSR.L	   B.11(PC)			         WARNING = CODE.+$8DE
		      *							       LINE 12/16
0000162E 4E75	      L.14.3	 RTS	   
00001630 5265636F7264 K.29	 DC.B	   'Record encountered after End Record.'
		      *
		      *		 Begin subroutine CHECK_END_FLAG
		      *
00001654	      B.15
		      *							       LINE 12/22
		      *							       LINE 12/23
00001654 4A2D0003     L.15.1	 TST.B	   STATIC.+3(A5)		         END_FLAG
00001658 672E			 BEQ.S	   L.15.3(PC)
		      *							       LINE 12/24
0000165A 3D7C0024FEA4 L.15.2	 MOVE.W	   #36,-348(A6)			         $24  $FFFFFEA4
00001660 486EFEA6		 PEA	   -346(A6)			         $FFFFFEA6
00001664 3F2EFEA4		 MOVE.W	   -348(A6),-(A7)		         $FFFFFEA4
00001668 487AFFC6		 PEA	   K.29(PC)			         CODE.+$1630
0000166C 7024			 MOVEQ	   #36,D0			         $24
0000166E 3F00			 MOVE.W	   D0,-(A7)
00001670 4EB900000000		 JSR	   C.MVFF
00001676 41EEFEA4		 LEA	   -348(A6),A0			         $FFFFFEA40000167A 2D48FFBA		 MOVE.L	   A0,-70(A6)			         $FFFFFFBA
0000167E 3D7C0024FFB8		 MOVE.W	   #36,-72(A6)			         $24  $FFFFFFB8
00001684 6100F258		 BSR.L	   B.11(PC)			         WARNING = CODE.+$8DE
		      *							       LINE 12/25
00001688 4E75	      L.15.3	 RTS	   
		      *
		      *		 Begin subroutine READ_FOUR_BYTES
		      *
0000168A	      B.19
		      *							       LINE 16/11
		      *							       LINE 16/12
0000168A 41EEFF3C     L.19.1	 LEA	   -196(A6),A0			         LOCAL_ONE_BYTE
0000168E 2D48FFFC		 MOVE.L	   A0,-4(A6)			         $FFFFFFFC
00001692 6100EC24		 BSR.L	   B.16(PC)			         READ_ONE_BYTE = CODE.
		      *							       LINE 16/13
00001696 6100F336		 BSR.L	   B.13(PC)			         CHECK_EOF_FLAG = CODE
		      *							       LINE 16/14
0000169A 206EFFD4		 MOVEA.L   -44(A6),A0			         OUTPUT_FOUR_BYTES
0000169E 20AEFF3C		 MOVE.L	   -196(A6),(A0)		         LOCAL_ONE_BYTE
		      *							       LINE 16/15
000016A2 7001	      L.19.2	 MOVEQ	   #1,D0			         $1
000016A4 2D40FF40		 MOVE.L	   D0,-192(A6)			         LOCAL_COUNTER
000016A8	      L.19.3
		      *							       LINE 16/15 (2)
		      *							       LINE 16/16
000016A8 41EEFF3C     L.19.4	 LEA	   -196(A6),A0			         LOCAL_ONE_BYTE
000016AC 2D48FFFC		 MOVE.L	   A0,-4(A6)			         $FFFFFFFC
000016B0 6100EC06		 BSR.L	   B.16(PC)			         READ_ONE_BYTE = CODE.
		      *							       LINE 16/17
000016B4 6100F318		 BSR.L	   B.13(PC)			         CHECK_EOF_FLAG = CODE
		      *							       LINE 16/18
000016B8 206EFFD4		 MOVEA.L   -44(A6),A0			         OUTPUT_FOUR_BYTES
000016BC 226EFFD4		 MOVEA.L   -44(A6),A1			         OUTPUT_FOUR_BYTES
000016C0 2011			 MOVE.L	   (A1),D0
000016C2 E180			 ASL.L	   #8,D0			         $8
000016C4 D0AEFF3C		 ADD.L	   -196(A6),D0			         LOCAL_ONE_BYTE
000016C8 4A80			 TST.L	   D0
000016CA 6C06			 BGE.S	   X.19.3(PC)
000016CC 4EB900000000		 JSR	   E.VALUE
000016D2 2080	      X.19.3	 MOVE.L	   D0,(A0)
		      *							       LINE 16/19
000016D4 202EFF40		 MOVE.L	   -192(A6),D0			         LOCAL_COUNTER
000016D8 5280			 ADDQ.L	   #1,D0			         $1
000016DA 2D40FF40		 MOVE.L	   D0,-192(A6)			         LOCAL_COUNTER
000016DE 7203			 MOVEQ	   #3,D1			         $3000016E0 B081			 CMP.L	   D1,D0
000016E2 6FC4			 BLE.S	   L.19.3(PC)
		      *							       LINE 16/20
000016E4 4E75	      L.19.5	 RTS	   
000016E6	      K.30
000016E6 5374616E6461 K.31	 DC.B	   'Standard relocatable section:'
00001703 00000001		 DS.B	   1
00001704 202020536563 K.32	 DC.B	   '   Section = $'
00001712 202028	      K.33	 DC.B	   '  ('
00001715 00000001		 DS.B	   1
00001716 20202053697A K.34	 DC.B	   '   Size = $'
00001721 00000001		 DS.B	   1
00001722 202028	      K.35	 DC.B	   '  ('
00001725 00000001		 DS.B	   1
00001726 52656C6F6361 K.36	 DC.B	   'Relocatable XDEF:'
00001737 00000001		 DS.B	   1
00001738 202020536563 K.37	 DC.B	   '   Section = $'
00001746 202028	      K.38	 DC.B	   '  ('
00001749 00000001		 DS.B	   1
0000174A 202020584445 K.39	 DC.B	   '   XDEF = ''
00001755 00000001		 DS.B	   1
00001756 202020416464 K.40	 DC.B	   '   Address = $'
00001764 4162736F6C75 K.41	 DC.B	   'Absolute XREF:'
00001772 202020585245 K.42	 DC.B	   '   XREF = ''
0000177D 00000001		 DS.B	   1
0000177E 202020455344 K.43	 DC.B	   '   ESDID = $'
0000178A 202028	      K.44	 DC.B	   '  ('
0000178D 00000001		 DS.B	   1
0000178E 496C6C656761 K.45	 DC.B	   'Illegal ESD record type.'
		      *
		      *		 Begin subroutine PROCESS_ESD_RECORD
		      *
000017A6 2D4FFE52     B.23	 MOVE.L	   A7,X.23.1(A6)
		      *							       LINE 20/16
		      *							       LINE 20/17
000017AA 6100FE4E     L.23.1	 BSR.L	   B.14(PC)			         CHECK_ID_FLAG = CODE.
		      *							       LINE 20/18
000017AE 6100FEA4		 BSR.L	   B.15(PC)			         CHECK_END_FLAG = CODE
		      *							       LINE 20/19
000017B2 426EFE96		 CLR.W	   -362(A6)			         $FFFFFE96
000017B6 41EEFE96		 LEA	   -362(A6),A0			         $FFFFFE96
000017BA 2D48FFDE		 MOVE.L	   A0,-34(A6)			         $FFFFFFDE
000017BE 426EFFDC		 CLR.W	   -36(A6)			         $FFFFFFDC
000017C2 6100E8E6		 BSR.L	   B.4(PC)			         WRITE_STRING = CODE.+
		      *							       LINE 20/20000017C6 41EEFFB4		 LEA	   -76(A6),A0			         LOCAL_ONE_BYTE
000017CA 2D48FFFC		 MOVE.L	   A0,-4(A6)			         $FFFFFFFC
000017CE 6100EAE8		 BSR.L	   B.16(PC)			         READ_ONE_BYTE = CODE.
		      *							       LINE 20/21
000017D2 6100F1FA		 BSR.L	   B.13(PC)			         CHECK_EOF_FLAG = CODE
		      *							       LINE 20/22
000017D6 202EFFB4		 MOVE.L	   -76(A6),D0			         LOCAL_ONE_BYTE
000017DA E888			 LSR.L	   #4,D0			         $4
000017DC 5580			 SUBQ.L	   #2,D0			         $2
000017DE 6D0005BC		 BLT.L	   L.23.8(PC)
000017E2 0C8000000005		 CMPI.L	   #5,D0			         $5
000017E8 6E0005B2		 BGT.L	   L.23.8(PC)
000017EC D040			 ADD.W	   D0,D0
000017EE 303B0006		 MOVE.W	   X.23.3(PC,D0.W),D0
000017F2 4EFB0002		 JMP	   X.23.3(PC,D0.W)
000017F6 0000	      X.23.3	 DC.W	   L.23.2-*
000017F8 0000			 DC.W	   L.23.8+2-*
000017FA 0000			 DC.W	   L.23.4+4-*
000017FC 0000			 DC.W	   L.23.8+6-*
000017FE 0000			 DC.W	   L.23.8+8-*
00001800 0000			 DC.W	   L.23.6+10-*
00001802	      L.23.2
		      *							       LINE 20/24
		      *							       LINE 20/25
00001802 3D7C001DFE78 L.23.3	 MOVE.W	   #29,-392(A6)			         $1D  $FFFFFE78
00001808 486EFE7A		 PEA	   -390(A6)			         $FFFFFE7A
0000180C 3F2EFE78		 MOVE.W	   -392(A6),-(A7)		         $FFFFFE78
00001810 487AFED4		 PEA	   K.31(PC)			         CODE.+$16E6
00001814 701D			 MOVEQ	   #29,D0			         $1D
00001816 3F00			 MOVE.W	   D0,-(A7)
00001818 4EB900000000		 JSR	   C.MVFF
0000181E 41EEFE78		 LEA	   -392(A6),A0			         $FFFFFE78
00001822 2D48FFDE		 MOVE.L	   A0,-34(A6)			         $FFFFFFDE
00001826 3D7C001DFFDC		 MOVE.W	   #29,-36(A6)			         $1D  $FFFFFFDC
0000182C 6100E87C		 BSR.L	   B.4(PC)			         WRITE_STRING = CODE.+
		      *							       LINE 20/26
00001830 202EFFB4		 MOVE.L	   -76(A6),D0			         LOCAL_ONE_BYTE
00001834 C07C000F		 AND.W	   #15,D0			         $F
00001838 4A00			 TST.B	   D0
0000183A 6C06			 BGE.S	   X.23.4(PC)
0000183C 4EB900000000 X.23.5	 JSR	   E.VALUE
00001842 0C0000FF     X.23.4	 CMPI.B	   #255,D0			         $FF
00001846 62F4			 BHI.S	   X.23.5(PC)
00001848 48C0			 EXT.L	   D0
0000184A 2D40FFE6		 MOVE.L	   D0,-26(A6)			         $FFFFFFE60000184E 41EEFE8C		 LEA	   -372(A6),A0			         $FFFFFE8C
00001852 2D48FFE2		 MOVE.L	   A0,-30(A6)			         $FFFFFFE2
00001856 6100E8B4		 BSR.L	   B.5(PC)			         CONVERT_ONE_BYTE = CO
0000185A 302EFE8C		 MOVE.W	   -372(A6),D0			         $FFFFFE8C
0000185E 42AEFFF2		 CLR.L	   -14(A6)			         $FFFFFFF2
00001862 222EFFB4		 MOVE.L	   -76(A6),D1			         LOCAL_ONE_BYTE
00001866 C27C000F		 AND.W	   #15,D1			         $F
0000186A 48C1			 EXT.L	   D1
0000186C 2D41FFEE		 MOVE.L	   D1,-18(A6)			         $FFFFFFEE
00001870 41EEFE80		 LEA	   -384(A6),A0			         $FFFFFE80
00001874 2D48FFEA		 MOVE.L	   A0,-22(A6)			         $FFFFFFEA
00001878 2D40FE7C		 MOVE.L	   D0,-388(A6)			         $FFFFFE7C
0000187C 6100E8DA		 BSR.L	   B.9(PC)			         CONVERT_DECIMAL = COD
00001880 202EFE7C		 MOVE.L	   -388(A6),D0			         $FFFFFE7C
00001884 D06EFE80		 ADD.W	   -384(A6),D0			         $FFFFFE80
00001888 D07C0012		 ADD.W	   #18,D0			         $12
0000188C 486EFE56		 PEA	   -426(A6)			         $FFFFFE56
00001890 7226			 MOVEQ	   #38,D1			         $26
00001892 3F01			 MOVE.W	   D1,-(A7)
00001894 487AFE6E		 PEA	   K.32(PC)			         CODE.+$1704
00001898 720E			 MOVEQ	   #14,D1			         $E
0000189A 3F01			 MOVE.W	   D1,-(A7)
0000189C 4EB900000000		 JSR	   C.MVFF
000018A2 486EFE8E		 PEA	   -370(A6)			         $FFFFFE8E
000018A6 3F2EFE8C		 MOVE.W	   -372(A6),-(A7)		         $FFFFFE8C
000018AA 4EB900000000		 JSR	   C.MVFR
000018B0 487AFE60		 PEA	   K.33(PC)			         CODE.+$1712
000018B4 7203			 MOVEQ	   #3,D1			         $3
000018B6 3F01			 MOVE.W	   D1,-(A7)
000018B8 4EB900000000		 JSR	   C.MVFR
000018BE 486EFE82		 PEA	   -382(A6)			         $FFFFFE82
000018C2 3F2EFE80		 MOVE.W	   -384(A6),-(A7)		         $FFFFFE80
000018C6 4EB900000000		 JSR	   C.MVFR
000018CC 7229			 MOVEQ	   #41,D1			         $29
000018CE 1F01			 MOVE.B	   D1,-(A7)
000018D0 4EB900000000		 JSR	   C.MVCR
000018D6 3200			 MOVE.W	   D0,D1
000018D8 5441			 ADDQ.W	   #2,D1			         $2
000018DA 4841			 SWAP	   D1
000018DC 4241			 CLR.W	   D1
000018DE 4841			 SWAP	   D1
000018E0 2F01			 MOVE.L	   D1,-(A7)
000018E2 4EB900000000		 JSR	   M.DYNTMB
000018E8 204F			 MOVEA.L   A7,A0
000018EA 3080			 MOVE.W	   D0,(A0)000018EC 48680002		 PEA	   2(A0)			         $2
000018F0 3F10			 MOVE.W	   (A0),-(A7)
000018F2 486EFE56		 PEA	   -426(A6)			         $FFFFFE56
000018F6 3F00			 MOVE.W	   D0,-(A7)
000018F8 4EB900000000		 JSR	   C.MVFF
000018FE 2D48FFDE		 MOVE.L	   A0,-34(A6)			         $FFFFFFDE
00001902 3D40FFDC		 MOVE.W	   D0,-36(A6)			         $FFFFFFDC
00001906 6100E7A2		 BSR.L	   B.4(PC)			         WRITE_STRING = CODE.+
		      *							       LINE 20/31
0000190A 41EEFFB0		 LEA	   -80(A6),A0			         LOCAL_FOUR_BYTES
0000190E 2D48FFD4		 MOVE.L	   A0,-44(A6)			         $FFFFFFD4
00001912 6100FD76		 BSR.L	   B.19(PC)			         READ_FOUR_BYTES = COD
		      *							       LINE 20/32
00001916 2D6EFFB0FFD0		 MOVE.L	   -80(A6),-48(A6)		         LOCAL_FOUR_BYTES  $FF
0000191C 41EEFE8C		 LEA	   -372(A6),A0			         $FFFFFE8C
00001920 2D48FFCC		 MOVE.L	   A0,-52(A6)			         $FFFFFFCC
00001924 6100FC58		 BSR.L	   B.8(PC)			         CONVERT_FOUR_BYTES = 
00001928 302EFE8C		 MOVE.W	   -372(A6),D0			         $FFFFFE8C
0000192C 42AEFFF2		 CLR.L	   -14(A6)			         $FFFFFFF2
00001930 222EFFB0		 MOVE.L	   -80(A6),D1			         LOCAL_FOUR_BYTES
00001934 0C817FFFFFFF		 CMPI.L	   #2147483647,D1		         $7FFFFFFF
0000193A 6F06			 BLE.S	   X.23.6(PC)
0000193C 4EB900000000		 JSR	   E.VALUE
00001942 2D41FFEE     X.23.6	 MOVE.L	   D1,-18(A6)			         $FFFFFFEE
00001946 41EEFE80		 LEA	   -384(A6),A0			         $FFFFFE80
0000194A 2D48FFEA		 MOVE.L	   A0,-22(A6)			         $FFFFFFEA
0000194E 2D40FE7C		 MOVE.L	   D0,-388(A6)			         $FFFFFE7C
00001952 6100E804		 BSR.L	   B.9(PC)			         CONVERT_DECIMAL = COD
00001956 202EFE7C		 MOVE.L	   -388(A6),D0			         $FFFFFE7C
0000195A D06EFE80		 ADD.W	   -384(A6),D0			         $FFFFFE80
0000195E D07C000F		 ADD.W	   #15,D0			         $F
00001962 486EFE58		 PEA	   -424(A6)			         $FFFFFE58
00001966 7223			 MOVEQ	   #35,D1			         $23
00001968 3F01			 MOVE.W	   D1,-(A7)
0000196A 487AFDAA		 PEA	   K.34(PC)			         CODE.+$1716
0000196E 720B			 MOVEQ	   #11,D1			         $B
00001970 3F01			 MOVE.W	   D1,-(A7)
00001972 4EB900000000		 JSR	   C.MVFF
00001978 486EFE8E		 PEA	   -370(A6)			         $FFFFFE8E
0000197C 3F2EFE8C		 MOVE.W	   -372(A6),-(A7)		         $FFFFFE8C
00001980 4EB900000000		 JSR	   C.MVFR
00001986 487AFD9A		 PEA	   K.35(PC)			         CODE.+$1722
0000198A 7203			 MOVEQ	   #3,D1			         $3
0000198C 3F01			 MOVE.W	   D1,-(A7)
0000198E 4EB900000000		 JSR	   C.MVFR00001994 486EFE82		 PEA	   -382(A6)			         $FFFFFE82
00001998 3F2EFE80		 MOVE.W	   -384(A6),-(A7)		         $FFFFFE80
0000199C 4EB900000000		 JSR	   C.MVFR
000019A2 7229			 MOVEQ	   #41,D1			         $29
000019A4 1F01			 MOVE.B	   D1,-(A7)
000019A6 4EB900000000		 JSR	   C.MVCR
000019AC 3200			 MOVE.W	   D0,D1
000019AE 5441			 ADDQ.W	   #2,D1			         $2
000019B0 4841			 SWAP	   D1
000019B2 4241			 CLR.W	   D1
000019B4 4841			 SWAP	   D1
000019B6 2F01			 MOVE.L	   D1,-(A7)
000019B8 4EB900000000		 JSR	   M.DYNTMB
000019BE 204F			 MOVEA.L   A7,A0
000019C0 3080			 MOVE.W	   D0,(A0)
000019C2 48680002		 PEA	   2(A0)			         $2
000019C6 3F10			 MOVE.W	   (A0),-(A7)
000019C8 486EFE58		 PEA	   -424(A6)			         $FFFFFE58
000019CC 3F00			 MOVE.W	   D0,-(A7)
000019CE 4EB900000000		 JSR	   C.MVFF
000019D4 2D48FFDE		 MOVE.L	   A0,-34(A6)			         $FFFFFFDE
000019D8 3D40FFDC		 MOVE.W	   D0,-36(A6)			         $FFFFFFDC
000019DC 6100E6CC		 BSR.L	   B.4(PC)			         WRITE_STRING = CODE.+
		      *							       LINE 20/37
000019E0 600003E8		 BRA.L	   L.23.9(PC)
000019E4	      L.23.4
		      *							       LINE 20/39
		      *							       LINE 20/40
000019E4 3D7C0011FE84 L.23.5	 MOVE.W	   #17,-380(A6)			         $11  $FFFFFE84
000019EA 486EFE86		 PEA	   -378(A6)			         $FFFFFE86
000019EE 3F2EFE84		 MOVE.W	   -380(A6),-(A7)		         $FFFFFE84
000019F2 487AFD32		 PEA	   K.36(PC)			         CODE.+$1726
000019F6 7011			 MOVEQ	   #17,D0			         $11
000019F8 3F00			 MOVE.W	   D0,-(A7)
000019FA 4EB900000000		 JSR	   C.MVFF
00001A00 41EEFE84		 LEA	   -380(A6),A0			         $FFFFFE84
00001A04 2D48FFDE		 MOVE.L	   A0,-34(A6)			         $FFFFFFDE
00001A08 3D7C0011FFDC		 MOVE.W	   #17,-36(A6)			         $11  $FFFFFFDC
00001A0E 6100E69A		 BSR.L	   B.4(PC)			         WRITE_STRING = CODE.+
		      *							       LINE 20/41
00001A12 202EFFB4		 MOVE.L	   -76(A6),D0			         LOCAL_ONE_BYTE
00001A16 C07C000F		 AND.W	   #15,D0			         $F
00001A1A 4A00			 TST.B	   D0
00001A1C 6C06			 BGE.S	   X.23.7(PC)
00001A1E 4EB900000000 X.23.8	 JSR	   E.VALUE00001A24 0C0000FF     X.23.7	 CMPI.B	   #255,D0			         $FF
00001A28 62F4			 BHI.S	   X.23.8(PC)
00001A2A 48C0			 EXT.L	   D0
00001A2C 2D40FFE6		 MOVE.L	   D0,-26(A6)			         $FFFFFFE6
00001A30 41EEFE8C		 LEA	   -372(A6),A0			         $FFFFFE8C
00001A34 2D48FFE2		 MOVE.L	   A0,-30(A6)			         $FFFFFFE2
00001A38 6100E6D2		 BSR.L	   B.5(PC)			         CONVERT_ONE_BYTE = CO
00001A3C 302EFE8C		 MOVE.W	   -372(A6),D0			         $FFFFFE8C
00001A40 42AEFFF2		 CLR.L	   -14(A6)			         $FFFFFFF2
00001A44 222EFFB4		 MOVE.L	   -76(A6),D1			         LOCAL_ONE_BYTE
00001A48 C27C000F		 AND.W	   #15,D1			         $F
00001A4C 48C1			 EXT.L	   D1
00001A4E 2D41FFEE		 MOVE.L	   D1,-18(A6)			         $FFFFFFEE
00001A52 41EEFE80		 LEA	   -384(A6),A0			         $FFFFFE80
00001A56 2D48FFEA		 MOVE.L	   A0,-22(A6)			         $FFFFFFEA
00001A5A 2D40FE7C		 MOVE.L	   D0,-388(A6)			         $FFFFFE7C
00001A5E 6100E6F8		 BSR.L	   B.9(PC)			         CONVERT_DECIMAL = COD
00001A62 202EFE7C		 MOVE.L	   -388(A6),D0			         $FFFFFE7C
00001A66 D06EFE80		 ADD.W	   -384(A6),D0			         $FFFFFE80
00001A6A D07C0012		 ADD.W	   #18,D0			         $12
00001A6E 486EFE56		 PEA	   -426(A6)			         $FFFFFE56
00001A72 7226			 MOVEQ	   #38,D1			         $26
00001A74 3F01			 MOVE.W	   D1,-(A7)
00001A76 487AFCC0		 PEA	   K.37(PC)			         CODE.+$1738
00001A7A 720E			 MOVEQ	   #14,D1			         $E
00001A7C 3F01			 MOVE.W	   D1,-(A7)
00001A7E 4EB900000000		 JSR	   C.MVFF
00001A84 486EFE8E		 PEA	   -370(A6)			         $FFFFFE8E
00001A88 3F2EFE8C		 MOVE.W	   -372(A6),-(A7)		         $FFFFFE8C
00001A8C 4EB900000000		 JSR	   C.MVFR
00001A92 487AFCB2		 PEA	   K.38(PC)			         CODE.+$1746
00001A96 7203			 MOVEQ	   #3,D1			         $3
00001A98 3F01			 MOVE.W	   D1,-(A7)
00001A9A 4EB900000000		 JSR	   C.MVFR
00001AA0 486EFE82		 PEA	   -382(A6)			         $FFFFFE82
00001AA4 3F2EFE80		 MOVE.W	   -384(A6),-(A7)		         $FFFFFE80
00001AA8 4EB900000000		 JSR	   C.MVFR
00001AAE 7229			 MOVEQ	   #41,D1			         $29
00001AB0 1F01			 MOVE.B	   D1,-(A7)
00001AB2 4EB900000000		 JSR	   C.MVCR
00001AB8 3200			 MOVE.W	   D0,D1
00001ABA 5441			 ADDQ.W	   #2,D1			         $2
00001ABC 4841			 SWAP	   D1
00001ABE 4241			 CLR.W	   D1
00001AC0 4841			 SWAP	   D100001AC2 2F01			 MOVE.L	   D1,-(A7)
00001AC4 4EB900000000		 JSR	   M.DYNTMB
00001ACA 204F			 MOVEA.L   A7,A0
00001ACC 3080			 MOVE.W	   D0,(A0)
00001ACE 48680002		 PEA	   2(A0)			         $2
00001AD2 3F10			 MOVE.W	   (A0),-(A7)
00001AD4 486EFE56		 PEA	   -426(A6)			         $FFFFFE56
00001AD8 3F00			 MOVE.W	   D0,-(A7)
00001ADA 4EB900000000		 JSR	   C.MVFF
00001AE0 2D48FFDE		 MOVE.L	   A0,-34(A6)			         $FFFFFFDE
00001AE4 3D40FFDC		 MOVE.W	   D0,-36(A6)			         $FFFFFFDC
00001AE8 6100E5C0		 BSR.L	   B.4(PC)			         WRITE_STRING = CODE.+
		      *							       LINE 20/46
00001AEC 41EEFFA4		 LEA	   -92(A6),A0			         LOCAL_STRING
00001AF0 2D48FFC8		 MOVE.L	   A0,-56(A6)			         $FFFFFFC8
00001AF4 3D7C000AFFC6		 MOVE.W	   #10,-58(A6)			         $A  $FFFFFFC6
00001AFA 2D7C0000000A		 MOVE.L	   #10,-62(A6)			         $A  $FFFFFFC2
	 FFC2
00001B02 6100EF4A		 BSR.L	   B.20(PC)			         READ_STRING = CODE.+$
		      *							       LINE 20/47
00001B06 302EFFA4		 MOVE.W	   -92(A6),D0			         LOCAL_STRING
00001B0A D07C000C		 ADD.W	   #12,D0			         $C
00001B0E 486EFE82		 PEA	   -382(A6)			         $FFFFFE82
00001B12 7216			 MOVEQ	   #22,D1			         $16
00001B14 3F01			 MOVE.W	   D1,-(A7)
00001B16 487AFC32		 PEA	   K.39(PC)			         CODE.+$174A
00001B1A 720B			 MOVEQ	   #11,D1			         $B
00001B1C 3F01			 MOVE.W	   D1,-(A7)
00001B1E 4EB900000000		 JSR	   C.MVFF
00001B24 486EFFA6		 PEA	   -92+2(A6)			         LOCAL_STRING
00001B28 3F2EFFA4		 MOVE.W	   -92(A6),-(A7)		         LOCAL_STRING
00001B2C 4EB900000000		 JSR	   C.MVFR
00001B32 7227			 MOVEQ	   #39,D1			         $27
00001B34 1F01			 MOVE.B	   D1,-(A7)
00001B36 4EB900000000		 JSR	   C.MVCR
00001B3C 3200			 MOVE.W	   D0,D1
00001B3E 5441			 ADDQ.W	   #2,D1			         $2
00001B40 4841			 SWAP	   D1
00001B42 4241			 CLR.W	   D1
00001B44 4841			 SWAP	   D1
00001B46 2F01			 MOVE.L	   D1,-(A7)
00001B48 4EB900000000		 JSR	   M.DYNTMB
00001B4E 204F			 MOVEA.L   A7,A0
00001B50 3080			 MOVE.W	   D0,(A0)
00001B52 48680002		 PEA	   2(A0)			         $200001B56 3F10			 MOVE.W	   (A0),-(A7)
00001B58 486EFE82		 PEA	   -382(A6)			         $FFFFFE82
00001B5C 3F00			 MOVE.W	   D0,-(A7)
00001B5E 4EB900000000		 JSR	   C.MVFF
00001B64 2D48FFDE		 MOVE.L	   A0,-34(A6)			         $FFFFFFDE
00001B68 3D40FFDC		 MOVE.W	   D0,-36(A6)			         $FFFFFFDC
00001B6C 6100E53C		 BSR.L	   B.4(PC)			         WRITE_STRING = CODE.+
		      *							       LINE 20/48
00001B70 41EEFFB0		 LEA	   -80(A6),A0			         LOCAL_FOUR_BYTES
00001B74 2D48FFD4		 MOVE.L	   A0,-44(A6)			         $FFFFFFD4
00001B78 6100FB10		 BSR.L	   B.19(PC)			         READ_FOUR_BYTES = COD
		      *							       LINE 20/49
00001B7C 2D6EFFB0FFD0		 MOVE.L	   -80(A6),-48(A6)		         LOCAL_FOUR_BYTES  $FF
00001B82 41EEFE8C		 LEA	   -372(A6),A0			         $FFFFFE8C
00001B86 2D48FFCC		 MOVE.L	   A0,-52(A6)			         $FFFFFFCC
00001B8A 6100F9F2		 BSR.L	   B.8(PC)			         CONVERT_FOUR_BYTES = 
00001B8E 302EFE8C		 MOVE.W	   -372(A6),D0			         $FFFFFE8C
00001B92 D07C000E		 ADD.W	   #14,D0			         $E
00001B96 486EFE74		 PEA	   -396(A6)			         $FFFFFE74
00001B9A 7218			 MOVEQ	   #24,D1			         $18
00001B9C 3F01			 MOVE.W	   D1,-(A7)
00001B9E 487AFBB6		 PEA	   K.40(PC)			         CODE.+$1756
00001BA2 720E			 MOVEQ	   #14,D1			         $E
00001BA4 3F01			 MOVE.W	   D1,-(A7)
00001BA6 4EB900000000		 JSR	   C.MVFF
00001BAC 486EFE8E		 PEA	   -370(A6)			         $FFFFFE8E
00001BB0 3F2EFE8C		 MOVE.W	   -372(A6),-(A7)		         $FFFFFE8C
00001BB4 4EB900000000		 JSR	   C.MVFR
00001BBA 3200			 MOVE.W	   D0,D1
00001BBC 5441			 ADDQ.W	   #2,D1			         $2
00001BBE 4841			 SWAP	   D1
00001BC0 4241			 CLR.W	   D1
00001BC2 4841			 SWAP	   D1
00001BC4 2F01			 MOVE.L	   D1,-(A7)
00001BC6 4EB900000000		 JSR	   M.DYNTMB
00001BCC 204F			 MOVEA.L   A7,A0
00001BCE 3080			 MOVE.W	   D0,(A0)
00001BD0 48680002		 PEA	   2(A0)			         $2
00001BD4 3F10			 MOVE.W	   (A0),-(A7)
00001BD6 486EFE74		 PEA	   -396(A6)			         $FFFFFE74
00001BDA 3F00			 MOVE.W	   D0,-(A7)
00001BDC 4EB900000000		 JSR	   C.MVFF
00001BE2 2D48FFDE		 MOVE.L	   A0,-34(A6)			         $FFFFFFDE
00001BE6 3D40FFDC		 MOVE.W	   D0,-36(A6)			         $FFFFFFDC
00001BEA 6100E4BE		 BSR.L	   B.4(PC)			         WRITE_STRING = CODE.+		      *							       LINE 20/51
00001BEE 600001DA		 BRA.L	   L.23.9(PC)
00001BF2	      L.23.6
		      *							       LINE 20/53
		      *							       LINE 20/54
00001BF2 3D7C000EFE88 L.23.7	 MOVE.W	   #14,-376(A6)			         $E  $FFFFFE88
00001BF8 486EFE8A		 PEA	   -374(A6)			         $FFFFFE8A
00001BFC 3F2EFE88		 MOVE.W	   -376(A6),-(A7)		         $FFFFFE88
00001C00 487AFB62		 PEA	   K.41(PC)			         CODE.+$1764
00001C04 700E			 MOVEQ	   #14,D0			         $E
00001C06 3F00			 MOVE.W	   D0,-(A7)
00001C08 4EB900000000		 JSR	   C.MVFF
00001C0E 41EEFE88		 LEA	   -376(A6),A0			         $FFFFFE88
00001C12 2D48FFDE		 MOVE.L	   A0,-34(A6)			         $FFFFFFDE
00001C16 3D7C000EFFDC		 MOVE.W	   #14,-36(A6)			         $E  $FFFFFFDC
00001C1C 6100E48C		 BSR.L	   B.4(PC)			         WRITE_STRING = CODE.+
		      *							       LINE 20/55
00001C20 41EEFFA4		 LEA	   -92(A6),A0			         LOCAL_STRING
00001C24 2D48FFC8		 MOVE.L	   A0,-56(A6)			         $FFFFFFC8
00001C28 3D7C000AFFC6		 MOVE.W	   #10,-58(A6)			         $A  $FFFFFFC6
00001C2E 2D7C0000000A		 MOVE.L	   #10,-62(A6)			         $A  $FFFFFFC2
	 FFC2
00001C36 6100EE16		 BSR.L	   B.20(PC)			         READ_STRING = CODE.+$
		      *							       LINE 20/56
00001C3A 302EFFA4		 MOVE.W	   -92(A6),D0			         LOCAL_STRING
00001C3E D07C000C		 ADD.W	   #12,D0			         $C
00001C42 486EFE82		 PEA	   -382(A6)			         $FFFFFE82
00001C46 7216			 MOVEQ	   #22,D1			         $16
00001C48 3F01			 MOVE.W	   D1,-(A7)
00001C4A 487AFB26		 PEA	   K.42(PC)			         CODE.+$1772
00001C4E 720B			 MOVEQ	   #11,D1			         $B
00001C50 3F01			 MOVE.W	   D1,-(A7)
00001C52 4EB900000000		 JSR	   C.MVFF
00001C58 486EFFA6		 PEA	   -92+2(A6)			         LOCAL_STRING
00001C5C 3F2EFFA4		 MOVE.W	   -92(A6),-(A7)		         LOCAL_STRING
00001C60 4EB900000000		 JSR	   C.MVFR
00001C66 7227			 MOVEQ	   #39,D1			         $27
00001C68 1F01			 MOVE.B	   D1,-(A7)
00001C6A 4EB900000000		 JSR	   C.MVCR
00001C70 3200			 MOVE.W	   D0,D1
00001C72 5441			 ADDQ.W	   #2,D1			         $2
00001C74 4841			 SWAP	   D1
00001C76 4241			 CLR.W	   D1
00001C78 4841			 SWAP	   D1
00001C7A 2F01			 MOVE.L	   D1,-(A7)00001C7C 4EB900000000		 JSR	   M.DYNTMB
00001C82 204F			 MOVEA.L   A7,A0
00001C84 3080			 MOVE.W	   D0,(A0)
00001C86 48680002		 PEA	   2(A0)			         $2
00001C8A 3F10			 MOVE.W	   (A0),-(A7)
00001C8C 486EFE82		 PEA	   -382(A6)			         $FFFFFE82
00001C90 3F00			 MOVE.W	   D0,-(A7)
00001C92 4EB900000000		 JSR	   C.MVFF
00001C98 2D48FFDE		 MOVE.L	   A0,-34(A6)			         $FFFFFFDE
00001C9C 3D40FFDC		 MOVE.W	   D0,-36(A6)			         $FFFFFFDC
00001CA0 6100E408		 BSR.L	   B.4(PC)			         WRITE_STRING = CODE.+
		      *							       LINE 20/57
00001CA4 2D6D0004FFE6		 MOVE.L	   STATIC.+4(A5),-26(A6)	         CURRENT_ESDID  $FFFFF
00001CAA 41EEFE8C		 LEA	   -372(A6),A0			         $FFFFFE8C
00001CAE 2D48FFE2		 MOVE.L	   A0,-30(A6)			         $FFFFFFE2
00001CB2 6100E458		 BSR.L	   B.5(PC)			         CONVERT_ONE_BYTE = CO
00001CB6 302EFE8C		 MOVE.W	   -372(A6),D0			         $FFFFFE8C
00001CBA 42AEFFF2		 CLR.L	   -14(A6)			         $FFFFFFF2
00001CBE 2D6D0004FFEE		 MOVE.L	   STATIC.+4(A5),-18(A6)	         CURRENT_ESDID  $FFFFF
00001CC4 41EEFE80		 LEA	   -384(A6),A0			         $FFFFFE80
00001CC8 2D48FFEA		 MOVE.L	   A0,-22(A6)			         $FFFFFFEA
00001CCC 2D40FE7C		 MOVE.L	   D0,-388(A6)			         $FFFFFE7C
00001CD0 6100E486		 BSR.L	   B.9(PC)			         CONVERT_DECIMAL = COD
00001CD4 202EFE7C		 MOVE.L	   -388(A6),D0			         $FFFFFE7C
00001CD8 D06EFE80		 ADD.W	   -384(A6),D0			         $FFFFFE80
00001CDC D07C0010		 ADD.W	   #16,D0			         $10
00001CE0 486EFE58		 PEA	   -424(A6)			         $FFFFFE58
00001CE4 7224			 MOVEQ	   #36,D1			         $24
00001CE6 3F01			 MOVE.W	   D1,-(A7)
00001CE8 487AFA94		 PEA	   K.43(PC)			         CODE.+$177E
00001CEC 720C			 MOVEQ	   #12,D1			         $C
00001CEE 3F01			 MOVE.W	   D1,-(A7)
00001CF0 4EB900000000		 JSR	   C.MVFF
00001CF6 486EFE8E		 PEA	   -370(A6)			         $FFFFFE8E
00001CFA 3F2EFE8C		 MOVE.W	   -372(A6),-(A7)		         $FFFFFE8C
00001CFE 4EB900000000		 JSR	   C.MVFR
00001D04 487AFA84		 PEA	   K.44(PC)			         CODE.+$178A
00001D08 7203			 MOVEQ	   #3,D1			         $3
00001D0A 3F01			 MOVE.W	   D1,-(A7)
00001D0C 4EB900000000		 JSR	   C.MVFR
00001D12 486EFE82		 PEA	   -382(A6)			         $FFFFFE82
00001D16 3F2EFE80		 MOVE.W	   -384(A6),-(A7)		         $FFFFFE80
00001D1A 4EB900000000		 JSR	   C.MVFR
00001D20 7229			 MOVEQ	   #41,D1			         $29
00001D22 1F01			 MOVE.B	   D1,-(A7)00001D24 4EB900000000		 JSR	   C.MVCR
00001D2A 3200			 MOVE.W	   D0,D1
00001D2C 5441			 ADDQ.W	   #2,D1			         $2
00001D2E 4841			 SWAP	   D1
00001D30 4241			 CLR.W	   D1
00001D32 4841			 SWAP	   D1
00001D34 2F01			 MOVE.L	   D1,-(A7)
00001D36 4EB900000000		 JSR	   M.DYNTMB
00001D3C 204F			 MOVEA.L   A7,A0
00001D3E 3080			 MOVE.W	   D0,(A0)
00001D40 48680002		 PEA	   2(A0)			         $2
00001D44 3F10			 MOVE.W	   (A0),-(A7)
00001D46 486EFE58		 PEA	   -424(A6)			         $FFFFFE58
00001D4A 3F00			 MOVE.W	   D0,-(A7)
00001D4C 4EB900000000		 JSR	   C.MVFF
00001D52 2D48FFDE		 MOVE.L	   A0,-34(A6)			         $FFFFFFDE
00001D56 3D40FFDC		 MOVE.W	   D0,-36(A6)			         $FFFFFFDC
00001D5A 6100E34E		 BSR.L	   B.4(PC)			         WRITE_STRING = CODE.+
		      *							       LINE 20/63
00001D5E 202D0004		 MOVE.L	   STATIC.+4(A5),D0		         CURRENT_ESDID
00001D62 E940			 ASL.W	   #4,D0			         $4
00001D64 41ED000C		 LEA	   STATIC.+284-272(A5),A0	         ESDID_ARRAY
00001D68 322EFFA4		 MOVE.W	   -92(A6),D1			         LOCAL_STRING
00001D6C 43EEFFA4		 LEA	   -92(A6),A1			         LOCAL_STRING
00001D70 41F00000		 LEA	   0(A0,D0.W),A0		         $0
00001D74 5241			 ADDQ.W	   #1,D1			         $1
00001D76 E249			 LSR.W	   #1,D1			         $1
00001D78 30D9	      X.23.9	 MOVE.W	   (A1)+,(A0)+
00001D7A 51C9FFFC		 DBF	   D1,X.23.9(PC)
		      *							       LINE 20/65
00001D7E 202D0004		 MOVE.L	   STATIC.+4(A5),D0		         CURRENT_ESDID
00001D82 5280			 ADDQ.L	   #1,D0			         $1
00001D84 7211			 MOVEQ	   #17,D1			         $11
00001D86 B041			 CMP.W	   D1,D0
00001D88 6C06			 BGE.S	   X.23.10(PC)
00001D8A 4EB900000000 X.23.11	 JSR	   E.VALUE
00001D90 0C4000FF     X.23.10	 CMPI.W	   #255,D0			         $FF
00001D94 6EF4			 BGT.S	   X.23.11(PC)
00001D96 2B400004		 MOVE.L	   D0,STATIC.+4(A5)		         CURRENT_ESDID
		      *							       LINE 20/66
00001D9A 602E			 BRA.S	   L.23.9(PC)
		      *							       LINE 20/68
00001D9C 3D7C0018FE7E L.23.8	 MOVE.W	   #24,-386(A6)			         $18  $FFFFFE7E
00001DA2 486EFE80		 PEA	   -384(A6)			         $FFFFFE80
00001DA6 3F2EFE7E		 MOVE.W	   -386(A6),-(A7)		         $FFFFFE7E00001DAA 487AF9E2		 PEA	   K.45(PC)			         CODE.+$178E
00001DAE 7018			 MOVEQ	   #24,D0			         $18
00001DB0 3F00			 MOVE.W	   D0,-(A7)
00001DB2 4EB900000000		 JSR	   C.MVFF
00001DB8 41EEFE7E		 LEA	   -386(A6),A0			         $FFFFFE7E
00001DBC 2D48FFF8		 MOVE.L	   A0,-8(A6)			         $FFFFFFF8
00001DC0 3D7C0018FFF6		 MOVE.W	   #24,-10(A6)			         $18  $FFFFFFF6
00001DC6 6100E40C		 BSR.L	   B.12(PC)			         ERROR = CODE.+$1D4
00001DCA 2E6EFE52     L.23.9	 MOVEA.L   X.23.1(A6),A7
		      *							       LINE 20/71
00001DCE 4E75			 RTS	   
		      *
		      *		 Begin subroutine GET_BITS
		      *
00001DD0	      B.24
		      *							       LINE 21/14
		      *							       LINE 21/15
00001DD0 206EFF74     L.24.1	 MOVEA.L   -140(A6),A0			         GET_BITS
00001DD4 7000			 MOVEQ	   #0,D0			         $0
00001DD6 2080			 MOVE.L	   D0,(A0)
		      *							       LINE 21/16
00001DD8 2D6EFF78FF38		 MOVE.L	   -136(A6),-200(A6)		         INPUT_BYTE  LOCAL_BYT
		      *							       LINE 21/17
00001DDE 7000	      L.24.2	 MOVEQ	   #0,D0			         $0
00001DE0 2D40FF40		 MOVE.L	   D0,-192(A6)			         LOCAL_COUNTER
00001DE4	      L.24.3
		      *							       LINE 21/17 (2)
		      *							       LINE 21/18
00001DE4 202EFF38     L.24.4	 MOVE.L	   -200(A6),D0			         LOCAL_BYTE
00001DE8 C07C0001		 AND.W	   #1,D0			         $1
00001DEC 4A00			 TST.B	   D0
00001DEE 6C06			 BGE.S	   X.24.3(PC)
00001DF0 4EB900000000 X.24.4	 JSR	   E.VALUE
00001DF6 7201	      X.24.3	 MOVEQ	   #1,D1			         $1
00001DF8 B001			 CMP.B	   D1,D0
00001DFA 6EF4			 BGT.S	   X.24.4(PC)
00001DFC 48C0			 EXT.L	   D0
00001DFE 2D40FF3C		 MOVE.L	   D0,-196(A6)			         LOCAL_BIT
		      *							       LINE 21/19
00001E02 202EFF38		 MOVE.L	   -200(A6),D0			         LOCAL_BYTE
00001E06 E288			 LSR.L	   #1,D0			         $1
00001E08 4A80			 TST.L	   D0
00001E0A 6C06			 BGE.S	   X.24.5(PC)
00001E0C 4EB900000000 X.24.6	 JSR	   E.VALUE
00001E12 0C80000000FF X.24.5	 CMPI.L	   #255,D0			         $FF00001E18 6EF2			 BGT.S	   X.24.6(PC)
00001E1A 2D40FF38		 MOVE.L	   D0,-200(A6)			         LOCAL_BYTE
		      *							       LINE 21/20
00001E1E 202EFF40		 MOVE.L	   -192(A6),D0			         LOCAL_COUNTER
00001E22 B0AEFF7C		 CMP.L	   -132(A6),D0			         INPUT_LAST_BIT
00001E26 6D4C			 BLT.S	   L.24.7(PC)
00001E28 202EFF7C     L.24.5	 MOVE.L	   -132(A6),D0			         INPUT_LAST_BIT
00001E2C D0AEFF80		 ADD.L	   -128(A6),D0			         INPUT_NUMBER_BITS
00001E30 B0AEFF40		 CMP.L	   -192(A6),D0			         LOCAL_COUNTER
00001E34 6F3E			 BLE.S	   L.24.7(PC)
		      *							       LINE 21/22
00001E36 206EFF74     L.24.6	 MOVEA.L   -140(A6),A0			         GET_BITS
00001E3A 226EFF74		 MOVEA.L   -140(A6),A1			         GET_BITS
00001E3E 7002			 MOVEQ	   #2,D0			         $2
00001E40 2F00			 MOVE.L	   D0,-(A7)
00001E42 202EFF40		 MOVE.L	   -192(A6),D0			         LOCAL_COUNTER
00001E46 90AEFF7C		 SUB.L	   -132(A6),D0			         INPUT_LAST_BIT
00001E4A 2F00			 MOVE.L	   D0,-(A7)
00001E4C 4EB900000000		 JSR	   G.I4PWR
00001E52 2F2EFF3C		 MOVE.L	   -196(A6),-(A7)		         LOCAL_BIT
00001E56 4EB900000000		 JSR	   G.I4MULT
00001E5C 2011			 MOVE.L	   (A1),D0
00001E5E D09F			 ADD.L	   (A7)+,D0
00001E60 4A80			 TST.L	   D0
00001E62 6C06			 BGE.S	   X.24.7(PC)
00001E64 4EB900000000 X.24.8	 JSR	   E.VALUE
00001E6A 0C80000000FF X.24.7	 CMPI.L	   #255,D0			         $FF
00001E70 6EF2			 BGT.S	   X.24.8(PC)
00001E72 2080			 MOVE.L	   D0,(A0)
		      *							       LINE 21/23
00001E74 202EFF40     L.24.7	 MOVE.L	   -192(A6),D0			         LOCAL_COUNTER
00001E78 5280			 ADDQ.L	   #1,D0			         $1
00001E7A 2D40FF40		 MOVE.L	   D0,-192(A6)			         LOCAL_COUNTER
00001E7E 7207			 MOVEQ	   #7,D1			         $7
00001E80 B081			 CMP.L	   D1,D0
00001E82 6F00FF60		 BLE.L	   L.24.3(PC)
		      *							       LINE 21/24
00001E86 4E75	      L.24.8	 RTS	   
00001E88 496E636F7272 K.46	 DC.B	   'Incorrect Text Record byte count.'
00001EA9 00000001		 DS.B	   1
		      *
		      *		 Begin subroutine DECREMENT_CHECK_BYTE_COUNT
		      *
00001EAA	      B.25
		      *							       LINE 22/9		      *							       LINE 22/10
00001EAA 202D000C     L.25.1	 MOVE.L	   STATIC.+12(A5),D0		         BYTE_COUNT
00001EAE 90AEFF84		 SUB.L	   -124(A6),D0			         INPUT_AMOUNT
00001EB2 4A80			 TST.L	   D0
00001EB4 6C06			 BGE.S	   X.25.3(PC)
00001EB6 4EB900000000 X.25.4	 JSR	   E.VALUE
00001EBC 0C80000000FF X.25.3	 CMPI.L	   #255,D0			         $FF
00001EC2 6EF2			 BGT.S	   X.25.4(PC)
00001EC4 2B40000C		 MOVE.L	   D0,STATIC.+12(A5)		         BYTE_COUNT
		      *							       LINE 22/11
00001EC8 4AAD000C		 TST.L	   STATIC.+12(A5)		         BYTE_COUNT
00001ECC 6C2E			 BGE.S	   L.25.3(PC)
		      *							       LINE 22/12
00001ECE 3D7C0021FEA6 L.25.2	 MOVE.W	   #33,-346(A6)			         $21  $FFFFFEA6
00001ED4 486EFEA8		 PEA	   -344(A6)			         $FFFFFEA8
00001ED8 3F2EFEA6		 MOVE.W	   -346(A6),-(A7)		         $FFFFFEA6
00001EDC 487AFFAA		 PEA	   K.46(PC)			         CODE.+$1E88
00001EE0 7021			 MOVEQ	   #33,D0			         $21
00001EE2 3F00			 MOVE.W	   D0,-(A7)
00001EE4 4EB900000000		 JSR	   C.MVFF
00001EEA 41EEFEA6		 LEA	   -346(A6),A0			         $FFFFFEA6
00001EEE 2D48FFF8		 MOVE.L	   A0,-8(A6)			         $FFFFFFF8
00001EF2 3D7C0021FFF6		 MOVE.W	   #33,-10(A6)			         $21  $FFFFFFF6
00001EF8 6100E2DA		 BSR.L	   B.12(PC)			         ERROR = CODE.+$1D4
		      *							       LINE 22/13
00001EFC 4E75	      L.25.3	 RTS	   
		      *
		      *		 Begin subroutine CONVERT_TWO_BYTES
		      *
00001EFE	      B.6
		      *							       LINE 4/6
		      *							       LINE 4/7
00001EFE 206EFF88     L.6.1	 MOVEA.L   -120(A6),A0			         CONVERT_TWO_BYTES
00001F02 426EFF38		 CLR.W	   -200(A6)			         $FFFFFF38
00001F06 3D7C000AFF36		 MOVE.W	   #10,-202(A6)			         $A  $FFFFFF36
00001F0C 426EFF34		 CLR.W	   -204(A6)			         $FFFFFF34
00001F10 43EEFF38		 LEA	   -200(A6),A1			         $FFFFFF38
00001F14 2D49FF30		 MOVE.L	   A1,-208(A6)			         $FFFFFF30
00001F18 7004			 MOVEQ	   #4,D0			         $4
00001F1A 2F00			 MOVE.L	   D0,-(A7)
00001F1C 7050			 MOVEQ	   #80,D0			         $50
00001F1E 3F00			 MOVE.W	   D0,-(A7)
00001F20 486EFF8C		 PEA	   -116(A6)			         INPUT_TWO_BYTES
00001F24 486EFF30		 PEA	   -208(A6)			         $FFFFFF30
00001F28 4EB900000000		 JSR	   I.PTSTRV00001F2E 30AEFF38		 MOVE.W	   -200(A6),(A0)		         $FFFFFF38
00001F32 48680002		 PEA	   2(A0)			         $2
00001F36 700A			 MOVEQ	   #10,D0			         $A
00001F38 3F00			 MOVE.W	   D0,-(A7)
00001F3A 486EFF3A		 PEA	   -198(A6)			         $FFFFFF3A
00001F3E 3F2EFF38		 MOVE.W	   -200(A6),-(A7)		         $FFFFFF38
00001F42 4EB900000000		 JSR	   C.MVFF
		      *							       LINE 4/8
00001F48 4E75			 RTS	   
00001F4A 20202028     K.47	 DC.B	   '   ('
00001F4E 29204162736F K.48	 DC.B	   ') Absolute code: $'
		      *
		      *		 Begin subroutine PROCESS_ABSOLUTE_CODE
		      *
00001F60 2D4FFE5C     B.26	 MOVE.L	   A7,X.26.1(A6)
		      *							       LINE 23/10
		      *							       LINE 23/11
00001F64 41EEFF70     L.26.1	 LEA	   -144(A6),A0			         LOCAL_TWO_BYTES
00001F68 2D48FFBE		 MOVE.L	   A0,-66(A6)			         $FFFFFFBE
00001F6C 6100EA96		 BSR.L	   B.17(PC)			         READ_TWO_BYTES = CODE
		      *							       LINE 23/12
00001F70 2D7C00000002		 MOVE.L	   #2,-124(A6)			         $2  $FFFFFF84
	 FF84
00001F78 6100FF30		 BSR.L	   B.25(PC)			         DECREMENT_CHECK_BYTE 
		      *							       LINE 23/13
00001F7C 2D7C00000002		 MOVE.L	   #2,-14(A6)			         $2  $FFFFFFF2
	 FFF2
00001F84 202EFF90		 MOVE.L	   -112(A6),D0			         INPUT_COUNTER
00001F88 5280			 ADDQ.L	   #1,D0			         $1
00001F8A 2D40FFEE		 MOVE.L	   D0,-18(A6)			         $FFFFFFEE
00001F8E 41EEFE9A		 LEA	   -358(A6),A0			         $FFFFFE9A
00001F92 2D48FFEA		 MOVE.L	   A0,-22(A6)			         $FFFFFFEA
00001F96 6100E1C0		 BSR.L	   B.9(PC)			         CONVERT_DECIMAL = COD
00001F9A 302EFE9A		 MOVE.W	   -358(A6),D0			         $FFFFFE9A
00001F9E 2D6EFF70FF8C		 MOVE.L	   -144(A6),-116(A6)		         LOCAL_TWO_BYTES  $FFF
00001FA4 41EEFE8E		 LEA	   -370(A6),A0			         $FFFFFE8E
00001FA8 2D48FF88		 MOVE.L	   A0,-120(A6)			         $FFFFFF88
00001FAC 2D40FE8A		 MOVE.L	   D0,-374(A6)			         $FFFFFE8A
00001FB0 6100FF4C		 BSR.L	   B.6(PC)			         CONVERT_TWO_BYTES = C
00001FB4 202EFE8A		 MOVE.L	   -374(A6),D0			         $FFFFFE8A
00001FB8 D06EFE8E		 ADD.W	   -370(A6),D0			         $FFFFFE8E
00001FBC D07C0016		 ADD.W	   #22,D0			         $16
00001FC0 486EFE60		 PEA	   -416(A6)			         $FFFFFE60
00001FC4 722A			 MOVEQ	   #42,D1			         $2A
00001FC6 3F01			 MOVE.W	   D1,-(A7)00001FC8 487AFF80		 PEA	   K.47(PC)			         CODE.+$1F4A
00001FCC 7204			 MOVEQ	   #4,D1			         $4
00001FCE 3F01			 MOVE.W	   D1,-(A7)
00001FD0 4EB900000000		 JSR	   C.MVFF
00001FD6 486EFE9C		 PEA	   -356(A6)			         $FFFFFE9C
00001FDA 3F2EFE9A		 MOVE.W	   -358(A6),-(A7)		         $FFFFFE9A
00001FDE 4EB900000000		 JSR	   C.MVFR
00001FE4 487AFF68		 PEA	   K.48(PC)			         CODE.+$1F4E
00001FE8 7212			 MOVEQ	   #18,D1			         $12
00001FEA 3F01			 MOVE.W	   D1,-(A7)
00001FEC 4EB900000000		 JSR	   C.MVFR
00001FF2 486EFE90		 PEA	   -368(A6)			         $FFFFFE90
00001FF6 3F2EFE8E		 MOVE.W	   -370(A6),-(A7)		         $FFFFFE8E
00001FFA 4EB900000000		 JSR	   C.MVFR
00002000 3200			 MOVE.W	   D0,D1
00002002 5441			 ADDQ.W	   #2,D1			         $2
00002004 4841			 SWAP	   D1
00002006 4241			 CLR.W	   D1
00002008 4841			 SWAP	   D1
0000200A 2F01			 MOVE.L	   D1,-(A7)
0000200C 4EB900000000		 JSR	   M.DYNTMB
00002012 204F			 MOVEA.L   A7,A0
00002014 3080			 MOVE.W	   D0,(A0)
00002016 48680002		 PEA	   2(A0)			         $2
0000201A 3F10			 MOVE.W	   (A0),-(A7)
0000201C 486EFE60		 PEA	   -416(A6)			         $FFFFFE60
00002020 3F00			 MOVE.W	   D0,-(A7)
00002022 4EB900000000		 JSR	   C.MVFF
00002028 2D48FFDE		 MOVE.L	   A0,-34(A6)			         $FFFFFFDE
0000202C 3D40FFDC		 MOVE.W	   D0,-36(A6)			         $FFFFFFDC
00002030 6100E078		 BSR.L	   B.4(PC)			         WRITE_STRING = CODE.+
		      *							       LINE 23/17
00002034 2E6EFE5C		 MOVEA.L   X.26.1(A6),A7
00002038 4E75			 RTS	   
		      *
		      *		 Begin subroutine CONVERT_THREE_BYTES
		      *
0000203A	      B.7
		      *							       LINE 5/6
		      *							       LINE 5/7
0000203A 206EFF44     L.7.1	 MOVEA.L   -188(A6),A0			         CONVERT_THREE_BYTES
0000203E 426EFF38		 CLR.W	   -200(A6)			         $FFFFFF38
00002042 3D7C000AFF36		 MOVE.W	   #10,-202(A6)			         $A  $FFFFFF36
00002048 426EFF34		 CLR.W	   -204(A6)			         $FFFFFF34
0000204C 43EEFF38		 LEA	   -200(A6),A1			         $FFFFFF3800002050 2D49FF30		 MOVE.L	   A1,-208(A6)			         $FFFFFF30
00002054 7006			 MOVEQ	   #6,D0			         $6
00002056 2F00			 MOVE.L	   D0,-(A7)
00002058 7050			 MOVEQ	   #80,D0			         $50
0000205A 3F00			 MOVE.W	   D0,-(A7)
0000205C 486EFF48		 PEA	   -184(A6)			         INPUT_THREE_BYTES
00002060 486EFF30		 PEA	   -208(A6)			         $FFFFFF30
00002064 4EB900000000		 JSR	   I.PTSTRV
0000206A 30AEFF38		 MOVE.W	   -200(A6),(A0)		         $FFFFFF38
0000206E 48680002		 PEA	   2(A0)			         $2
00002072 700A			 MOVEQ	   #10,D0			         $A
00002074 3F00			 MOVE.W	   D0,-(A7)
00002076 486EFF3A		 PEA	   -198(A6)			         $FFFFFF3A
0000207A 3F2EFF38		 MOVE.W	   -200(A6),-(A7)		         $FFFFFF38
0000207E 4EB900000000		 JSR	   C.MVFF
		      *							       LINE 5/8
00002084 4E75			 RTS	   
		      *
		      *		 Begin subroutine READ_THREE_BYTES
		      *
00002086	      B.18
		      *							       LINE 15/11
		      *							       LINE 15/12
00002086 41EEFF3C     L.18.1	 LEA	   -196(A6),A0			         LOCAL_ONE_BYTE
0000208A 2D48FFFC		 MOVE.L	   A0,-4(A6)			         $FFFFFFFC
0000208E 6100E228		 BSR.L	   B.16(PC)			         READ_ONE_BYTE = CODE.
		      *							       LINE 15/13
00002092 6100E93A		 BSR.L	   B.13(PC)			         CHECK_EOF_FLAG = CODE
		      *							       LINE 15/14
00002096 206EFF4C		 MOVEA.L   -180(A6),A0			         OUTPUT_THREE_BYTES
0000209A 20AEFF3C		 MOVE.L	   -196(A6),(A0)		         LOCAL_ONE_BYTE
		      *							       LINE 15/15
0000209E 7001	      L.18.2	 MOVEQ	   #1,D0			         $1
000020A0 2D40FF40		 MOVE.L	   D0,-192(A6)			         LOCAL_COUNTER
000020A4	      L.18.3
		      *							       LINE 15/15 (2)
		      *							       LINE 15/16
000020A4 41EEFF3C     L.18.4	 LEA	   -196(A6),A0			         LOCAL_ONE_BYTE
000020A8 2D48FFFC		 MOVE.L	   A0,-4(A6)			         $FFFFFFFC
000020AC 6100E20A		 BSR.L	   B.16(PC)			         READ_ONE_BYTE = CODE.
		      *							       LINE 15/17
000020B0 6100E91C		 BSR.L	   B.13(PC)			         CHECK_EOF_FLAG = CODE
		      *							       LINE 15/18
000020B4 206EFF4C		 MOVEA.L   -180(A6),A0			         OUTPUT_THREE_BYTES
000020B8 226EFF4C		 MOVEA.L   -180(A6),A1			         OUTPUT_THREE_BYTES000020BC 2011			 MOVE.L	   (A1),D0
000020BE E180			 ASL.L	   #8,D0			         $8
000020C0 D0AEFF3C		 ADD.L	   -196(A6),D0			         LOCAL_ONE_BYTE
000020C4 4A80			 TST.L	   D0
000020C6 6C06			 BGE.S	   X.18.3(PC)
000020C8 4EB900000000 X.18.4	 JSR	   E.VALUE
000020CE 0C8000FFFFFF X.18.3	 CMPI.L	   #16777215,D0			         $FFFFFF
000020D4 6EF2			 BGT.S	   X.18.4(PC)
000020D6 2080			 MOVE.L	   D0,(A0)
		      *							       LINE 15/19
000020D8 202EFF40		 MOVE.L	   -192(A6),D0			         LOCAL_COUNTER
000020DC 5280			 ADDQ.L	   #1,D0			         $1
000020DE 2D40FF40		 MOVE.L	   D0,-192(A6)			         LOCAL_COUNTER
000020E2 7202			 MOVEQ	   #2,D1			         $2
000020E4 B081			 CMP.L	   D1,D0
000020E6 6FBC			 BLE.S	   L.18.3(PC)
		      *							       LINE 15/20
000020E8 4E75	      L.18.5	 RTS	   
000020EA 20202028     K.49	 DC.B	   '   ('
000020EE 292052656C6F K.50	 DC.B	   ') Relocation data:'
00002100 202020202020 K.51	 DC.B	   '           Flag byte = $'
00002118 205B4E756D62 K.52	 DC.B	   ' [Number ESDIDs = '
0000212A 2C2044617461 K.53	 DC.B	   ', Data size = '
00002138 20776F726428 K.54	 DC.B	   ' word(s), Offset length = '
00002152 206279746528 K.55	 DC.B	   ' byte(s)]'
0000215B 00000001		 DS.B	   1
0000215C 202020202020 K.56	 DC.B	   '           ESDID = $'
00002170 202028	      K.57	 DC.B	   '  ('
00002173 00000001		 DS.B	   1
00002174 496C6C656761 K.58	 DC.B	   'Illegal offset length.'
0000218A 202020202020 K.59	 DC.B	   '           Offset = $'
0000219F 00000001		 DS.B	   1
000021A0 202020202020 K.60	 DC.B	   '           Offset = $'
000021B5 00000001		 DS.B	   1
000021B6 202020202020 K.61	 DC.B	   '           Offset = $'
000021CB 00000001		 DS.B	   1
000021CC 202020202020 K.62	 DC.B	   '           Offset = $'
000021E1 00000001		 DS.B	   1
000021E2 496C6C656761 K.63	 DC.B	   'Illegal offset length.'
		      *
		      *		 Begin subroutine PROCESS_RELOCATION_DATA
		      *
000021F8 2D4FFDE2     B.27	 MOVE.L	   A7,X.27.1(A6)
		      *							       LINE 24/17
		      *							       LINE 24/18000021FC 2D7C00000002 L.27.1	 MOVE.L	   #2,-14(A6)			         $2  $FFFFFFF2
	 FFF2
00002204 202EFF94		 MOVE.L	   -108(A6),D0			         INPUT_COUNTER
00002208 5280			 ADDQ.L	   #1,D0			         $1
0000220A 2D40FFEE		 MOVE.L	   D0,-18(A6)			         $FFFFFFEE
0000220E 41EEFE9A		 LEA	   -358(A6),A0			         $FFFFFE9A
00002212 2D48FFEA		 MOVE.L	   A0,-22(A6)			         $FFFFFFEA
00002216 6100DF40		 BSR.L	   B.9(PC)			         CONVERT_DECIMAL = COD
0000221A 302EFE9A		 MOVE.W	   -358(A6),D0			         $FFFFFE9A
0000221E D07C0016		 ADD.W	   #22,D0			         $16
00002222 486EFE7A		 PEA	   -390(A6)			         $FFFFFE7A
00002226 7220			 MOVEQ	   #32,D1			         $20
00002228 3F01			 MOVE.W	   D1,-(A7)
0000222A 487AFEBE		 PEA	   K.49(PC)			         CODE.+$20EA
0000222E 7204			 MOVEQ	   #4,D1			         $4
00002230 3F01			 MOVE.W	   D1,-(A7)
00002232 4EB900000000		 JSR	   C.MVFF
00002238 486EFE9C		 PEA	   -356(A6)			         $FFFFFE9C
0000223C 3F2EFE9A		 MOVE.W	   -358(A6),-(A7)		         $FFFFFE9A
00002240 4EB900000000		 JSR	   C.MVFR
00002246 487AFEA6		 PEA	   K.50(PC)			         CODE.+$20EE
0000224A 7212			 MOVEQ	   #18,D1			         $12
0000224C 3F01			 MOVE.W	   D1,-(A7)
0000224E 4EB900000000		 JSR	   C.MVFR
00002254 3200			 MOVE.W	   D0,D1
00002256 5441			 ADDQ.W	   #2,D1			         $2
00002258 4841			 SWAP	   D1
0000225A 4241			 CLR.W	   D1
0000225C 4841			 SWAP	   D1
0000225E 2F01			 MOVE.L	   D1,-(A7)
00002260 4EB900000000		 JSR	   M.DYNTMB
00002266 204F			 MOVEA.L   A7,A0
00002268 3080			 MOVE.W	   D0,(A0)
0000226A 48680002		 PEA	   2(A0)			         $2
0000226E 3F10			 MOVE.W	   (A0),-(A7)
00002270 486EFE7A		 PEA	   -390(A6)			         $FFFFFE7A
00002274 3F00			 MOVE.W	   D0,-(A7)
00002276 4EB900000000		 JSR	   C.MVFF
0000227C 2D48FFDE		 MOVE.L	   A0,-34(A6)			         $FFFFFFDE
00002280 3D40FFDC		 MOVE.W	   D0,-36(A6)			         $FFFFFFDC
00002284 6100DE24		 BSR.L	   B.4(PC)			         WRITE_STRING = CODE.+
		      *							       LINE 24/21
00002288 41EEFF60		 LEA	   -160(A6),A0			         LOCAL_ONE_BYTE
0000228C 2D48FFFC		 MOVE.L	   A0,-4(A6)			         $FFFFFFFC
00002290 6100E026		 BSR.L	   B.16(PC)			         READ_ONE_BYTE = CODE.		      *							       LINE 24/22
00002294 6100E738		 BSR.L	   B.13(PC)			         CHECK_EOF_FLAG = CODE
		      *							       LINE 24/23
00002298 2D7C00000001		 MOVE.L	   #1,-124(A6)			         $1  $FFFFFF84
	 FF84
000022A0 6100FC08		 BSR.L	   B.25(PC)			         DECREMENT_CHECK_BYTE 
		      *							       LINE 24/24
000022A4 2D7C00000003		 MOVE.L	   #3,-128(A6)			         $3  $FFFFFF80
	 FF80
000022AC 2D7C00000005		 MOVE.L	   #5,-132(A6)			         $5  $FFFFFF7C
	 FF7C
000022B4 2D6EFF60FF78		 MOVE.L	   -160(A6),-136(A6)		         LOCAL_ONE_BYTE  $FFFF
000022BA 41EEFEA2		 LEA	   -350(A6),A0			         $FFFFFEA2
000022BE 2D48FF74		 MOVE.L	   A0,-140(A6)			         $FFFFFF74
000022C2 6100FB0C		 BSR.L	   B.24(PC)			         GET_BITS = CODE.+$1DD
000022C6 202EFEA2		 MOVE.L	   -350(A6),D0			         $FFFFFEA2
000022CA 7207			 MOVEQ	   #7,D1			         $7
000022CC B081			 CMP.L	   D1,D0
000022CE 6F06			 BLE.S	   X.27.3(PC)
000022D0 4EB900000000		 JSR	   E.VALUE
000022D6 2D40FF6C     X.27.3	 MOVE.L	   D0,-148(A6)			         LOCAL_NUM_ESDID
		      *							       LINE 24/25
000022DA 2D7C00000001		 MOVE.L	   #1,-128(A6)			         $1  $FFFFFF80
	 FF80
000022E2 2D7C00000003		 MOVE.L	   #3,-132(A6)			         $3  $FFFFFF7C
	 FF7C
000022EA 2D6EFF60FF78		 MOVE.L	   -160(A6),-136(A6)		         LOCAL_ONE_BYTE  $FFFF
000022F0 41EEFEA2		 LEA	   -350(A6),A0			         $FFFFFEA2
000022F4 2D48FF74		 MOVE.L	   A0,-140(A6)			         $FFFFFF74
000022F8 6100FAD6		 BSR.L	   B.24(PC)			         GET_BITS = CODE.+$1DD
000022FC 202EFEA2		 MOVE.L	   -350(A6),D0			         $FFFFFEA2
00002300 5280			 ADDQ.L	   #1,D0			         $1
00002302 4A40			 TST.W	   D0
00002304 6E06			 BGT.S	   X.27.4(PC)
00002306 4EB900000000 X.27.5	 JSR	   E.VALUE
0000230C 7202	      X.27.4	 MOVEQ	   #2,D1			         $2
0000230E B041			 CMP.W	   D1,D0
00002310 6EF4			 BGT.S	   X.27.5(PC)
00002312 2D40FF68		 MOVE.L	   D0,-152(A6)			         LOCAL_DATA_SIZE
		      *							       LINE 24/26
00002316 2D7C00000003		 MOVE.L	   #3,-128(A6)			         $3  $FFFFFF80
	 FF80
0000231E 42AEFF7C		 CLR.L	   -132(A6)			         $FFFFFF7C
00002322 2D6EFF60FF78		 MOVE.L	   -160(A6),-136(A6)		         LOCAL_ONE_BYTE  $FFFF
00002328 41EEFEA2		 LEA	   -350(A6),A0			         $FFFFFEA20000232C 2D48FF74		 MOVE.L	   A0,-140(A6)			         $FFFFFF74
00002330 6100FA9E		 BSR.L	   B.24(PC)			         GET_BITS = CODE.+$1DD
00002334 202EFEA2		 MOVE.L	   -350(A6),D0			         $FFFFFEA2
00002338 7204			 MOVEQ	   #4,D1			         $4
0000233A B081			 CMP.L	   D1,D0
0000233C 6F06			 BLE.S	   X.27.6(PC)
0000233E 4EB900000000		 JSR	   E.VALUE
00002344 2D40FF64     X.27.6	 MOVE.L	   D0,-156(A6)			         LOCAL_OFFSET_LENGTH
		      *							       LINE 24/27
00002348 2D6EFF60FFE6		 MOVE.L	   -160(A6),-26(A6)		         LOCAL_ONE_BYTE  $FFFF
0000234E 41EEFE9A		 LEA	   -358(A6),A0			         $FFFFFE9A
00002352 2D48FFE2		 MOVE.L	   A0,-30(A6)			         $FFFFFFE2
00002356 6100DDB4		 BSR.L	   B.5(PC)			         CONVERT_ONE_BYTE = CO
0000235A 302EFE9A		 MOVE.W	   -358(A6),D0			         $FFFFFE9A
0000235E 42AEFFF2		 CLR.L	   -14(A6)			         $FFFFFFF2
00002362 2D6EFF6CFFEE		 MOVE.L	   -148(A6),-18(A6)		         LOCAL_NUM_ESDID  $FFF
00002368 41EEFE8E		 LEA	   -370(A6),A0			         $FFFFFE8E
0000236C 2D48FFEA		 MOVE.L	   A0,-22(A6)			         $FFFFFFEA
00002370 2D40FE8A		 MOVE.L	   D0,-374(A6)			         $FFFFFE8A
00002374 6100DDE2		 BSR.L	   B.9(PC)			         CONVERT_DECIMAL = COD
00002378 202EFE8A		 MOVE.L	   -374(A6),D0			         $FFFFFE8A
0000237C D06EFE8E		 ADD.W	   -370(A6),D0			         $FFFFFE8E
00002380 42AEFFF2		 CLR.L	   -14(A6)			         $FFFFFFF2
00002384 2D6EFF68FFEE		 MOVE.L	   -152(A6),-18(A6)		         LOCAL_DATA_SIZE  $FFF
0000238A 41EEFE7E		 LEA	   -386(A6),A0			         $FFFFFE7E
0000238E 2D48FFEA		 MOVE.L	   A0,-22(A6)			         $FFFFFFEA
00002392 2D40FE7A		 MOVE.L	   D0,-390(A6)			         $FFFFFE7A
00002396 6100DDC0		 BSR.L	   B.9(PC)			         CONVERT_DECIMAL = COD
0000239A 202EFE7A		 MOVE.L	   -390(A6),D0			         $FFFFFE7A
0000239E D06EFE7E		 ADD.W	   -386(A6),D0			         $FFFFFE7E
000023A2 42AEFFF2		 CLR.L	   -14(A6)			         $FFFFFFF2
000023A6 2D6EFF64FFEE		 MOVE.L	   -156(A6),-18(A6)		         LOCAL_OFFSET_LENGTH  
000023AC 41EEFE6E		 LEA	   -402(A6),A0			         $FFFFFE6E
000023B0 2D48FFEA		 MOVE.L	   A0,-22(A6)			         $FFFFFFEA
000023B4 2D40FE6A		 MOVE.L	   D0,-406(A6)			         $FFFFFE6A
000023B8 6100DD9E		 BSR.L	   B.9(PC)			         CONVERT_DECIMAL = COD
000023BC 202EFE6A		 MOVE.L	   -406(A6),D0			         $FFFFFE6A
000023C0 D06EFE6E		 ADD.W	   -402(A6),D0			         $FFFFFE6E
000023C4 D07C005B		 ADD.W	   #91,D0			         $5B
000023C8 486EFDE6		 PEA	   -538(A6)			         $FFFFFDE6
000023CC 3F3C0083		 MOVE.W	   #131,-(A7)			         $83
000023D0 487AFD2E		 PEA	   K.51(PC)			         CODE.+$2100
000023D4 7218			 MOVEQ	   #24,D1			         $18
000023D6 3F01			 MOVE.W	   D1,-(A7)
000023D8 4EB900000000		 JSR	   C.MVFF000023DE 486EFE9C		 PEA	   -356(A6)			         $FFFFFE9C
000023E2 3F2EFE9A		 MOVE.W	   -358(A6),-(A7)		         $FFFFFE9A
000023E6 4EB900000000		 JSR	   C.MVFR
000023EC 487AFD2A		 PEA	   K.52(PC)			         CODE.+$2118
000023F0 7212			 MOVEQ	   #18,D1			         $12
000023F2 3F01			 MOVE.W	   D1,-(A7)
000023F4 4EB900000000		 JSR	   C.MVFR
000023FA 486EFE90		 PEA	   -368(A6)			         $FFFFFE90
000023FE 3F2EFE8E		 MOVE.W	   -370(A6),-(A7)		         $FFFFFE8E
00002402 4EB900000000		 JSR	   C.MVFR
00002408 487AFD20		 PEA	   K.53(PC)			         CODE.+$212A
0000240C 720E			 MOVEQ	   #14,D1			         $E
0000240E 3F01			 MOVE.W	   D1,-(A7)
00002410 4EB900000000		 JSR	   C.MVFR
00002416 486EFE80		 PEA	   -384(A6)			         $FFFFFE80
0000241A 3F2EFE7E		 MOVE.W	   -386(A6),-(A7)		         $FFFFFE7E
0000241E 4EB900000000		 JSR	   C.MVFR
00002424 487AFD12		 PEA	   K.54(PC)			         CODE.+$2138
00002428 721A			 MOVEQ	   #26,D1			         $1A
0000242A 3F01			 MOVE.W	   D1,-(A7)
0000242C 4EB900000000		 JSR	   C.MVFR
00002432 486EFE70		 PEA	   -400(A6)			         $FFFFFE70
00002436 3F2EFE6E		 MOVE.W	   -402(A6),-(A7)		         $FFFFFE6E
0000243A 4EB900000000		 JSR	   C.MVFR
00002440 487AFD10		 PEA	   K.55(PC)			         CODE.+$2152
00002444 7209			 MOVEQ	   #9,D1			         $9
00002446 3F01			 MOVE.W	   D1,-(A7)
00002448 4EB900000000		 JSR	   C.MVFR
0000244E 3200			 MOVE.W	   D0,D1
00002450 5441			 ADDQ.W	   #2,D1			         $2
00002452 4841			 SWAP	   D1
00002454 4241			 CLR.W	   D1
00002456 4841			 SWAP	   D1
00002458 2F01			 MOVE.L	   D1,-(A7)
0000245A 4EB900000000		 JSR	   M.DYNTMB
00002460 204F			 MOVEA.L   A7,A0
00002462 3080			 MOVE.W	   D0,(A0)
00002464 48680002		 PEA	   2(A0)			         $2
00002468 3F10			 MOVE.W	   (A0),-(A7)
0000246A 486EFDE6		 PEA	   -538(A6)			         $FFFFFDE6
0000246E 3F00			 MOVE.W	   D0,-(A7)
00002470 4EB900000000		 JSR	   C.MVFF
00002476 2D48FFDE		 MOVE.L	   A0,-34(A6)			         $FFFFFFDE
0000247A 3D40FFDC		 MOVE.W	   D0,-36(A6)			         $FFFFFFDC
0000247E 6100DC2A		 BSR.L	   B.4(PC)			         WRITE_STRING = CODE.+		      *							       LINE 24/36
00002482 202EFF6C		 MOVE.L	   -148(A6),D0			         LOCAL_NUM_ESDID
00002486 2D40FF50		 MOVE.L	   D0,-176(A6)			         V.66
0000248A 4A80			 TST.L	   D0
0000248C 6F000144		 BLE.L	   L.27.7(PC)
00002490 2E6EFDE2     L.27.2	 MOVEA.L   X.27.1(A6),A7
00002494 7001			 MOVEQ	   #1,D0			         $1
00002496 2D40FF70		 MOVE.L	   D0,-144(A6)			         LOCAL_COUNTER
0000249A	      L.27.3
		      *							       LINE 24/36 (2)
		      *							       LINE 24/37
0000249A 41EEFF60     L.27.4	 LEA	   -160(A6),A0			         LOCAL_ONE_BYTE
0000249E 2D48FFFC		 MOVE.L	   A0,-4(A6)			         $FFFFFFFC
000024A2 6100DE14		 BSR.L	   B.16(PC)			         READ_ONE_BYTE = CODE.
		      *							       LINE 24/38
000024A6 6100E526		 BSR.L	   B.13(PC)			         CHECK_EOF_FLAG = CODE
		      *							       LINE 24/39
000024AA 2D7C00000001		 MOVE.L	   #1,-124(A6)			         $1  $FFFFFF84
	 FF84
000024B2 6100F9F6		 BSR.L	   B.25(PC)			         DECREMENT_CHECK_BYTE 
		      *							       LINE 24/40
000024B6 2D6EFF60FFE6		 MOVE.L	   -160(A6),-26(A6)		         LOCAL_ONE_BYTE  $FFFF
000024BC 41EEFE9A		 LEA	   -358(A6),A0			         $FFFFFE9A
000024C0 2D48FFE2		 MOVE.L	   A0,-30(A6)			         $FFFFFFE2
000024C4 6100DC46		 BSR.L	   B.5(PC)			         CONVERT_ONE_BYTE = CO
000024C8 302EFE9A		 MOVE.W	   -358(A6),D0			         $FFFFFE9A
000024CC 42AEFFF2		 CLR.L	   -14(A6)			         $FFFFFFF2
000024D0 2D6EFF60FFEE		 MOVE.L	   -160(A6),-18(A6)		         LOCAL_ONE_BYTE  $FFFF
000024D6 41EEFE8E		 LEA	   -370(A6),A0			         $FFFFFE8E
000024DA 2D48FFEA		 MOVE.L	   A0,-22(A6)			         $FFFFFFEA
000024DE 2D40FE8A		 MOVE.L	   D0,-374(A6)			         $FFFFFE8A
000024E2 6100DC74		 BSR.L	   B.9(PC)			         CONVERT_DECIMAL = COD
000024E6 202EFE8A		 MOVE.L	   -374(A6),D0			         $FFFFFE8A
000024EA D06EFE8E		 ADD.W	   -370(A6),D0			         $FFFFFE8E
000024EE D07C0018		 ADD.W	   #24,D0			         $18
000024F2 486EFE5E		 PEA	   -418(A6)			         $FFFFFE5E
000024F6 722C			 MOVEQ	   #44,D1			         $2C
000024F8 3F01			 MOVE.W	   D1,-(A7)
000024FA 487AFC60		 PEA	   K.56(PC)			         CODE.+$215C
000024FE 7214			 MOVEQ	   #20,D1			         $14
00002500 3F01			 MOVE.W	   D1,-(A7)
00002502 4EB900000000		 JSR	   C.MVFF
00002508 486EFE9C		 PEA	   -356(A6)			         $FFFFFE9C
0000250C 3F2EFE9A		 MOVE.W	   -358(A6),-(A7)		         $FFFFFE9A
00002510 4EB900000000		 JSR	   C.MVFR00002516 487AFC58		 PEA	   K.57(PC)			         CODE.+$2170
0000251A 7203			 MOVEQ	   #3,D1			         $3
0000251C 3F01			 MOVE.W	   D1,-(A7)
0000251E 4EB900000000		 JSR	   C.MVFR
00002524 486EFE90		 PEA	   -368(A6)			         $FFFFFE90
00002528 3F2EFE8E		 MOVE.W	   -370(A6),-(A7)		         $FFFFFE8E
0000252C 4EB900000000		 JSR	   C.MVFR
00002532 7229			 MOVEQ	   #41,D1			         $29
00002534 1F01			 MOVE.B	   D1,-(A7)
00002536 4EB900000000		 JSR	   C.MVCR
0000253C 3200			 MOVE.W	   D0,D1
0000253E 5441			 ADDQ.W	   #2,D1			         $2
00002540 4841			 SWAP	   D1
00002542 4241			 CLR.W	   D1
00002544 4841			 SWAP	   D1
00002546 2F01			 MOVE.L	   D1,-(A7)
00002548 4EB900000000		 JSR	   M.DYNTMB
0000254E 204F			 MOVEA.L   A7,A0
00002550 3080			 MOVE.W	   D0,(A0)
00002552 48680002		 PEA	   2(A0)			         $2
00002556 3F10			 MOVE.W	   (A0),-(A7)
00002558 486EFE5E		 PEA	   -418(A6)			         $FFFFFE5E
0000255C 3F00			 MOVE.W	   D0,-(A7)
0000255E 4EB900000000		 JSR	   C.MVFF
00002564 2D48FFDE		 MOVE.L	   A0,-34(A6)			         $FFFFFFDE
00002568 3D40FFDC		 MOVE.W	   D0,-36(A6)			         $FFFFFFDC
0000256C 6100DB3C		 BSR.L	   B.4(PC)			         WRITE_STRING = CODE.+
		      *							       LINE 24/46
00002570 7011			 MOVEQ	   #17,D0			         $11
00002572 B0AEFF60		 CMP.L	   -160(A6),D0			         LOCAL_ONE_BYTE
00002576 6E44			 BGT.S	   L.27.6(PC)
00002578 2E6EFDE2     L.27.5	 MOVEA.L   X.27.1(A6),A7
		      *							       LINE 24/47
0000257C 202EFF60		 MOVE.L	   -160(A6),D0			         LOCAL_ONE_BYTE
00002580 7211			 MOVEQ	   #17,D1			         $11
00002582 B081			 CMP.L	   D1,D0
00002584 6C06			 BGE.S	   X.27.7(PC)
00002586 4EB900000000		 JSR	   E.INDEX
0000258C E940	      X.27.7	 ASL.W	   #4,D0			         $4
0000258E 41ED000C		 LEA	   STATIC.+284-272(A5),A0	         ESDID_ARRAY
00002592 222EFF60		 MOVE.L	   -160(A6),D1			         LOCAL_ONE_BYTE
00002596 7411			 MOVEQ	   #17,D2			         $11
00002598 B282			 CMP.L	   D2,D1
0000259A 6C06			 BGE.S	   X.27.8(PC)
0000259C 4EB900000000		 JSR	   E.INDEX000025A2 E941	      X.27.8	 ASL.W	   #4,D1			         $4
000025A4 43ED000C		 LEA	   STATIC.+284-272(A5),A1	         ESDID_ARRAY
000025A8 2231100C		 MOVE.L	   12(A1,D1.W),D1		         $C
000025AC 5281			 ADDQ.L	   #1,D1			         $1
000025AE 4A81			 TST.L	   D1
000025B0 6C06			 BGE.S	   X.27.9(PC)
000025B2 4EB900000000		 JSR	   E.VALUE
000025B8 2181000C     X.27.9	 MOVE.L	   D1,12(A0,D0.W)		         $C
000025BC 2E6EFDE2     L.27.6	 MOVEA.L   X.27.1(A6),A7
		      *							       LINE 24/49
000025C0 202EFF70		 MOVE.L	   -144(A6),D0			         LOCAL_COUNTER
000025C4 5280			 ADDQ.L	   #1,D0			         $1
000025C6 2D40FF70		 MOVE.L	   D0,-144(A6)			         LOCAL_COUNTER
000025CA B0AEFF50		 CMP.L	   -176(A6),D0			         V.66
000025CE 6F00FECA		 BLE.L	   L.27.3(PC)
000025D2 2E6EFDE2     L.27.7	 MOVEA.L   X.27.1(A6),A7
		      *							       LINE 24/50
000025D6 202EFF64		 MOVE.L	   -156(A6),D0			         LOCAL_OFFSET_LENGTH
000025DA 4A80			 TST.L	   D0
000025DC 6D54			 BLT.S	   L.27.12(PC)
000025DE 0C8000000004		 CMPI.L	   #4,D0			         $4
000025E4 6E4C			 BGT.S	   L.27.12(PC)
000025E6 D040			 ADD.W	   D0,D0
000025E8 303B0006		 MOVE.W	   X.27.10(PC,D0.W),D0
000025EC 4EFB0002		 JMP	   X.27.10(PC,D0.W)
000025F0 0000	      X.27.10	 DC.W	   L.27.13-*
000025F2 0000			 DC.W	   L.27.8+2-*
000025F4 0000			 DC.W	   L.27.9+4-*
000025F6 0000			 DC.W	   L.27.10+6-*
000025F8 0000			 DC.W	   L.27.11+8-*
		      *							       LINE 24/52
000025FA 41EEFF60     L.27.8	 LEA	   -160(A6),A0			         LOCAL_ONE_BYTE
000025FE 2D48FFFC		 MOVE.L	   A0,-4(A6)			         $FFFFFFFC
00002602 6100DCB4		 BSR.L	   B.16(PC)			         READ_ONE_BYTE = CODE.
00002606 6058			 BRA.S	   L.27.13(PC)
		      *							       LINE 24/53
00002608 41EEFF5C     L.27.9	 LEA	   -164(A6),A0			         LOCAL_TWO_BYTES
0000260C 2D48FFBE		 MOVE.L	   A0,-66(A6)			         $FFFFFFBE
00002610 6100E3F2		 BSR.L	   B.17(PC)			         READ_TWO_BYTES = CODE
00002614 604A			 BRA.S	   L.27.13(PC)
		      *							       LINE 24/54
00002616 41EEFF58     L.27.10	 LEA	   -168(A6),A0			         LOCAL_THREE_BYTES
0000261A 2D48FF4C		 MOVE.L	   A0,-180(A6)			         $FFFFFF4C
0000261E 6100FA66		 BSR.L	   B.18(PC)			         READ_THREE_BYTES = CO
00002622 603C			 BRA.S	   L.27.13(PC)		      *							       LINE 24/55
00002624 41EEFF54     L.27.11	 LEA	   -172(A6),A0			         LOCAL_FOUR_BYTES
00002628 2D48FFD4		 MOVE.L	   A0,-44(A6)			         $FFFFFFD4
0000262C 6100F05C		 BSR.L	   B.19(PC)			         READ_FOUR_BYTES = COD
00002630 602E			 BRA.S	   L.27.13(PC)
		      *							       LINE 24/56
00002632 3D7C0016FE8E L.27.12	 MOVE.W	   #22,-370(A6)			         $16  $FFFFFE8E
00002638 486EFE90		 PEA	   -368(A6)			         $FFFFFE90
0000263C 3F2EFE8E		 MOVE.W	   -370(A6),-(A7)		         $FFFFFE8E
00002640 487AFB32		 PEA	   K.58(PC)			         CODE.+$2174
00002644 7016			 MOVEQ	   #22,D0			         $16
00002646 3F00			 MOVE.W	   D0,-(A7)
00002648 4EB900000000		 JSR	   C.MVFF
0000264E 41EEFE8E		 LEA	   -370(A6),A0			         $FFFFFE8E
00002652 2D48FFF8		 MOVE.L	   A0,-8(A6)			         $FFFFFFF8
00002656 3D7C0016FFF6		 MOVE.W	   #22,-10(A6)			         $16  $FFFFFFF6
0000265C 6100DB76		 BSR.L	   B.12(PC)			         ERROR = CODE.+$1D4
		      *							       LINE 24/58
00002660 2D6EFF64FF84 L.27.13	 MOVE.L	   -156(A6),-124(A6)		         LOCAL_OFFSET_LENGTH  
00002666 6100F842		 BSR.L	   B.25(PC)			         DECREMENT_CHECK_BYTE 
		      *							       LINE 24/59
0000266A 202EFF64		 MOVE.L	   -156(A6),D0			         LOCAL_OFFSET_LENGTH
0000266E 4A80			 TST.L	   D0
00002670 6D0001F6		 BLT.L	   L.27.18(PC)
00002674 0C8000000004		 CMPI.L	   #4,D0			         $4
0000267A 6E0001EC		 BGT.L	   L.27.18(PC)
0000267E D040			 ADD.W	   D0,D0
00002680 303B0006		 MOVE.W	   X.27.11(PC,D0.W),D0
00002684 4EFB0002		 JMP	   X.27.11(PC,D0.W)
00002688 0000	      X.27.11	 DC.W	   L.27.19-*
0000268A 0000			 DC.W	   L.27.14+2-*
0000268C 0000			 DC.W	   L.27.15+4-*
0000268E 0000			 DC.W	   L.27.16+6-*
00002690 0000			 DC.W	   L.27.17+8-*
		      *							       LINE 24/61
00002692 2D6EFF60FFE6 L.27.14	 MOVE.L	   -160(A6),-26(A6)		         LOCAL_ONE_BYTE  $FFFF
00002698 41EEFE9A		 LEA	   -358(A6),A0			         $FFFFFE9A
0000269C 2D48FFE2		 MOVE.L	   A0,-30(A6)			         $FFFFFFE2
000026A0 6100DA6A		 BSR.L	   B.5(PC)			         CONVERT_ONE_BYTE = CO
000026A4 302EFE9A		 MOVE.W	   -358(A6),D0			         $FFFFFE9A
000026A8 D07C0015		 ADD.W	   #21,D0			         $15
000026AC 486EFE7A		 PEA	   -390(A6)			         $FFFFFE7A
000026B0 721F			 MOVEQ	   #31,D1			         $1F
000026B2 3F01			 MOVE.W	   D1,-(A7)
000026B4 487AFAD4		 PEA	   K.59(PC)			         CODE.+$218A000026B8 7215			 MOVEQ	   #21,D1			         $15
000026BA 3F01			 MOVE.W	   D1,-(A7)
000026BC 4EB900000000		 JSR	   C.MVFF
000026C2 486EFE9C		 PEA	   -356(A6)			         $FFFFFE9C
000026C6 3F2EFE9A		 MOVE.W	   -358(A6),-(A7)		         $FFFFFE9A
000026CA 4EB900000000		 JSR	   C.MVFR
000026D0 3200			 MOVE.W	   D0,D1
000026D2 5441			 ADDQ.W	   #2,D1			         $2
000026D4 4841			 SWAP	   D1
000026D6 4241			 CLR.W	   D1
000026D8 4841			 SWAP	   D1
000026DA 2F01			 MOVE.L	   D1,-(A7)
000026DC 4EB900000000		 JSR	   M.DYNTMB
000026E2 204F			 MOVEA.L   A7,A0
000026E4 3080			 MOVE.W	   D0,(A0)
000026E6 48680002		 PEA	   2(A0)			         $2
000026EA 3F10			 MOVE.W	   (A0),-(A7)
000026EC 486EFE7A		 PEA	   -390(A6)			         $FFFFFE7A
000026F0 3F00			 MOVE.W	   D0,-(A7)
000026F2 4EB900000000		 JSR	   C.MVFF
000026F8 2D48FFDE		 MOVE.L	   A0,-34(A6)			         $FFFFFFDE
000026FC 3D40FFDC		 MOVE.W	   D0,-36(A6)			         $FFFFFFDC
00002700 6100D9A8		 BSR.L	   B.4(PC)			         WRITE_STRING = CODE.+
00002704 60000190		 BRA.L	   L.27.19(PC)
		      *							       LINE 24/63
00002708 2D6EFF5CFF8C L.27.15	 MOVE.L	   -164(A6),-116(A6)		         LOCAL_TWO_BYTES  $FFF
0000270E 41EEFE9A		 LEA	   -358(A6),A0			         $FFFFFE9A
00002712 2D48FF88		 MOVE.L	   A0,-120(A6)			         $FFFFFF88
00002716 6100F7E6		 BSR.L	   B.6(PC)			         CONVERT_TWO_BYTES = C
0000271A 302EFE9A		 MOVE.W	   -358(A6),D0			         $FFFFFE9A
0000271E D07C0015		 ADD.W	   #21,D0			         $15
00002722 486EFE7A		 PEA	   -390(A6)			         $FFFFFE7A
00002726 721F			 MOVEQ	   #31,D1			         $1F
00002728 3F01			 MOVE.W	   D1,-(A7)
0000272A 487AFA74		 PEA	   K.60(PC)			         CODE.+$21A0
0000272E 7215			 MOVEQ	   #21,D1			         $15
00002730 3F01			 MOVE.W	   D1,-(A7)
00002732 4EB900000000		 JSR	   C.MVFF
00002738 486EFE9C		 PEA	   -356(A6)			         $FFFFFE9C
0000273C 3F2EFE9A		 MOVE.W	   -358(A6),-(A7)		         $FFFFFE9A
00002740 4EB900000000		 JSR	   C.MVFR
00002746 3200			 MOVE.W	   D0,D1
00002748 5441			 ADDQ.W	   #2,D1			         $2
0000274A 4841			 SWAP	   D1
0000274C 4241			 CLR.W	   D10000274E 4841			 SWAP	   D1
00002750 2F01			 MOVE.L	   D1,-(A7)
00002752 4EB900000000		 JSR	   M.DYNTMB
00002758 204F			 MOVEA.L   A7,A0
0000275A 3080			 MOVE.W	   D0,(A0)
0000275C 48680002		 PEA	   2(A0)			         $2
00002760 3F10			 MOVE.W	   (A0),-(A7)
00002762 486EFE7A		 PEA	   -390(A6)			         $FFFFFE7A
00002766 3F00			 MOVE.W	   D0,-(A7)
00002768 4EB900000000		 JSR	   C.MVFF
0000276E 2D48FFDE		 MOVE.L	   A0,-34(A6)			         $FFFFFFDE
00002772 3D40FFDC		 MOVE.W	   D0,-36(A6)			         $FFFFFFDC
00002776 6100D932		 BSR.L	   B.4(PC)			         WRITE_STRING = CODE.+
0000277A 6000011A		 BRA.L	   L.27.19(PC)
		      *							       LINE 24/65
0000277E 2D6EFF58FF48 L.27.16	 MOVE.L	   -168(A6),-184(A6)		         LOCAL_THREE_BYTES  $F
00002784 41EEFE9A		 LEA	   -358(A6),A0			         $FFFFFE9A
00002788 2D48FF44		 MOVE.L	   A0,-188(A6)			         $FFFFFF44
0000278C 6100F8AC		 BSR.L	   B.7(PC)			         CONVERT_THREE_BYTES =
00002790 302EFE9A		 MOVE.W	   -358(A6),D0			         $FFFFFE9A
00002794 D07C0015		 ADD.W	   #21,D0			         $15
00002798 486EFE7A		 PEA	   -390(A6)			         $FFFFFE7A
0000279C 721F			 MOVEQ	   #31,D1			         $1F
0000279E 3F01			 MOVE.W	   D1,-(A7)
000027A0 487AFA14		 PEA	   K.61(PC)			         CODE.+$21B6
000027A4 7215			 MOVEQ	   #21,D1			         $15
000027A6 3F01			 MOVE.W	   D1,-(A7)
000027A8 4EB900000000		 JSR	   C.MVFF
000027AE 486EFE9C		 PEA	   -356(A6)			         $FFFFFE9C
000027B2 3F2EFE9A		 MOVE.W	   -358(A6),-(A7)		         $FFFFFE9A
000027B6 4EB900000000		 JSR	   C.MVFR
000027BC 3200			 MOVE.W	   D0,D1
000027BE 5441			 ADDQ.W	   #2,D1			         $2
000027C0 4841			 SWAP	   D1
000027C2 4241			 CLR.W	   D1
000027C4 4841			 SWAP	   D1
000027C6 2F01			 MOVE.L	   D1,-(A7)
000027C8 4EB900000000		 JSR	   M.DYNTMB
000027CE 204F			 MOVEA.L   A7,A0
000027D0 3080			 MOVE.W	   D0,(A0)
000027D2 48680002		 PEA	   2(A0)			         $2
000027D6 3F10			 MOVE.W	   (A0),-(A7)
000027D8 486EFE7A		 PEA	   -390(A6)			         $FFFFFE7A
000027DC 3F00			 MOVE.W	   D0,-(A7)
000027DE 4EB900000000		 JSR	   C.MVFF000027E4 2D48FFDE		 MOVE.L	   A0,-34(A6)			         $FFFFFFDE
000027E8 3D40FFDC		 MOVE.W	   D0,-36(A6)			         $FFFFFFDC
000027EC 6100D8BC		 BSR.L	   B.4(PC)			         WRITE_STRING = CODE.+
000027F0 600000A4		 BRA.L	   L.27.19(PC)
		      *							       LINE 24/67
000027F4 2D6EFF54FFD0 L.27.17	 MOVE.L	   -172(A6),-48(A6)		         LOCAL_FOUR_BYTES  $FF
000027FA 41EEFE9A		 LEA	   -358(A6),A0			         $FFFFFE9A
000027FE 2D48FFCC		 MOVE.L	   A0,-52(A6)			         $FFFFFFCC
00002802 6100ED7A		 BSR.L	   B.8(PC)			         CONVERT_FOUR_BYTES = 
00002806 302EFE9A		 MOVE.W	   -358(A6),D0			         $FFFFFE9A
0000280A D07C0015		 ADD.W	   #21,D0			         $15
0000280E 486EFE7A		 PEA	   -390(A6)			         $FFFFFE7A
00002812 721F			 MOVEQ	   #31,D1			         $1F
00002814 3F01			 MOVE.W	   D1,-(A7)
00002816 487AF9B4		 PEA	   K.62(PC)			         CODE.+$21CC
0000281A 7215			 MOVEQ	   #21,D1			         $15
0000281C 3F01			 MOVE.W	   D1,-(A7)
0000281E 4EB900000000		 JSR	   C.MVFF
00002824 486EFE9C		 PEA	   -356(A6)			         $FFFFFE9C
00002828 3F2EFE9A		 MOVE.W	   -358(A6),-(A7)		         $FFFFFE9A
0000282C 4EB900000000		 JSR	   C.MVFR
00002832 3200			 MOVE.W	   D0,D1
00002834 5441			 ADDQ.W	   #2,D1			         $2
00002836 4841			 SWAP	   D1
00002838 4241			 CLR.W	   D1
0000283A 4841			 SWAP	   D1
0000283C 2F01			 MOVE.L	   D1,-(A7)
0000283E 4EB900000000		 JSR	   M.DYNTMB
00002844 204F			 MOVEA.L   A7,A0
00002846 3080			 MOVE.W	   D0,(A0)
00002848 48680002		 PEA	   2(A0)			         $2
0000284C 3F10			 MOVE.W	   (A0),-(A7)
0000284E 486EFE7A		 PEA	   -390(A6)			         $FFFFFE7A
00002852 3F00			 MOVE.W	   D0,-(A7)
00002854 4EB900000000		 JSR	   C.MVFF
0000285A 2D48FFDE		 MOVE.L	   A0,-34(A6)			         $FFFFFFDE
0000285E 3D40FFDC		 MOVE.W	   D0,-36(A6)			         $FFFFFFDC
00002862 6100D846		 BSR.L	   B.4(PC)			         WRITE_STRING = CODE.+
00002866 602E			 BRA.S	   L.27.19(PC)
		      *							       LINE 24/69
00002868 3D7C0016FE8E L.27.18	 MOVE.W	   #22,-370(A6)			         $16  $FFFFFE8E
0000286E 486EFE90		 PEA	   -368(A6)			         $FFFFFE90
00002872 3F2EFE8E		 MOVE.W	   -370(A6),-(A7)		         $FFFFFE8E
00002876 487AF96A		 PEA	   K.63(PC)			         CODE.+$21E2
0000287A 7016			 MOVEQ	   #22,D0			         $160000287C 3F00			 MOVE.W	   D0,-(A7)
0000287E 4EB900000000		 JSR	   C.MVFF
00002884 41EEFE8E		 LEA	   -370(A6),A0			         $FFFFFE8E
00002888 2D48FFF8		 MOVE.L	   A0,-8(A6)			         $FFFFFFF8
0000288C 3D7C0016FFF6		 MOVE.W	   #22,-10(A6)			         $16  $FFFFFFF6
00002892 6100D940		 BSR.L	   B.12(PC)			         ERROR = CODE.+$1D4
00002896 2E6EFDE2     L.27.19	 MOVEA.L   X.27.1(A6),A7
		      *							       LINE 24/71
0000289A 4E75			 RTS	   
0000289C 00	      K.64	 DC.B	   48				         $30
0000289D 00			 DC.B	   49				         $31
		      *
		      *		 Begin subroutine CONVERT_BINARY
		      *
0000289E	      B.28
		      *							       LINE 25/13
		      *							       LINE 25/14
0000289E 206EFF98     L.28.1	 MOVEA.L   -104(A6),A0			         CONVERT_BINARY
000028A2 4250			 CLR.W	   (A0)
		      *							       LINE 25/15
000028A4 7007	      L.28.2	 MOVEQ	   #7,D0			         $7
000028A6 2D40FF70		 MOVE.L	   D0,-144(A6)			         LOCAL_COUNTER
000028AA	      L.28.3
		      *							       LINE 25/15 (2)
		      *							       LINE 25/16
000028AA 206EFF98     L.28.4	 MOVEA.L   -104(A6),A0			         CONVERT_BINARY
000028AE 3010			 MOVE.W	   (A0),D0
000028B0 2D7C00000001		 MOVE.L	   #1,-128(A6)			         $1  $FFFFFF80
	 FF80
000028B8 2D6EFF70FF7C		 MOVE.L	   -144(A6),-132(A6)		         LOCAL_COUNTER  $FFFFF
000028BE 2D6EFF9CFF78		 MOVE.L	   -100(A6),-136(A6)		         INPUT_ONE_BYTE  $FFFF
000028C4 43EEFF34		 LEA	   -204(A6),A1			         $FFFFFF34
000028C8 2D49FF74		 MOVE.L	   A1,-140(A6)			         $FFFFFF74
000028CC 48EE0101FF2C		 MOVEM.L   #257,-212(A6)		         $101  $FFFFFF2C
000028D2 6100F4FC		 BSR.L	   B.24(PC)			         GET_BITS = CODE.+$1DD
000028D6 4CEE0101FF2C		 MOVEM.L   -212(A6),#257		         $FFFFFF2C  $101
000028DC 222EFF34		 MOVE.L	   -204(A6),D1			         $FFFFFF34
000028E0 7401			 MOVEQ	   #1,D2			         $1
000028E2 B282			 CMP.L	   D2,D1
000028E4 6F06			 BLE.S	   X.28.3(PC)
000028E6 4EB900000000		 JSR	   E.INDEX
000028EC 43FAFFAE     X.28.3	 LEA	   K.64(PC),A1			         CODE.+$289C
000028F0 5240			 ADDQ.W	   #1,D0			         $1
000028F2 486EFF22		 PEA	   -222(A6)			         $FFFFFF22
000028F6 740A			 MOVEQ	   #10,D2			         $A000028F8 3F02			 MOVE.W	   D2,-(A7)
000028FA 48680002		 PEA	   2(A0)			         $2
000028FE 3F10			 MOVE.W	   (A0),-(A7)
00002900 4EB900000000		 JSR	   C.MVFF
00002906 1F311800		 MOVE.B	   0(A1,D1.L),-(A7)		         $0
0000290A 4EB900000000		 JSR	   C.MVCR
00002910 206EFF98		 MOVEA.L   -104(A6),A0			         CONVERT_BINARY
00002914 3200			 MOVE.W	   D0,D1
00002916 0C41000A		 CMPI.W	   #10,D1			         $A
0000291A 6F04			 BLE.S	   X.28.4(PC)
0000291C 323C000A		 MOVE.W	   #10,D1			         $A
00002920 3081	      X.28.4	 MOVE.W	   D1,(A0)
00002922 48680002		 PEA	   2(A0)			         $2
00002926 720A			 MOVEQ	   #10,D1			         $A
00002928 3F01			 MOVE.W	   D1,-(A7)
0000292A 486EFF22		 PEA	   -222(A6)			         $FFFFFF22
0000292E 3F00			 MOVE.W	   D0,-(A7)
00002930 4EB900000000		 JSR	   C.MVFF
		      *							       LINE 25/18
00002936 7004			 MOVEQ	   #4,D0			         $4
00002938 B0AEFF70		 CMP.L	   -144(A6),D0			         LOCAL_COUNTER
0000293C 664C			 BNE.S	   L.28.6(PC)
		      *							       LINE 25/19
0000293E 206EFF98     L.28.5	 MOVEA.L   -104(A6),A0			         CONVERT_BINARY
00002942 3010			 MOVE.W	   (A0),D0
00002944 5240			 ADDQ.W	   #1,D0			         $1
00002946 486EFF2E		 PEA	   -210(A6)			         $FFFFFF2E
0000294A 720A			 MOVEQ	   #10,D1			         $A
0000294C 3F01			 MOVE.W	   D1,-(A7)
0000294E 48680002		 PEA	   2(A0)			         $2
00002952 3F10			 MOVE.W	   (A0),-(A7)
00002954 4EB900000000		 JSR	   C.MVFF
0000295A 7220			 MOVEQ	   #32,D1			         $20
0000295C 1F01			 MOVE.B	   D1,-(A7)
0000295E 4EB900000000		 JSR	   C.MVCR
00002964 206EFF98		 MOVEA.L   -104(A6),A0			         CONVERT_BINARY
00002968 3200			 MOVE.W	   D0,D1
0000296A 0C41000A		 CMPI.W	   #10,D1			         $A
0000296E 6F04			 BLE.S	   X.28.5(PC)
00002970 323C000A		 MOVE.W	   #10,D1			         $A
00002974 3081	      X.28.5	 MOVE.W	   D1,(A0)
00002976 48680002		 PEA	   2(A0)			         $2
0000297A 720A			 MOVEQ	   #10,D1			         $A
0000297C 3F01			 MOVE.W	   D1,-(A7)
0000297E 486EFF2E		 PEA	   -210(A6)			         $FFFFFF2E00002982 3F00			 MOVE.W	   D0,-(A7)
00002984 4EB900000000		 JSR	   C.MVFF
		      *							       LINE 25/20
0000298A 202EFF70     L.28.6	 MOVE.L	   -144(A6),D0			         LOCAL_COUNTER
0000298E 5380			 SUBQ.L	   #1,D0			         $1
00002990 2D40FF70		 MOVE.L	   D0,-144(A6)			         LOCAL_COUNTER
00002994 4A80			 TST.L	   D0
00002996 6C00FF12		 BGE.L	   L.28.3(PC)
		      *							       LINE 25/21
0000299A 4E75	      L.28.7	 RTS	   
0000299C	      K.65
0000299C 546578742072 K.66	 DC.B	   'Text record:'
000029A8 2020204D6170 K.67	 DC.B	   '   Map byte = $'
000029B7 00000001		 DS.B	   1
000029B8 202028	      K.68	 DC.B	   '  ('
000029BB 00000001		 DS.B	   1
000029BC 202020455344 K.69	 DC.B	   '   ESDID = $'
000029C8 202028	      K.70	 DC.B	   '  ('
000029CB 00000001		 DS.B	   1
000029CC	      K.71
000029CC	      K.72
000029CC 496E636F7272 K.73	 DC.B	   'Incorrect Text Record byte count.'
000029ED 00000001		 DS.B	   1
		      *
		      *		 Begin subroutine PROCESS_TEXT_RECORD
		      *
000029EE 2D4FFD9A     B.29	 MOVE.L	   A7,X.29.1(A6)
		      *							       LINE 26/14
		      *							       LINE 26/15
000029F2 6100EC06     L.29.1	 BSR.L	   B.14(PC)			         CHECK_ID_FLAG = CODE.
		      *							       LINE 26/16
000029F6 6100EC5C		 BSR.L	   B.15(PC)			         CHECK_END_FLAG = CODE
		      *							       LINE 26/17
000029FA 2D7C00000001		 MOVE.L	   #1,-124(A6)			         $1  $FFFFFF84
	 FF84
00002A02 6100F4A6		 BSR.L	   B.25(PC)			         DECREMENT_CHECK_BYTE 
		      *							       LINE 26/18
00002A06 426EFDE0		 CLR.W	   -544(A6)			         $FFFFFDE0
00002A0A 41EEFDE0		 LEA	   -544(A6),A0			         $FFFFFDE0
00002A0E 2D48FFDE		 MOVE.L	   A0,-34(A6)			         $FFFFFFDE
00002A12 426EFFDC		 CLR.W	   -36(A6)			         $FFFFFFDC
00002A16 6100D692		 BSR.L	   B.4(PC)			         WRITE_STRING = CODE.+
		      *							       LINE 26/19
00002A1A 3D7C000CFDD4		 MOVE.W	   #12,-556(A6)			         $C  $FFFFFDD4
00002A20 486EFDD6		 PEA	   -554(A6)			         $FFFFFDD600002A24 3F2EFDD4		 MOVE.W	   -556(A6),-(A7)		         $FFFFFDD4
00002A28 487AFF72		 PEA	   K.66(PC)			         CODE.+$299C
00002A2C 700C			 MOVEQ	   #12,D0			         $C
00002A2E 3F00			 MOVE.W	   D0,-(A7)
00002A30 4EB900000000		 JSR	   C.MVFF
00002A36 41EEFDD4		 LEA	   -556(A6),A0			         $FFFFFDD4
00002A3A 2D48FFDE		 MOVE.L	   A0,-34(A6)			         $FFFFFFDE
00002A3E 3D7C000CFFDC		 MOVE.W	   #12,-36(A6)			         $C  $FFFFFFDC
00002A44 6100D664		 BSR.L	   B.4(PC)			         WRITE_STRING = CODE.+
		      *							       LINE 26/20
00002A48 7001	      L.29.2	 MOVEQ	   #1,D0			         $1
00002A4A 2D40FFB4		 MOVE.L	   D0,-76(A6)			         LOCAL_COUNTER
00002A4E 2E6EFD9A     L.29.3	 MOVEA.L   X.29.1(A6),A7
		      *							       LINE 26/20 (2)
		      *							       LINE 26/21
00002A52 202EFFB4     L.29.4	 MOVE.L	   -76(A6),D0			         LOCAL_COUNTER
00002A56 4A80			 TST.L	   D0
00002A58 6E06			 BGT.S	   X.29.3(PC)
00002A5A 4EB900000000 X.29.4	 JSR	   E.INDEX
00002A60 7204	      X.29.3	 MOVEQ	   #4,D1			         $4
00002A62 B081			 CMP.L	   D1,D0
00002A64 6EF4			 BGT.S	   X.29.4(PC)
00002A66 E540			 ASL.W	   #2,D0			         $2
00002A68 41EEFFA0		 LEA	   -92-4(A6),A0			         LOCAL_MAP
00002A6C 41F00000		 LEA	   0(A0,D0.W),A0		         $0
00002A70 2D48FFFC		 MOVE.L	   A0,-4(A6)			         $FFFFFFFC
00002A74 6100D842		 BSR.L	   B.16(PC)			         READ_ONE_BYTE = CODE.
		      *							       LINE 26/22
00002A78 6100DF54		 BSR.L	   B.13(PC)			         CHECK_EOF_FLAG = CODE
		      *							       LINE 26/23
00002A7C 2D7C00000001		 MOVE.L	   #1,-124(A6)			         $1  $FFFFFF84
	 FF84
00002A84 6100F424		 BSR.L	   B.25(PC)			         DECREMENT_CHECK_BYTE 
		      *							       LINE 26/24
00002A88 202EFFB4		 MOVE.L	   -76(A6),D0			         LOCAL_COUNTER
00002A8C 4A80			 TST.L	   D0
00002A8E 6E06			 BGT.S	   X.29.5(PC)
00002A90 4EB900000000 X.29.6	 JSR	   E.INDEX
00002A96 7204	      X.29.5	 MOVEQ	   #4,D1			         $4
00002A98 B081			 CMP.L	   D1,D0
00002A9A 6EF4			 BGT.S	   X.29.6(PC)
00002A9C E540			 ASL.W	   #2,D0			         $2
00002A9E 41EEFFA0		 LEA	   -92-4(A6),A0			         LOCAL_MAP
00002AA2 2D700000FFE6		 MOVE.L	   0(A0,D0.W),-26(A6)		         $0  $FFFFFFE6
00002AA8 41EEFDD6		 LEA	   -554(A6),A0			         $FFFFFDD600002AAC 2D48FFE2		 MOVE.L	   A0,-30(A6)			         $FFFFFFE2
00002AB0 6100D65A		 BSR.L	   B.5(PC)			         CONVERT_ONE_BYTE = CO
00002AB4 302EFDD6		 MOVE.W	   -554(A6),D0			         $FFFFFDD6
00002AB8 222EFFB4		 MOVE.L	   -76(A6),D1			         LOCAL_COUNTER
00002ABC 4A81			 TST.L	   D1
00002ABE 6E06			 BGT.S	   X.29.7(PC)
00002AC0 4EB900000000 X.29.8	 JSR	   E.INDEX
00002AC6 7404	      X.29.7	 MOVEQ	   #4,D2			         $4
00002AC8 B282			 CMP.L	   D2,D1
00002ACA 6EF4			 BGT.S	   X.29.8(PC)
00002ACC E541			 ASL.W	   #2,D1			         $2
00002ACE 41EEFFA0		 LEA	   -92-4(A6),A0			         LOCAL_MAP
00002AD2 2D701000FF9C		 MOVE.L	   0(A0,D1.W),-100(A6)		         $0  $FFFFFF9C
00002AD8 41EEFDCA		 LEA	   -566(A6),A0			         $FFFFFDCA
00002ADC 2D48FF98		 MOVE.L	   A0,-104(A6)			         $FFFFFF98
00002AE0 2D40FDC6		 MOVE.L	   D0,-570(A6)			         $FFFFFDC6
00002AE4 6100FDB8		 BSR.L	   B.28(PC)			         CONVERT_BINARY = CODE
00002AE8 202EFDC6		 MOVE.L	   -570(A6),D0			         $FFFFFDC6
00002AEC D06EFDCA		 ADD.W	   -566(A6),D0			         $FFFFFDCA
00002AF0 D07C0013		 ADD.W	   #19,D0			         $13
00002AF4 486EFD9E		 PEA	   -610(A6)			         $FFFFFD9E
00002AF8 7227			 MOVEQ	   #39,D1			         $27
00002AFA 3F01			 MOVE.W	   D1,-(A7)
00002AFC 487AFEAA		 PEA	   K.67(PC)			         CODE.+$29A8
00002B00 720F			 MOVEQ	   #15,D1			         $F
00002B02 3F01			 MOVE.W	   D1,-(A7)
00002B04 4EB900000000		 JSR	   C.MVFF
00002B0A 486EFDD8		 PEA	   -552(A6)			         $FFFFFDD8
00002B0E 3F2EFDD6		 MOVE.W	   -554(A6),-(A7)		         $FFFFFDD6
00002B12 4EB900000000		 JSR	   C.MVFR
00002B18 487AFE9E		 PEA	   K.68(PC)			         CODE.+$29B8
00002B1C 7203			 MOVEQ	   #3,D1			         $3
00002B1E 3F01			 MOVE.W	   D1,-(A7)
00002B20 4EB900000000		 JSR	   C.MVFR
00002B26 486EFDCC		 PEA	   -564(A6)			         $FFFFFDCC
00002B2A 3F2EFDCA		 MOVE.W	   -566(A6),-(A7)		         $FFFFFDCA
00002B2E 4EB900000000		 JSR	   C.MVFR
00002B34 7229			 MOVEQ	   #41,D1			         $29
00002B36 1F01			 MOVE.B	   D1,-(A7)
00002B38 4EB900000000		 JSR	   C.MVCR
00002B3E 3200			 MOVE.W	   D0,D1
00002B40 5441			 ADDQ.W	   #2,D1			         $2
00002B42 4841			 SWAP	   D1
00002B44 4241			 CLR.W	   D1
00002B46 4841			 SWAP	   D100002B48 2F01			 MOVE.L	   D1,-(A7)
00002B4A 4EB900000000		 JSR	   M.DYNTMB
00002B50 204F			 MOVEA.L   A7,A0
00002B52 3080			 MOVE.W	   D0,(A0)
00002B54 48680002		 PEA	   2(A0)			         $2
00002B58 3F10			 MOVE.W	   (A0),-(A7)
00002B5A 486EFD9E		 PEA	   -610(A6)			         $FFFFFD9E
00002B5E 3F00			 MOVE.W	   D0,-(A7)
00002B60 4EB900000000		 JSR	   C.MVFF
00002B66 2D48FFDE		 MOVE.L	   A0,-34(A6)			         $FFFFFFDE
00002B6A 3D40FFDC		 MOVE.W	   D0,-36(A6)			         $FFFFFFDC
00002B6E 6100D53A		 BSR.L	   B.4(PC)			         WRITE_STRING = CODE.+
		      *							       LINE 26/29
00002B72 202EFFB4		 MOVE.L	   -76(A6),D0			         LOCAL_COUNTER
00002B76 5280			 ADDQ.L	   #1,D0			         $1
00002B78 2D40FFB4		 MOVE.L	   D0,-76(A6)			         LOCAL_COUNTER
00002B7C 7204			 MOVEQ	   #4,D1			         $4
00002B7E B081			 CMP.L	   D1,D0
00002B80 6F00FECC		 BLE.L	   L.29.3(PC)
00002B84 2E6EFD9A     L.29.5	 MOVEA.L   X.29.1(A6),A7
		      *							       LINE 26/30
00002B88 41EEFFA0		 LEA	   -96(A6),A0			         LOCAL_ESDID
00002B8C 2D48FFFC		 MOVE.L	   A0,-4(A6)			         $FFFFFFFC
00002B90 6100D726		 BSR.L	   B.16(PC)			         READ_ONE_BYTE = CODE.
		      *							       LINE 26/31
00002B94 6100DE38		 BSR.L	   B.13(PC)			         CHECK_EOF_FLAG = CODE
		      *							       LINE 26/32
00002B98 2D7C00000001		 MOVE.L	   #1,-124(A6)			         $1  $FFFFFF84
	 FF84
00002BA0 6100F308		 BSR.L	   B.25(PC)			         DECREMENT_CHECK_BYTE 
		      *							       LINE 26/33
00002BA4 2D6EFFA0FFE6		 MOVE.L	   -96(A6),-26(A6)		         LOCAL_ESDID  $FFFFFFE
00002BAA 41EEFDD6		 LEA	   -554(A6),A0			         $FFFFFDD6
00002BAE 2D48FFE2		 MOVE.L	   A0,-30(A6)			         $FFFFFFE2
00002BB2 6100D558		 BSR.L	   B.5(PC)			         CONVERT_ONE_BYTE = CO
00002BB6 302EFDD6		 MOVE.W	   -554(A6),D0			         $FFFFFDD6
00002BBA 42AEFFF2		 CLR.L	   -14(A6)			         $FFFFFFF2
00002BBE 2D6EFFA0FFEE		 MOVE.L	   -96(A6),-18(A6)		         LOCAL_ESDID  $FFFFFFE
00002BC4 41EEFDCA		 LEA	   -566(A6),A0			         $FFFFFDCA
00002BC8 2D48FFEA		 MOVE.L	   A0,-22(A6)			         $FFFFFFEA
00002BCC 2D40FDC6		 MOVE.L	   D0,-570(A6)			         $FFFFFDC6
00002BD0 6100D586		 BSR.L	   B.9(PC)			         CONVERT_DECIMAL = COD
00002BD4 202EFDC6		 MOVE.L	   -570(A6),D0			         $FFFFFDC6
00002BD8 D06EFDCA		 ADD.W	   -566(A6),D0			         $FFFFFDCA
00002BDC D07C0010		 ADD.W	   #16,D0			         $1000002BE0 486EFDA2		 PEA	   -606(A6)			         $FFFFFDA2
00002BE4 7224			 MOVEQ	   #36,D1			         $24
00002BE6 3F01			 MOVE.W	   D1,-(A7)
00002BE8 487AFDD2		 PEA	   K.69(PC)			         CODE.+$29BC
00002BEC 720C			 MOVEQ	   #12,D1			         $C
00002BEE 3F01			 MOVE.W	   D1,-(A7)
00002BF0 4EB900000000		 JSR	   C.MVFF
00002BF6 486EFDD8		 PEA	   -552(A6)			         $FFFFFDD8
00002BFA 3F2EFDD6		 MOVE.W	   -554(A6),-(A7)		         $FFFFFDD6
00002BFE 4EB900000000		 JSR	   C.MVFR
00002C04 487AFDC2		 PEA	   K.70(PC)			         CODE.+$29C8
00002C08 7203			 MOVEQ	   #3,D1			         $3
00002C0A 3F01			 MOVE.W	   D1,-(A7)
00002C0C 4EB900000000		 JSR	   C.MVFR
00002C12 486EFDCC		 PEA	   -564(A6)			         $FFFFFDCC
00002C16 3F2EFDCA		 MOVE.W	   -566(A6),-(A7)		         $FFFFFDCA
00002C1A 4EB900000000		 JSR	   C.MVFR
00002C20 7229			 MOVEQ	   #41,D1			         $29
00002C22 1F01			 MOVE.B	   D1,-(A7)
00002C24 4EB900000000		 JSR	   C.MVCR
00002C2A 3200			 MOVE.W	   D0,D1
00002C2C 5441			 ADDQ.W	   #2,D1			         $2
00002C2E 4841			 SWAP	   D1
00002C30 4241			 CLR.W	   D1
00002C32 4841			 SWAP	   D1
00002C34 2F01			 MOVE.L	   D1,-(A7)
00002C36 4EB900000000		 JSR	   M.DYNTMB
00002C3C 204F			 MOVEA.L   A7,A0
00002C3E 3080			 MOVE.W	   D0,(A0)
00002C40 48680002		 PEA	   2(A0)			         $2
00002C44 3F10			 MOVE.W	   (A0),-(A7)
00002C46 486EFDA2		 PEA	   -606(A6)			         $FFFFFDA2
00002C4A 3F00			 MOVE.W	   D0,-(A7)
00002C4C 4EB900000000		 JSR	   C.MVFF
00002C52 2D48FFDE		 MOVE.L	   A0,-34(A6)			         $FFFFFFDE
00002C56 3D40FFDC		 MOVE.W	   D0,-36(A6)			         $FFFFFFDC
00002C5A 6100D44E		 BSR.L	   B.4(PC)			         WRITE_STRING = CODE.+
		      *							       LINE 26/38
00002C5E 426EFDE0		 CLR.W	   -544(A6)			         $FFFFFDE0
00002C62 41EEFDE0		 LEA	   -544(A6),A0			         $FFFFFDE0
00002C66 2D48FFDE		 MOVE.L	   A0,-34(A6)			         $FFFFFFDE
00002C6A 426EFFDC		 CLR.W	   -36(A6)			         $FFFFFFDC
00002C6E 6100D43A		 BSR.L	   B.4(PC)			         WRITE_STRING = CODE.+
		      *							       LINE 26/39
00002C72 7000			 MOVEQ	   #0,D0			         $000002C74 2D40FFB4		 MOVE.L	   D0,-76(A6)			         LOCAL_COUNTER
00002C78 2E6EFD9A     L.29.6	 MOVEA.L   X.29.1(A6),A7
		      *							       LINE 26/40
00002C7C 7020			 MOVEQ	   #32,D0			         $20
00002C7E B0AEFFB4		 CMP.L	   -76(A6),D0			         LOCAL_COUNTER
00002C82 6F0000A0		 BLE.L	   L.29.12(PC)
00002C86 4AAD000C     L.29.7	 TST.L	   STATIC.+12(A5)		         BYTE_COUNT
00002C8A 6F000098		 BLE.L	   L.29.12(PC)
		      *							       LINE 26/41
		      *							       LINE 26/42
00002C8E 2D7C00000001 L.29.8	 MOVE.L	   #1,-128(A6)			         $1  $FFFFFF80
	 FF80
00002C96 202EFFB4		 MOVE.L	   -76(A6),D0			         LOCAL_COUNTER
00002C9A C07C0007		 AND.W	   #7,D0			         $7
00002C9E 5F00			 SUBQ.B	   #7,D0			         $7
00002CA0 4400			 NEG.B	   D0
00002CA2 4A00			 TST.B	   D0
00002CA4 6C06			 BGE.S	   X.29.9(PC)
00002CA6 4EB900000000 X.29.10	 JSR	   E.VALUE
00002CAC 7207	      X.29.9	 MOVEQ	   #7,D1			         $7
00002CAE B001			 CMP.B	   D1,D0
00002CB0 6EF4			 BGT.S	   X.29.10(PC)
00002CB2 4880			 EXT.W	   D0
00002CB4 48C0			 EXT.L	   D0
00002CB6 2D40FF7C		 MOVE.L	   D0,-132(A6)			         $FFFFFF7C
00002CBA 202EFFB4		 MOVE.L	   -76(A6),D0			         LOCAL_COUNTER
00002CBE E688			 LSR.L	   #3,D0			         $3
00002CC0 5280			 ADDQ.L	   #1,D0			         $1
00002CC2 4A00			 TST.B	   D0
00002CC4 6E06			 BGT.S	   X.29.11(PC)
00002CC6 4EB900000000 X.29.12	 JSR	   E.INDEX
00002CCC 7204	      X.29.11	 MOVEQ	   #4,D1			         $4
00002CCE B001			 CMP.B	   D1,D0
00002CD0 6EF4			 BGT.S	   X.29.12(PC)
00002CD2 E540			 ASL.W	   #2,D0			         $2
00002CD4 41EEFFA0		 LEA	   -92-4(A6),A0			         LOCAL_MAP
00002CD8 2D700000FF78		 MOVE.L	   0(A0,D0.W),-136(A6)		         $0  $FFFFFF78
00002CDE 41EEFDDE		 LEA	   -546(A6),A0			         $FFFFFDDE
00002CE2 2D48FF74		 MOVE.L	   A0,-140(A6)			         $FFFFFF74
00002CE6 6100F0E8		 BSR.L	   B.24(PC)			         GET_BITS = CODE.+$1DD
00002CEA 4AAEFDDE		 TST.L	   -546(A6)			         $FFFFFDDE
00002CEE 660C			 BNE.S	   L.29.10(PC)
		      *							       LINE 26/44
00002CF0 2D6EFFB4FF90 L.29.9	 MOVE.L	   -76(A6),-112(A6)		         LOCAL_COUNTER  $FFFFF
00002CF6 6100F268		 BSR.L	   B.26(PC)			         PROCESS_ABSOLUTE_COD 00002CFA 600A			 BRA.S	   L.29.11(PC)
		      *							       LINE 26/46
00002CFC 2D6EFFB4FF94 L.29.10	 MOVE.L	   -76(A6),-108(A6)		         LOCAL_COUNTER  $FFFFF
00002D02 6100F4F4		 BSR.L	   B.27(PC)			         PROCESS_RELOCATION_D 
		      *							       LINE 26/47
00002D06 202EFFB4     L.29.11	 MOVE.L	   -76(A6),D0			         LOCAL_COUNTER
00002D0A 5280			 ADDQ.L	   #1,D0			         $1
00002D0C 4A00			 TST.B	   D0
00002D0E 6C06			 BGE.S	   X.29.13(PC)
00002D10 4EB900000000 X.29.14	 JSR	   E.VALUE
00002D16 7220	      X.29.13	 MOVEQ	   #32,D1			         $20
00002D18 B001			 CMP.B	   D1,D0
00002D1A 6EF4			 BGT.S	   X.29.14(PC)
00002D1C 2D40FFB4		 MOVE.L	   D0,-76(A6)			         LOCAL_COUNTER
		      *							       LINE 26/48
00002D20 6000FF56		 BRA.L	   L.29.6(PC)
		      *							       LINE 26/49
00002D24 426EFDE0     L.29.12	 CLR.W	   -544(A6)			         $FFFFFDE0
00002D28 41EEFDE0		 LEA	   -544(A6),A0			         $FFFFFDE0
00002D2C 2D48FFDE		 MOVE.L	   A0,-34(A6)			         $FFFFFFDE
00002D30 426EFFDC		 CLR.W	   -36(A6)			         $FFFFFFDC
00002D34 6100D374		 BSR.L	   B.4(PC)			         WRITE_STRING = CODE.+
		      *							       LINE 26/50
00002D38 4AAD000C		 TST.L	   STATIC.+12(A5)		         BYTE_COUNT
00002D3C 672E			 BEQ.S	   L.29.14(PC)
		      *							       LINE 26/51
00002D3E 3D7C0021FDBE L.29.13	 MOVE.W	   #33,-578(A6)			         $21  $FFFFFDBE
00002D44 486EFDC0		 PEA	   -576(A6)			         $FFFFFDC0
00002D48 3F2EFDBE		 MOVE.W	   -578(A6),-(A7)		         $FFFFFDBE
00002D4C 487AFC7E		 PEA	   K.73(PC)			         CODE.+$29CC
00002D50 7021			 MOVEQ	   #33,D0			         $21
00002D52 3F00			 MOVE.W	   D0,-(A7)
00002D54 4EB900000000		 JSR	   C.MVFF
00002D5A 41EEFDBE		 LEA	   -578(A6),A0			         $FFFFFDBE
00002D5E 2D48FFF8		 MOVE.L	   A0,-8(A6)			         $FFFFFFF8
00002D62 3D7C0021FFF6		 MOVE.W	   #33,-10(A6)			         $21  $FFFFFFF6
00002D68 6100D46A		 BSR.L	   B.12(PC)			         ERROR = CODE.+$1D4
		      *							       LINE 26/52
00002D6C 4E75	      L.29.14	 RTS	   
00002D6E 5265636F7264 K.74	 DC.B	   'Record encountered before Identification Record.'
00002D9E	      K.75
00002D9E 456E64207265 K.76	 DC.B	   'End record:'
00002DA9 00000001		 DS.B	   1
00002DAA 202020537461 K.77	 DC.B	   '   Starting execution section = $'
00002DCB 00000001		 DS.B	   100002DCC 202028	      K.78	 DC.B	   '  ('
00002DCF 00000001		 DS.B	   1
00002DD0 202020537461 K.79	 DC.B	   '   Starting execution address = $'
00002DF1 00000001		 DS.B	   1
		      *
		      *		 Begin subroutine PROCESS_END_RECORD
		      *
00002DF2 2D4FFE5E     B.30	 MOVE.L	   A7,X.30.1(A6)
		      *							       LINE 27/10
		      *							       LINE 27/11
00002DF6 4A2D0002     L.30.1	 TST.B	   STATIC.+2(A5)		         ID_FLAG
00002DFA 662E			 BNE.S	   L.30.3(PC)
		      *							       LINE 27/12
00002DFC 3D7C0030FE86 L.30.2	 MOVE.W	   #48,-378(A6)			         $30  $FFFFFE86
00002E02 486EFE88		 PEA	   -376(A6)			         $FFFFFE88
00002E06 3F2EFE86		 MOVE.W	   -378(A6),-(A7)		         $FFFFFE86
00002E0A 487AFF62		 PEA	   K.74(PC)			         CODE.+$2D6E
00002E0E 7030			 MOVEQ	   #48,D0			         $30
00002E10 3F00			 MOVE.W	   D0,-(A7)
00002E12 4EB900000000		 JSR	   C.MVFF
00002E18 41EEFE86		 LEA	   -378(A6),A0			         $FFFFFE86
00002E1C 2D48FFBA		 MOVE.L	   A0,-70(A6)			         $FFFFFFBA
00002E20 3D7C0030FFB8		 MOVE.W	   #48,-72(A6)			         $30  $FFFFFFB8
00002E26 6100DAB6		 BSR.L	   B.11(PC)			         WARNING = CODE.+$8DE
		      *							       LINE 27/13
00002E2A 426EFEB6     L.30.3	 CLR.W	   -330(A6)			         $FFFFFEB6
00002E2E 41EEFEB6		 LEA	   -330(A6),A0			         $FFFFFEB6
00002E32 2D48FFDE		 MOVE.L	   A0,-34(A6)			         $FFFFFFDE
00002E36 426EFFDC		 CLR.W	   -36(A6)			         $FFFFFFDC
00002E3A 6100D26E		 BSR.L	   B.4(PC)			         WRITE_STRING = CODE.+
		      *							       LINE 27/14
00002E3E 3D7C000BFEAA		 MOVE.W	   #11,-342(A6)			         $B  $FFFFFEAA
00002E44 486EFEAC		 PEA	   -340(A6)			         $FFFFFEAC
00002E48 3F2EFEAA		 MOVE.W	   -342(A6),-(A7)		         $FFFFFEAA
00002E4C 487AFF50		 PEA	   K.76(PC)			         CODE.+$2D9E
00002E50 700B			 MOVEQ	   #11,D0			         $B
00002E52 3F00			 MOVE.W	   D0,-(A7)
00002E54 4EB900000000		 JSR	   C.MVFF
00002E5A 41EEFEAA		 LEA	   -342(A6),A0			         $FFFFFEAA
00002E5E 2D48FFDE		 MOVE.L	   A0,-34(A6)			         $FFFFFFDE
00002E62 3D7C000BFFDC		 MOVE.W	   #11,-36(A6)			         $B  $FFFFFFDC
00002E68 6100D240		 BSR.L	   B.4(PC)			         WRITE_STRING = CODE.+
		      *							       LINE 27/15
00002E6C 41EEFFB4		 LEA	   -76(A6),A0			         LOCAL_ONE_BYTE
00002E70 2D48FFFC		 MOVE.L	   A0,-4(A6)			         $FFFFFFFC00002E74 6100D442		 BSR.L	   B.16(PC)			         READ_ONE_BYTE = CODE.
		      *							       LINE 27/16
00002E78 6100DB54		 BSR.L	   B.13(PC)			         CHECK_EOF_FLAG = CODE
		      *							       LINE 27/17
00002E7C 2D6EFFB4FFE6		 MOVE.L	   -76(A6),-26(A6)		         LOCAL_ONE_BYTE  $FFFF
00002E82 41EEFEAC		 LEA	   -340(A6),A0			         $FFFFFEAC
00002E86 2D48FFE2		 MOVE.L	   A0,-30(A6)			         $FFFFFFE2
00002E8A 6100D280		 BSR.L	   B.5(PC)			         CONVERT_ONE_BYTE = CO
00002E8E 302EFEAC		 MOVE.W	   -340(A6),D0			         $FFFFFEAC
00002E92 42AEFFF2		 CLR.L	   -14(A6)			         $FFFFFFF2
00002E96 2D6EFFB4FFEE		 MOVE.L	   -76(A6),-18(A6)		         LOCAL_ONE_BYTE  $FFFF
00002E9C 41EEFEA0		 LEA	   -352(A6),A0			         $FFFFFEA0
00002EA0 2D48FFEA		 MOVE.L	   A0,-22(A6)			         $FFFFFFEA
00002EA4 2D40FE9C		 MOVE.L	   D0,-356(A6)			         $FFFFFE9C
00002EA8 6100D2AE		 BSR.L	   B.9(PC)			         CONVERT_DECIMAL = COD
00002EAC 202EFE9C		 MOVE.L	   -356(A6),D0			         $FFFFFE9C
00002EB0 D06EFEA0		 ADD.W	   -352(A6),D0			         $FFFFFEA0
00002EB4 D07C0025		 ADD.W	   #37,D0			         $25
00002EB8 486EFE62		 PEA	   -414(A6)			         $FFFFFE62
00002EBC 7239			 MOVEQ	   #57,D1			         $39
00002EBE 3F01			 MOVE.W	   D1,-(A7)
00002EC0 487AFEE8		 PEA	   K.77(PC)			         CODE.+$2DAA
00002EC4 7221			 MOVEQ	   #33,D1			         $21
00002EC6 3F01			 MOVE.W	   D1,-(A7)
00002EC8 4EB900000000		 JSR	   C.MVFF
00002ECE 486EFEAE		 PEA	   -338(A6)			         $FFFFFEAE
00002ED2 3F2EFEAC		 MOVE.W	   -340(A6),-(A7)		         $FFFFFEAC
00002ED6 4EB900000000		 JSR	   C.MVFR
00002EDC 487AFEEE		 PEA	   K.78(PC)			         CODE.+$2DCC
00002EE0 7203			 MOVEQ	   #3,D1			         $3
00002EE2 3F01			 MOVE.W	   D1,-(A7)
00002EE4 4EB900000000		 JSR	   C.MVFR
00002EEA 486EFEA2		 PEA	   -350(A6)			         $FFFFFEA2
00002EEE 3F2EFEA0		 MOVE.W	   -352(A6),-(A7)		         $FFFFFEA0
00002EF2 4EB900000000		 JSR	   C.MVFR
00002EF8 7229			 MOVEQ	   #41,D1			         $29
00002EFA 1F01			 MOVE.B	   D1,-(A7)
00002EFC 4EB900000000		 JSR	   C.MVCR
00002F02 3200			 MOVE.W	   D0,D1
00002F04 5441			 ADDQ.W	   #2,D1			         $2
00002F06 4841			 SWAP	   D1
00002F08 4241			 CLR.W	   D1
00002F0A 4841			 SWAP	   D1
00002F0C 2F01			 MOVE.L	   D1,-(A7)
00002F0E 4EB900000000		 JSR	   M.DYNTMB00002F14 204F			 MOVEA.L   A7,A0
00002F16 3080			 MOVE.W	   D0,(A0)
00002F18 48680002		 PEA	   2(A0)			         $2
00002F1C 3F10			 MOVE.W	   (A0),-(A7)
00002F1E 486EFE62		 PEA	   -414(A6)			         $FFFFFE62
00002F22 3F00			 MOVE.W	   D0,-(A7)
00002F24 4EB900000000		 JSR	   C.MVFF
00002F2A 2D48FFDE		 MOVE.L	   A0,-34(A6)			         $FFFFFFDE
00002F2E 3D40FFDC		 MOVE.W	   D0,-36(A6)			         $FFFFFFDC
00002F32 6100D176		 BSR.L	   B.4(PC)			         WRITE_STRING = CODE.+
		      *							       LINE 27/22
00002F36 7011			 MOVEQ	   #17,D0			         $11
00002F38 B0AEFFB4		 CMP.L	   -76(A6),D0			         LOCAL_ONE_BYTE
00002F3C 6F000084		 BLE.L	   L.30.5(PC)
00002F40 2E6EFE5E     L.30.4	 MOVEA.L   X.30.1(A6),A7
		      *							       LINE 27/22 (2)
		      *							       LINE 27/23
00002F44 41EEFFB0		 LEA	   -80(A6),A0			         LOCAL_FOUR_BYTES
00002F48 2D48FFD4		 MOVE.L	   A0,-44(A6)			         $FFFFFFD4
00002F4C 6100E73C		 BSR.L	   B.19(PC)			         READ_FOUR_BYTES = COD
		      *							       LINE 27/24
00002F50 2D6EFFB0FFD0		 MOVE.L	   -80(A6),-48(A6)		         LOCAL_FOUR_BYTES  $FF
00002F56 41EEFEAC		 LEA	   -340(A6),A0			         $FFFFFEAC
00002F5A 2D48FFCC		 MOVE.L	   A0,-52(A6)			         $FFFFFFCC
00002F5E 6100E61E		 BSR.L	   B.8(PC)			         CONVERT_FOUR_BYTES = 
00002F62 302EFEAC		 MOVE.W	   -340(A6),D0			         $FFFFFEAC
00002F66 D07C0021		 ADD.W	   #33,D0			         $21
00002F6A 486EFE80		 PEA	   -384(A6)			         $FFFFFE80
00002F6E 722B			 MOVEQ	   #43,D1			         $2B
00002F70 3F01			 MOVE.W	   D1,-(A7)
00002F72 487AFE5C		 PEA	   K.79(PC)			         CODE.+$2DD0
00002F76 7221			 MOVEQ	   #33,D1			         $21
00002F78 3F01			 MOVE.W	   D1,-(A7)
00002F7A 4EB900000000		 JSR	   C.MVFF
00002F80 486EFEAE		 PEA	   -338(A6)			         $FFFFFEAE
00002F84 3F2EFEAC		 MOVE.W	   -340(A6),-(A7)		         $FFFFFEAC
00002F88 4EB900000000		 JSR	   C.MVFR
00002F8E 3200			 MOVE.W	   D0,D1
00002F90 5441			 ADDQ.W	   #2,D1			         $2
00002F92 4841			 SWAP	   D1
00002F94 4241			 CLR.W	   D1
00002F96 4841			 SWAP	   D1
00002F98 2F01			 MOVE.L	   D1,-(A7)
00002F9A 4EB900000000		 JSR	   M.DYNTMB
00002FA0 204F			 MOVEA.L   A7,A000002FA2 3080			 MOVE.W	   D0,(A0)
00002FA4 48680002		 PEA	   2(A0)			         $2
00002FA8 3F10			 MOVE.W	   (A0),-(A7)
00002FAA 486EFE80		 PEA	   -384(A6)			         $FFFFFE80
00002FAE 3F00			 MOVE.W	   D0,-(A7)
00002FB0 4EB900000000		 JSR	   C.MVFF
00002FB6 2D48FFDE		 MOVE.L	   A0,-34(A6)			         $FFFFFFDE
00002FBA 3D40FFDC		 MOVE.W	   D0,-36(A6)			         $FFFFFFDC
00002FBE 6100D0EA		 BSR.L	   B.4(PC)			         WRITE_STRING = CODE.+
00002FC2 2E6EFE5E     L.30.5	 MOVEA.L   X.30.1(A6),A7
		      *							       LINE 27/26
		      *							       LINE 27/27
00002FC6 7001			 MOVEQ	   #1,D0			         $1
00002FC8 1B400003		 MOVE.B	   D0,STATIC.+3(A5)		         END_FLAG
		      *							       LINE 27/28
00002FCC 4E75			 RTS	   
00002FCE	      K.80
00002FCE 207A65726F2D K.81	 DC.B	   ' zero-length record(s) skipped'
00002FEC 496C6C656761 K.82	 DC.B	   'Illegal record type.'
00003000	      K.83
00003000 207A65726F2D K.84	 DC.B	   ' zero-length record(s) skipped'
0000301E 4D697373696E K.85	 DC.B	   'Missing Identification Record.'
0000303C 4D697373696E K.86	 DC.B	   'Missing End Record.'
0000304F 00000001		 DS.B	   1
		      *
		      *		 Begin subroutine PROCESS_INPUT
		      *
00003050 2D4FFD62     B.31	 MOVE.L	   A7,X.31.1(A6)
		      *							       LINE 28/11
		      *							       LINE 28/12
00003054 41EEFFD8     L.31.1	 LEA	   -40(A6),A0			         LOCAL_ONE_BYTE
00003058 2D48FFFC		 MOVE.L	   A0,-4(A6)			         $FFFFFFFC
0000305C 6100D25A		 BSR.L	   B.16(PC)			         READ_ONE_BYTE = CODE.
		      *							       LINE 28/13
00003060 4A2D0000     L.31.2	 TST.B	   STATIC.+0(A5)		         EOF_FLAG
00003064 66000144		 BNE.L	   L.31.16(PC)
		      *							       LINE 28/13 (2)
		      *							       LINE 28/14
00003068 2B6EFFD8000C L.31.3	 MOVE.L	   -40(A6),STATIC.+12(A5)	         LOCAL_ONE_BYTE  BYTE_
		      *							       LINE 28/15
0000306E 4AAD000C		 TST.L	   STATIC.+12(A5)		         BYTE_COUNT
00003072 660E			 BNE.S	   L.31.5(PC)
		      *							       LINE 28/16
00003074 202D0010     L.31.4	 MOVE.L	   STATIC.+16(A5),D0		         SKIP_COUNT
00003078 5280			 ADDQ.L	   #1,D0			         $10000307A 2B400010		 MOVE.L	   D0,STATIC.+16(A5)		         SKIP_COUNT
0000307E 6000011A		 BRA.L	   L.31.15(PC)
00003082	      L.31.5
		      *							       LINE 28/17
		      *							       LINE 28/18
00003082 4AAD0010     L.31.6	 TST.L	   STATIC.+16(A5)		         SKIP_COUNT
00003086 6F000092		 BLE.L	   L.31.8(PC)
		      *							       LINE 28/18 (2)
		      *							       LINE 28/19
0000308A 426EFD98     L.31.7	 CLR.W	   -616(A6)			         $FFFFFD98
0000308E 41EEFD98		 LEA	   -616(A6),A0			         $FFFFFD98
00003092 2D48FFDE		 MOVE.L	   A0,-34(A6)			         $FFFFFFDE
00003096 426EFFDC		 CLR.W	   -36(A6)			         $FFFFFFDC
0000309A 6100D00E		 BSR.L	   B.4(PC)			         WRITE_STRING = CODE.+
		      *							       LINE 28/20
0000309E 42AEFFF2		 CLR.L	   -14(A6)			         $FFFFFFF2
000030A2 2D6D0010FFEE		 MOVE.L	   STATIC.+16(A5),-18(A6)	         SKIP_COUNT  $FFFFFFEE
000030A8 41EEFD8E		 LEA	   -626(A6),A0			         $FFFFFD8E
000030AC 2D48FFEA		 MOVE.L	   A0,-22(A6)			         $FFFFFFEA
000030B0 6100D0A6		 BSR.L	   B.9(PC)			         CONVERT_DECIMAL = COD
000030B4 302EFD8E		 MOVE.W	   -626(A6),D0			         $FFFFFD8E
000030B8 D07C001E		 ADD.W	   #30,D0			         $1E
000030BC 486EFD66		 PEA	   -666(A6)			         $FFFFFD66
000030C0 7228			 MOVEQ	   #40,D1			         $28
000030C2 3F01			 MOVE.W	   D1,-(A7)
000030C4 486EFD90		 PEA	   -624(A6)			         $FFFFFD90
000030C8 3F2EFD8E		 MOVE.W	   -626(A6),-(A7)		         $FFFFFD8E
000030CC 4EB900000000		 JSR	   C.MVFF
000030D2 487AFEFA		 PEA	   K.81(PC)			         CODE.+$2FCE
000030D6 721E			 MOVEQ	   #30,D1			         $1E
000030D8 3F01			 MOVE.W	   D1,-(A7)
000030DA 4EB900000000		 JSR	   C.MVFR
000030E0 3200			 MOVE.W	   D0,D1
000030E2 5441			 ADDQ.W	   #2,D1			         $2
000030E4 4841			 SWAP	   D1
000030E6 4241			 CLR.W	   D1
000030E8 4841			 SWAP	   D1
000030EA 2F01			 MOVE.L	   D1,-(A7)
000030EC 4EB900000000		 JSR	   M.DYNTMB
000030F2 204F			 MOVEA.L   A7,A0
000030F4 3080			 MOVE.W	   D0,(A0)
000030F6 48680002		 PEA	   2(A0)			         $2
000030FA 3F10			 MOVE.W	   (A0),-(A7)
000030FC 486EFD66		 PEA	   -666(A6)			         $FFFFFD66
00003100 3F00			 MOVE.W	   D0,-(A7)00003102 4EB900000000		 JSR	   C.MVFF
00003108 2D48FFDE		 MOVE.L	   A0,-34(A6)			         $FFFFFFDE
0000310C 3D40FFDC		 MOVE.W	   D0,-36(A6)			         $FFFFFFDC
00003110 6100CF98		 BSR.L	   B.4(PC)			         WRITE_STRING = CODE.+
		      *							       LINE 28/22
00003114 7000			 MOVEQ	   #0,D0			         $0
00003116 2B400010		 MOVE.L	   D0,STATIC.+16(A5)		         SKIP_COUNT
0000311A 2E6EFD62     L.31.8	 MOVEA.L   X.31.1(A6),A7
		      *							       LINE 28/23
		      *							       LINE 28/24
0000311E 41EEFFD8		 LEA	   -40(A6),A0			         LOCAL_ONE_BYTE
00003122 2D48FFFC		 MOVE.L	   A0,-4(A6)			         $FFFFFFFC
00003126 6100D190		 BSR.L	   B.16(PC)			         READ_ONE_BYTE = CODE.
		      *							       LINE 28/25
0000312A 6100D8A2		 BSR.L	   B.13(PC)			         CHECK_EOF_FLAG = CODE
		      *							       LINE 28/26
0000312E 202EFFD8		 MOVE.L	   -40(A6),D0			         LOCAL_ONE_BYTE
00003132 90BC00000031		 SUB.L	   #49,D0			         $31
00003138 6D32			 BLT.S	   L.31.13(PC)
0000313A 0C8000000003		 CMPI.L	   #3,D0			         $3
00003140 6E2A			 BGT.S	   L.31.13(PC)
00003142 D040			 ADD.W	   D0,D0
00003144 303B0006		 MOVE.W	   X.31.3(PC,D0.W),D0
00003148 4EFB0002		 JMP	   X.31.3(PC,D0.W)
0000314C 0000	      X.31.3	 DC.W	   L.31.9-*
0000314E 0000			 DC.W	   L.31.10+2-*
00003150 0000			 DC.W	   L.31.11+4-*
00003152 0000			 DC.W	   L.31.12+6-*
		      *							       LINE 28/27
00003154 6100DB0E     L.31.9	 BSR.L	   B.22(PC)			         PROCESS_IDENTIFICATI 
00003158 6040			 BRA.S	   L.31.14(PC)
		      *							       LINE 28/28
0000315A 6100E64A     L.31.10	 BSR.L	   B.23(PC)			         PROCESS_ESD_RECORD = 
0000315E 603A			 BRA.S	   L.31.14(PC)
		      *							       LINE 28/29
00003160 6100F88C     L.31.11	 BSR.L	   B.29(PC)			         PROCESS_TEXT_RECORD =
00003164 6034			 BRA.S	   L.31.14(PC)
		      *							       LINE 28/30
00003166 6100FC8A     L.31.12	 BSR.L	   B.30(PC)			         PROCESS_END_RECORD = 
0000316A 602E			 BRA.S	   L.31.14(PC)
		      *							       LINE 28/31
0000316C 3D7C0014FD84 L.31.13	 MOVE.W	   #20,-636(A6)			         $14  $FFFFFD84
00003172 486EFD86		 PEA	   -634(A6)			         $FFFFFD86
00003176 3F2EFD84		 MOVE.W	   -636(A6),-(A7)		         $FFFFFD84
0000317A 487AFE70		 PEA	   K.82(PC)			         CODE.+$2FEC0000317E 7014			 MOVEQ	   #20,D0			         $14
00003180 3F00			 MOVE.W	   D0,-(A7)
00003182 4EB900000000		 JSR	   C.MVFF
00003188 41EEFD84		 LEA	   -636(A6),A0			         $FFFFFD84
0000318C 2D48FFF8		 MOVE.L	   A0,-8(A6)			         $FFFFFFF8
00003190 3D7C0014FFF6		 MOVE.W	   #20,-10(A6)			         $14  $FFFFFFF6
00003196 6100D03C		 BSR.L	   B.12(PC)			         ERROR = CODE.+$1D4
0000319A	      L.31.14
		      *							       LINE 28/33
		      *							       LINE 28/34
0000319A 41EEFFD8     L.31.15	 LEA	   -40(A6),A0			         LOCAL_ONE_BYTE
0000319E 2D48FFFC		 MOVE.L	   A0,-4(A6)			         $FFFFFFFC
000031A2 6100D114		 BSR.L	   B.16(PC)			         READ_ONE_BYTE = CODE.
		      *							       LINE 28/35
000031A6 6000FEB8		 BRA.L	   L.31.2(PC)
		      *							       LINE 28/36
000031AA 4AAD0010     L.31.16	 TST.L	   STATIC.+16(A5)		         SKIP_COUNT
000031AE 6F00008C		 BLE.L	   L.31.18(PC)
		      *							       LINE 28/36 (2)
		      *							       LINE 28/37
000031B2 426EFD98     L.31.17	 CLR.W	   -616(A6)			         $FFFFFD98
000031B6 41EEFD98		 LEA	   -616(A6),A0			         $FFFFFD98
000031BA 2D48FFDE		 MOVE.L	   A0,-34(A6)			         $FFFFFFDE
000031BE 426EFFDC		 CLR.W	   -36(A6)			         $FFFFFFDC
000031C2 6100CEE6		 BSR.L	   B.4(PC)			         WRITE_STRING = CODE.+
		      *							       LINE 28/38
000031C6 42AEFFF2		 CLR.L	   -14(A6)			         $FFFFFFF2
000031CA 2D6D0010FFEE		 MOVE.L	   STATIC.+16(A5),-18(A6)	         SKIP_COUNT  $FFFFFFEE
000031D0 41EEFD8E		 LEA	   -626(A6),A0			         $FFFFFD8E
000031D4 2D48FFEA		 MOVE.L	   A0,-22(A6)			         $FFFFFFEA
000031D8 6100CF7E		 BSR.L	   B.9(PC)			         CONVERT_DECIMAL = COD
000031DC 302EFD8E		 MOVE.W	   -626(A6),D0			         $FFFFFD8E
000031E0 D07C001E		 ADD.W	   #30,D0			         $1E
000031E4 486EFD66		 PEA	   -666(A6)			         $FFFFFD66
000031E8 7228			 MOVEQ	   #40,D1			         $28
000031EA 3F01			 MOVE.W	   D1,-(A7)
000031EC 486EFD90		 PEA	   -624(A6)			         $FFFFFD90
000031F0 3F2EFD8E		 MOVE.W	   -626(A6),-(A7)		         $FFFFFD8E
000031F4 4EB900000000		 JSR	   C.MVFF
000031FA 487AFE04		 PEA	   K.84(PC)			         CODE.+$3000
000031FE 721E			 MOVEQ	   #30,D1			         $1E
00003200 3F01			 MOVE.W	   D1,-(A7)
00003202 4EB900000000		 JSR	   C.MVFR
00003208 3200			 MOVE.W	   D0,D1
0000320A 5441			 ADDQ.W	   #2,D1			         $20000320C 4841			 SWAP	   D1
0000320E 4241			 CLR.W	   D1
00003210 4841			 SWAP	   D1
00003212 2F01			 MOVE.L	   D1,-(A7)
00003214 4EB900000000		 JSR	   M.DYNTMB
0000321A 204F			 MOVEA.L   A7,A0
0000321C 3080			 MOVE.W	   D0,(A0)
0000321E 48680002		 PEA	   2(A0)			         $2
00003222 3F10			 MOVE.W	   (A0),-(A7)
00003224 486EFD66		 PEA	   -666(A6)			         $FFFFFD66
00003228 3F00			 MOVE.W	   D0,-(A7)
0000322A 4EB900000000		 JSR	   C.MVFF
00003230 2D48FFDE		 MOVE.L	   A0,-34(A6)			         $FFFFFFDE
00003234 3D40FFDC		 MOVE.W	   D0,-36(A6)			         $FFFFFFDC
00003238 6100CE70		 BSR.L	   B.4(PC)			         WRITE_STRING = CODE.+
0000323C 2E6EFD62     L.31.18	 MOVEA.L   X.31.1(A6),A7
		      *							       LINE 28/40
		      *							       LINE 28/41
00003240 4A2D0002		 TST.B	   STATIC.+2(A5)		         ID_FLAG
00003244 662E			 BNE.S	   L.31.20(PC)
		      *							       LINE 28/42
00003246 3D7C001EFD7A L.31.19	 MOVE.W	   #30,-646(A6)			         $1E  $FFFFFD7A
0000324C 486EFD7C		 PEA	   -644(A6)			         $FFFFFD7C
00003250 3F2EFD7A		 MOVE.W	   -646(A6),-(A7)		         $FFFFFD7A
00003254 487AFDC8		 PEA	   K.85(PC)			         CODE.+$301E
00003258 701E			 MOVEQ	   #30,D0			         $1E
0000325A 3F00			 MOVE.W	   D0,-(A7)
0000325C 4EB900000000		 JSR	   C.MVFF
00003262 41EEFD7A		 LEA	   -646(A6),A0			         $FFFFFD7A
00003266 2D48FFBA		 MOVE.L	   A0,-70(A6)			         $FFFFFFBA
0000326A 3D7C001EFFB8		 MOVE.W	   #30,-72(A6)			         $1E  $FFFFFFB8
00003270 6100D66C		 BSR.L	   B.11(PC)			         WARNING = CODE.+$8DE
		      *							       LINE 28/43
00003274 4A2D0003     L.31.20	 TST.B	   STATIC.+3(A5)		         END_FLAG
00003278 662E			 BNE.S	   L.31.22(PC)
		      *							       LINE 28/44
0000327A 3D7C0013FD84 L.31.21	 MOVE.W	   #19,-636(A6)			         $13  $FFFFFD84
00003280 486EFD86		 PEA	   -634(A6)			         $FFFFFD86
00003284 3F2EFD84		 MOVE.W	   -636(A6),-(A7)		         $FFFFFD84
00003288 487AFDB2		 PEA	   K.86(PC)			         CODE.+$303C
0000328C 7013			 MOVEQ	   #19,D0			         $13
0000328E 3F00			 MOVE.W	   D0,-(A7)
00003290 4EB900000000		 JSR	   C.MVFF
00003296 41EEFD84		 LEA	   -636(A6),A0			         $FFFFFD84
0000329A 2D48FFBA		 MOVE.L	   A0,-70(A6)			         $FFFFFFBA0000329E 3D7C0013FFB8		 MOVE.W	   #19,-72(A6)			         $13  $FFFFFFB8
000032A4 6100D638		 BSR.L	   B.11(PC)			         WARNING = CODE.+$8DE
		      *							       LINE 28/45
000032A8 4E75	      L.31.22	 RTS	   
000032AA 52756E74696D K.87	 DC.B	   'Runtime Statistics:'
000032BD 00000001		 DS.B	   1
000032BE	      K.88
000032BE 4E616D652020 K.89	 DC.B	   'Name        Calls'
000032CF 00000001		 DS.B	   1
000032D0 2D2D2D2D2D2D K.90	 DC.B	   '----------  -----'
000032E1 00000001		 DS.B	   1
000032E2	      K.91
000032E2	      K.92
000032E2 2020	      K.93	 DC.B	   '  '
		      *
		      *		 Begin subroutine PRINT_ESDID_STATISTICS
		      *
000032E4 2D4FFE98     B.32	 MOVE.L	   A7,X.32.1(A6)
		      *							       LINE 29/12
		      *							       LINE 29/13
000032E8 7011	      L.32.1	 MOVEQ	   #17,D0			         $11
000032EA 2D40FFD8		 MOVE.L	   D0,-40(A6)			         LOCAL_INDEX
		      *							       LINE 29/14
000032EE 6100CEB4		 BSR.L	   B.10(PC)			         PAGE_SKIP = CODE.+$1A
		      *							       LINE 29/15
000032F2 3D7C0013FEB0		 MOVE.W	   #19,-336(A6)			         $13  $FFFFFEB0
000032F8 486EFEB2		 PEA	   -334(A6)			         $FFFFFEB2
000032FC 3F2EFEB0		 MOVE.W	   -336(A6),-(A7)		         $FFFFFEB0
00003300 487AFFA8		 PEA	   K.87(PC)			         CODE.+$32AA
00003304 7013			 MOVEQ	   #19,D0			         $13
00003306 3F00			 MOVE.W	   D0,-(A7)
00003308 4EB900000000		 JSR	   C.MVFF
0000330E 41EEFEB0		 LEA	   -336(A6),A0			         $FFFFFEB0
00003312 2D48FFDE		 MOVE.L	   A0,-34(A6)			         $FFFFFFDE
00003316 3D7C0013FFDC		 MOVE.W	   #19,-36(A6)			         $13  $FFFFFFDC
0000331C 6100CD8C		 BSR.L	   B.4(PC)			         WRITE_STRING = CODE.+
		      *							       LINE 29/16
00003320 426EFEC4		 CLR.W	   -316(A6)			         $FFFFFEC4
00003324 41EEFEC4		 LEA	   -316(A6),A0			         $FFFFFEC4
00003328 2D48FFDE		 MOVE.L	   A0,-34(A6)			         $FFFFFFDE
0000332C 426EFFDC		 CLR.W	   -36(A6)			         $FFFFFFDC
00003330 6100CD78		 BSR.L	   B.4(PC)			         WRITE_STRING = CODE.+
		      *							       LINE 29/17
00003334 3D7C0011FEB2		 MOVE.W	   #17,-334(A6)			         $11  $FFFFFEB2
0000333A 486EFEB4		 PEA	   -332(A6)			         $FFFFFEB40000333E 3F2EFEB2		 MOVE.W	   -334(A6),-(A7)		         $FFFFFEB2
00003342 487AFF7A		 PEA	   K.89(PC)			         CODE.+$32BE
00003346 7011			 MOVEQ	   #17,D0			         $11
00003348 3F00			 MOVE.W	   D0,-(A7)
0000334A 4EB900000000		 JSR	   C.MVFF
00003350 41EEFEB2		 LEA	   -334(A6),A0			         $FFFFFEB2
00003354 2D48FFDE		 MOVE.L	   A0,-34(A6)			         $FFFFFFDE
00003358 3D7C0011FFDC		 MOVE.W	   #17,-36(A6)			         $11  $FFFFFFDC
0000335E 6100CD4A		 BSR.L	   B.4(PC)			         WRITE_STRING = CODE.+
		      *							       LINE 29/18
00003362 3D7C0011FEB2		 MOVE.W	   #17,-334(A6)			         $11  $FFFFFEB2
00003368 486EFEB4		 PEA	   -332(A6)			         $FFFFFEB4
0000336C 3F2EFEB2		 MOVE.W	   -334(A6),-(A7)		         $FFFFFEB2
00003370 487AFF5E		 PEA	   K.90(PC)			         CODE.+$32D0
00003374 7011			 MOVEQ	   #17,D0			         $11
00003376 3F00			 MOVE.W	   D0,-(A7)
00003378 4EB900000000		 JSR	   C.MVFF
0000337E 41EEFEB2		 LEA	   -334(A6),A0			         $FFFFFEB2
00003382 2D48FFDE		 MOVE.L	   A0,-34(A6)			         $FFFFFFDE
00003386 3D7C0011FFDC		 MOVE.W	   #17,-36(A6)			         $11  $FFFFFFDC
0000338C 6100CD1C		 BSR.L	   B.4(PC)			         WRITE_STRING = CODE.+
		      *							       LINE 29/19
00003390 426EFEC4		 CLR.W	   -316(A6)			         $FFFFFEC4
00003394 41EEFEC4		 LEA	   -316(A6),A0			         $FFFFFEC4
00003398 2D48FFDE		 MOVE.L	   A0,-34(A6)			         $FFFFFFDE
0000339C 426EFFDC		 CLR.W	   -36(A6)			         $FFFFFFDC
000033A0 6100CD08		 BSR.L	   B.4(PC)			         WRITE_STRING = CODE.+
000033A4 2E6EFE98     L.32.2	 MOVEA.L   X.32.1(A6),A7
		      *							       LINE 29/20
000033A8 0CAE000000FF		 CMPI.L	   #255,-40(A6)			         $FF  LOCAL_INDEX
	 FFD8
000033B0 6E0000F0		 BGT.L	   L.32.5(PC)
000033B4 202EFFD8     L.32.3	 MOVE.L	   -40(A6),D0			         LOCAL_INDEX
000033B8 E940			 ASL.W	   #4,D0			         $4
000033BA 41ED000C		 LEA	   STATIC.+284-272(A5),A0	         ESDID_ARRAY
000033BE 487AFF22		 PEA	   K.92(PC)			         CODE.+$32E2
000033C2 4267			 CLR.W	   -(A7)
000033C4 48700002		 PEA	   2(A0,D0.W)			         $2
000033C8 3F300000		 MOVE.W	   0(A0,D0.W),-(A7)		         $0
000033CC 4EB900000000		 JSR	   C.CPFF
000033D2 670000CE		 BEQ.L	   L.32.5(PC)
		      *							       LINE 29/21
		      *							       LINE 29/22
000033D6 202EFFD8     L.32.4	 MOVE.L	   -40(A6),D0			         LOCAL_INDEX
000033DA E940			 ASL.W	   #4,D0			         $4000033DC 41ED000C		 LEA	   STATIC.+284-272(A5),A0	         ESDID_ARRAY
000033E0 43F00000		 LEA	   0(A0,D0.W),A1		         $0
000033E4 2D49FE94		 MOVE.L	   A1,X.32.2(A6)
		      *							       LINE 29/23
000033E8 206EFE94		 MOVEA.L   X.32.2(A6),A0
000033EC 3010			 MOVE.W	   (A0),D0
000033EE 42AEFFF2		 CLR.L	   -14(A6)			         $FFFFFFF2
000033F2 226EFE94		 MOVEA.L   X.32.2(A6),A1
000033F6 2D69000CFFEE		 MOVE.L	   12(A1),-18(A6)		         $C  $FFFFFFEE
000033FC 43EEFEBA		 LEA	   -326(A6),A1			         $FFFFFEBA
00003400 2D49FFEA		 MOVE.L	   A1,-22(A6)			         $FFFFFFEA
00003404 48EE0101FEB2		 MOVEM.L   #257,-334(A6)		         $101  $FFFFFEB2
0000340A 6100CD4C		 BSR.L	   B.9(PC)			         CONVERT_DECIMAL = COD
0000340E 4CEE0101FEB2		 MOVEM.L   -334(A6),#257		         $FFFFFEB2  $101
00003414 D06EFEBA		 ADD.W	   -326(A6),D0			         $FFFFFEBA
00003418 5440			 ADDQ.W	   #2,D0			         $2
0000341A 486EFE9C		 PEA	   -356(A6)			         $FFFFFE9C
0000341E 7216			 MOVEQ	   #22,D1			         $16
00003420 3F01			 MOVE.W	   D1,-(A7)
00003422 48680002		 PEA	   2(A0)			         $2
00003426 3F10			 MOVE.W	   (A0),-(A7)
00003428 4EB900000000		 JSR	   C.MVFF
0000342E 487AFEB2		 PEA	   K.93(PC)			         CODE.+$32E2
00003432 7202			 MOVEQ	   #2,D1			         $2
00003434 3F01			 MOVE.W	   D1,-(A7)
00003436 4EB900000000		 JSR	   C.MVFR
0000343C 486EFEBC		 PEA	   -324(A6)			         $FFFFFEBC
00003440 3F2EFEBA		 MOVE.W	   -326(A6),-(A7)		         $FFFFFEBA
00003444 4EB900000000		 JSR	   C.MVFR
0000344A 3200			 MOVE.W	   D0,D1
0000344C 5441			 ADDQ.W	   #2,D1			         $2
0000344E 4841			 SWAP	   D1
00003450 4241			 CLR.W	   D1
00003452 4841			 SWAP	   D1
00003454 2F01			 MOVE.L	   D1,-(A7)
00003456 4EB900000000		 JSR	   M.DYNTMB
0000345C 204F			 MOVEA.L   A7,A0
0000345E 3080			 MOVE.W	   D0,(A0)
00003460 48680002		 PEA	   2(A0)			         $2
00003464 3F10			 MOVE.W	   (A0),-(A7)
00003466 486EFE9C		 PEA	   -356(A6)			         $FFFFFE9C
0000346A 3F00			 MOVE.W	   D0,-(A7)
0000346C 4EB900000000		 JSR	   C.MVFF
00003472 2D48FFDE		 MOVE.L	   A0,-34(A6)			         $FFFFFFDE
00003476 3D40FFDC		 MOVE.W	   D0,-36(A6)			         $FFFFFFDC0000347A 6100CC2E		 BSR.L	   B.4(PC)			         WRITE_STRING = CODE.+
0000347E 206EFE94		 MOVEA.L   X.32.2(A6),A0
		      *							       LINE 29/24
00003482 202EFFD8		 MOVE.L	   -40(A6),D0			         LOCAL_INDEX
00003486 5280			 ADDQ.L	   #1,D0			         $1
00003488 7211			 MOVEQ	   #17,D1			         $11
0000348A B041			 CMP.W	   D1,D0
0000348C 6C06			 BGE.S	   X.32.3(PC)
0000348E 4EB900000000 X.32.4	 JSR	   E.VALUE
00003494 0C4000FF     X.32.3	 CMPI.W	   #255,D0			         $FF
00003498 6EF4			 BGT.S	   X.32.4(PC)
0000349A 2D40FFD8		 MOVE.L	   D0,-40(A6)			         LOCAL_INDEX
		      *							       LINE 29/25
0000349E 6000FF04		 BRA.L	   L.32.2(PC)
		      *							       LINE 29/26
000034A2 4E75	      L.32.5	 RTS	   
000034A4 4D3638303030 K.94	 DC.B	   'M68000 Object File Analyzer, Version 1.0'
000034CC 496E70757420 K.95	 DC.B	   'Input file: '
000034D8	      K.96
000034D8 2E524F20     K.97	 DC.B	   '.RO '
000034DC 42616420696E K.98	 DC.B	   'Bad input file.'
000034EB 00000001		 DS.B	   1
000034EC 4F7574707574 K.99	 DC.B	   'Output file: '
000034F9 00000001		 DS.B	   1
000034FA 2E4C5320     K.100	 DC.B	   '.LS '
000034FE 426164206F75 K.101	 DC.B	   'Bad output file.'
0000350E 4D3638303030 K.102	 DC.B	   'M68000 Object File Analysis for File: '
00003534	      K.103
		      *
		      *		 Begin subroutine GET_FILE_NAMES
		      *
00003534 2D4FFE56     B.33	 MOVE.L	   A7,X.33.1(A6)
		      *							       LINE 30/12
		      *							       LINE 30/13
00003538 202D0000     L.33.1	 MOVE.L	   TTYOUTPUT(A5),D0		         TTYOUTPUT
0000353C 4A80			 TST.L	   D0
0000353E 6606			 BNE.S	   X.33.3(PC)
00003540 4EB900000000		 JSR	   E.FILE
00003546 7228	      X.33.3	 MOVEQ	   #40,D1			         $28
00003548 3F01			 MOVE.W	   D1,-(A7)
0000354A 7204			 MOVEQ	   #4,D1			         $4
0000354C 3F01			 MOVE.W	   D1,-(A7)
0000354E 487AFF54		 PEA	   K.94(PC)			         CODE.+$34A4
00003552 2F00			 MOVE.L	   D0,-(A7)
00003554 4EB900000000		 JSR	   T.WRITE0000355A 2F00			 MOVE.L	   D0,-(A7)
0000355C 4EB900000000		 JSR	   T.WRTLN
		      *							       LINE 30/14
00003562 202D0000		 MOVE.L	   TTYOUTPUT(A5),D0		         TTYOUTPUT
00003566 4A80			 TST.L	   D0
00003568 6606			 BNE.S	   X.33.4(PC)
0000356A 4EB900000000		 JSR	   E.FILE
00003570 720C	      X.33.4	 MOVEQ	   #12,D1			         $C
00003572 3F01			 MOVE.W	   D1,-(A7)
00003574 7204			 MOVEQ	   #4,D1			         $4
00003576 3F01			 MOVE.W	   D1,-(A7)
00003578 487AFF52		 PEA	   K.95(PC)			         CODE.+$34CC
0000357C 2F00			 MOVE.L	   D0,-(A7)
0000357E 4EB900000000		 JSR	   T.WRITE
		      *							       LINE 30/15
00003584 202D0000		 MOVE.L	   TTYOUTPUT(A5),D0		         TTYOUTPUT
00003588 4A80			 TST.L	   D0
0000358A 6606			 BNE.S	   X.33.5(PC)
0000358C 4EB900000000		 JSR	   E.FILE
00003592 2F00	      X.33.5	 MOVE.L	   D0,-(A7)
00003594 4EB900000000		 JSR	   T.BREAK
		      *							       LINE 30/16
0000359A 202D0000		 MOVE.L	   TTY(A5),D0			         TTY
0000359E 4A80			 TST.L	   D0
000035A0 6606			 BNE.S	   X.33.6(PC)
000035A2 4EB900000000		 JSR	   E.FILE
000035A8 2F00	      X.33.6	 MOVE.L	   D0,-(A7)
000035AA 4EB900000000		 JSR	   T.READLN
		      *							       LINE 30/17
000035B0 202D0000		 MOVE.L	   TTY(A5),D0			         TTY
000035B4 4A80			 TST.L	   D0
000035B6 6606			 BNE.S	   X.33.7(PC)
000035B8 4EB900000000		 JSR	   E.FILE
000035BE 7224	      X.33.7	 MOVEQ	   #36,D1			         $24
000035C0 3F01			 MOVE.W	   D1,-(A7)
000035C2 720B			 MOVEQ	   #11,D1			         $B
000035C4 3F01			 MOVE.W	   D1,-(A7)
000035C6 486EFFB6		 PEA	   -74(A6)			         INPUT_FILE_NAME
000035CA 2F00			 MOVE.L	   D0,-(A7)
000035CC 4EB900000000		 JSR	   T.READ
		      *							       LINE 30/18
000035D2 487AFF04		 PEA	   K.96(PC)			         CODE.+$34D8
000035D6 4267			 CLR.W	   -(A7)
000035D8 486EFFB8		 PEA	   -74+2(A6)			         INPUT_FILE_NAME
000035DC 3F2EFFB6		 MOVE.W	   -74(A6),-(A7)		         INPUT_FILE_NAME000035E0 4EB900000000		 JSR	   C.CPFF
000035E6 6606			 BNE.S	   L.33.3(PC)
		      *							       LINE 30/19
000035E8 4EB900000000 L.33.2	 JSR	   M.STOP
		      *							       LINE 30/20
000035EE 302EFFB6     L.33.3	 MOVE.W	   -74(A6),D0			         INPUT_FILE_NAME
000035F2 5840			 ADDQ.W	   #4,D0			         $4
000035F4 486EFEA2		 PEA	   -350(A6)			         $FFFFFEA2
000035F8 7228			 MOVEQ	   #40,D1			         $28
000035FA 3F01			 MOVE.W	   D1,-(A7)
000035FC 487AFEDA		 PEA	   K.97(PC)			         CODE.+$34D8
00003600 7204			 MOVEQ	   #4,D1			         $4
00003602 3F01			 MOVE.W	   D1,-(A7)
00003604 4EB900000000		 JSR	   C.MVFF
0000360A 486EFFB8		 PEA	   -74+2(A6)			         INPUT_FILE_NAME
0000360E 3F2EFFB6		 MOVE.W	   -74(A6),-(A7)		         INPUT_FILE_NAME
00003612 4EB900000000		 JSR	   C.MVFR
00003618 3F3C0100		 MOVE.W	   #256,-(A7)			         $100
0000361C 486EFEA2		 PEA	   -350(A6)			         $FFFFFEA2
00003620 3F00			 MOVE.W	   D0,-(A7)
00003622 3F3C0429		 MOVE.W	   #1065,-(A7)			         $429
00003626 4EB900000000		 JSR	   Y.INIT
0000362C 2B5F0114		 MOVE.L	   (A7)+,STATIC.+276(A5)	         INPUT_FILE
		      *							       LINE 30/21
00003630 202D0114		 MOVE.L	   STATIC.+276(A5),D0		         INPUT_FILE
00003634 4A80			 TST.L	   D0
00003636 6606			 BNE.S	   X.33.8(PC)
00003638 4EB900000000		 JSR	   E.FILE
0000363E 2F00	      X.33.8	 MOVE.L	   D0,-(A7)
00003640 4EB900000000		 JSR	   I.FILSTA
00003646 4A5F			 TST.W	   (A7)+
00003648 672E			 BEQ.S	   L.33.5(PC)
		      *							       LINE 30/22
0000364A 3D7C000FFEB8 L.33.4	 MOVE.W	   #15,-328(A6)			         $F  $FFFFFEB8
00003650 486EFEBA		 PEA	   -326(A6)			         $FFFFFEBA
00003654 3F2EFEB8		 MOVE.W	   -328(A6),-(A7)		         $FFFFFEB8
00003658 487AFE82		 PEA	   K.98(PC)			         CODE.+$34DC
0000365C 700F			 MOVEQ	   #15,D0			         $F
0000365E 3F00			 MOVE.W	   D0,-(A7)
00003660 4EB900000000		 JSR	   C.MVFF
00003666 41EEFEB8		 LEA	   -328(A6),A0			         $FFFFFEB8
0000366A 2D48FFF8		 MOVE.L	   A0,-8(A6)			         $FFFFFFF8
0000366E 3D7C000FFFF6		 MOVE.W	   #15,-10(A6)			         $F  $FFFFFFF6
00003674 6100CB5E		 BSR.L	   B.12(PC)			         ERROR = CODE.+$1D4
		      *							       LINE 30/2300003678 202D0000     L.33.5	 MOVE.L	   TTYOUTPUT(A5),D0		         TTYOUTPUT
0000367C 4A80			 TST.L	   D0
0000367E 6606			 BNE.S	   X.33.9(PC)
00003680 4EB900000000		 JSR	   E.FILE
00003686 720D	      X.33.9	 MOVEQ	   #13,D1			         $D
00003688 3F01			 MOVE.W	   D1,-(A7)
0000368A 7204			 MOVEQ	   #4,D1			         $4
0000368C 3F01			 MOVE.W	   D1,-(A7)
0000368E 487AFE5C		 PEA	   K.99(PC)			         CODE.+$34EC
00003692 2F00			 MOVE.L	   D0,-(A7)
00003694 4EB900000000		 JSR	   T.WRITE
		      *							       LINE 30/24
0000369A 202D0000		 MOVE.L	   TTYOUTPUT(A5),D0		         TTYOUTPUT
0000369E 4A80			 TST.L	   D0
000036A0 6606			 BNE.S	   X.33.10(PC)
000036A2 4EB900000000		 JSR	   E.FILE
000036A8 2F00	      X.33.10	 MOVE.L	   D0,-(A7)
000036AA 4EB900000000		 JSR	   T.BREAK
		      *							       LINE 30/25
000036B0 202D0000		 MOVE.L	   TTY(A5),D0			         TTY
000036B4 4A80			 TST.L	   D0
000036B6 6606			 BNE.S	   X.33.11(PC)
000036B8 4EB900000000		 JSR	   E.FILE
000036BE 2F00	      X.33.11	 MOVE.L	   D0,-(A7)
000036C0 4EB900000000		 JSR	   T.READLN
		      *							       LINE 30/26
000036C6 202D0000		 MOVE.L	   TTY(A5),D0			         TTY
000036CA 4A80			 TST.L	   D0
000036CC 6606			 BNE.S	   X.33.12(PC)
000036CE 4EB900000000		 JSR	   E.FILE
000036D4 7224	      X.33.12	 MOVEQ	   #36,D1			         $24
000036D6 3F01			 MOVE.W	   D1,-(A7)
000036D8 720B			 MOVEQ	   #11,D1			         $B
000036DA 3F01			 MOVE.W	   D1,-(A7)
000036DC 486EFF90		 PEA	   -112(A6)			         OUTPUT_FILE_NAME
000036E0 2F00			 MOVE.L	   D0,-(A7)
000036E2 4EB900000000		 JSR	   T.READ
		      *							       LINE 30/27
000036E8 7020			 MOVEQ	   #32,D0			         $20
000036EA 1F00			 MOVE.B	   D0,-(A7)
000036EC 486EFF92		 PEA	   -112+2(A6)			         OUTPUT_FILE_NAME
000036F0 3F2EFF90		 MOVE.W	   -112(A6),-(A7)		         OUTPUT_FILE_NAME
000036F4 4EB900000000		 JSR	   C.CPFC
000036FA 67000100		 BEQ.L	   L.33.9(PC)
		      *							       LINE 30/27 (2)		      *							       LINE 30/28
000036FE 302EFF90     L.33.6	 MOVE.W	   -112(A6),D0			         OUTPUT_FILE_NAME
00003702 5840			 ADDQ.W	   #4,D0			         $4
00003704 486EFEA2		 PEA	   -350(A6)			         $FFFFFEA2
00003708 7228			 MOVEQ	   #40,D1			         $28
0000370A 3F01			 MOVE.W	   D1,-(A7)
0000370C 487AFDEC		 PEA	   K.100(PC)			         CODE.+$34FA
00003710 7204			 MOVEQ	   #4,D1			         $4
00003712 3F01			 MOVE.W	   D1,-(A7)
00003714 4EB900000000		 JSR	   C.MVFF
0000371A 486EFF92		 PEA	   -112+2(A6)			         OUTPUT_FILE_NAME
0000371E 3F2EFF90		 MOVE.W	   -112(A6),-(A7)		         OUTPUT_FILE_NAME
00003722 4EB900000000		 JSR	   C.MVFR
00003728 486EFEA2		 PEA	   -350(A6)			         $FFFFFEA2
0000372C 3F00			 MOVE.W	   D0,-(A7)
0000372E 7032			 MOVEQ	   #50,D0			         $32
00003730 3F00			 MOVE.W	   D0,-(A7)
00003732 4EB900000000		 JSR	   T.REWRIT
00003738 2B5F0118		 MOVE.L	   (A7)+,STATIC.+280(A5)	         OUTPUT_FILE
		      *							       LINE 30/30
0000373C 4EB900000000		 JSR	   I.GENSTA
00003742 4A5F			 TST.W	   (A7)+
00003744 672E			 BEQ.S	   L.33.8(PC)
		      *							       LINE 30/31
00003746 3D7C0010FEB8 L.33.7	 MOVE.W	   #16,-328(A6)			         $10  $FFFFFEB8
0000374C 486EFEBA		 PEA	   -326(A6)			         $FFFFFEBA
00003750 3F2EFEB8		 MOVE.W	   -328(A6),-(A7)		         $FFFFFEB8
00003754 487AFDA8		 PEA	   K.101(PC)			         CODE.+$34FE
00003758 7010			 MOVEQ	   #16,D0			         $10
0000375A 3F00			 MOVE.W	   D0,-(A7)
0000375C 4EB900000000		 JSR	   C.MVFF
00003762 41EEFEB8		 LEA	   -328(A6),A0			         $FFFFFEB8
00003766 2D48FFF8		 MOVE.L	   A0,-8(A6)			         $FFFFFFF8
0000376A 3D7C0010FFF6		 MOVE.W	   #16,-10(A6)			         $10  $FFFFFFF6
00003770 6100CA62		 BSR.L	   B.12(PC)			         ERROR = CODE.+$1D4
		      *							       LINE 30/32
00003774 7000	      L.33.8	 MOVEQ	   #0,D0			         $0
00003776 1B400001		 MOVE.B	   D0,STATIC.+1(A5)		         TTY_FLAG
		      *							       LINE 30/42
0000377A 2F2D0114		 MOVE.L	   STATIC.+276(A5),-(A7)	         INPUT_FILE
0000377E 486EFEA4		 PEA	   -348(A6)			         $FFFFFEA4
00003782 4EB900000000		 JSR	   I.FILNAM			         FILENAME
00003788 302EFEA4		 MOVE.W	   -348(A6),D0			         $FFFFFEA4
0000378C D07C0026		 ADD.W	   #38,D0			         $26
00003790 486EFE5A		 PEA	   -422(A6)			         $FFFFFE5A00003794 724A			 MOVEQ	   #74,D1			         $4A
00003796 3F01			 MOVE.W	   D1,-(A7)
00003798 487AFD74		 PEA	   K.102(PC)			         CODE.+$350E
0000379C 7226			 MOVEQ	   #38,D1			         $26
0000379E 3F01			 MOVE.W	   D1,-(A7)
000037A0 4EB900000000		 JSR	   C.MVFF
000037A6 486EFEA6		 PEA	   -346(A6)			         $FFFFFEA6
000037AA 3F2EFEA4		 MOVE.W	   -348(A6),-(A7)		         $FFFFFEA4
000037AE 4EB900000000		 JSR	   C.MVFR
000037B4 3200			 MOVE.W	   D0,D1
000037B6 5441			 ADDQ.W	   #2,D1			         $2
000037B8 4841			 SWAP	   D1
000037BA 4241			 CLR.W	   D1
000037BC 4841			 SWAP	   D1
000037BE 2F01			 MOVE.L	   D1,-(A7)
000037C0 4EB900000000		 JSR	   M.DYNTMB
000037C6 204F			 MOVEA.L   A7,A0
000037C8 3080			 MOVE.W	   D0,(A0)
000037CA 48680002		 PEA	   2(A0)			         $2
000037CE 3F10			 MOVE.W	   (A0),-(A7)
000037D0 486EFE5A		 PEA	   -422(A6)			         $FFFFFE5A
000037D4 3F00			 MOVE.W	   D0,-(A7)
000037D6 4EB900000000		 JSR	   C.MVFF
000037DC 2D48FFDE		 MOVE.L	   A0,-34(A6)			         $FFFFFFDE
000037E0 3D40FFDC		 MOVE.W	   D0,-36(A6)			         $FFFFFFDC
000037E4 6100C8C4		 BSR.L	   B.4(PC)			         WRITE_STRING = CODE.+
		      *							       LINE 30/44
000037E8 426EFEC8		 CLR.W	   -312(A6)			         $FFFFFEC8
000037EC 41EEFEC8		 LEA	   -312(A6),A0			         $FFFFFEC8
000037F0 2D48FFDE		 MOVE.L	   A0,-34(A6)			         $FFFFFFDE
000037F4 426EFFDC		 CLR.W	   -36(A6)			         $FFFFFFDC
000037F8 6100C8B0		 BSR.L	   B.4(PC)			         WRITE_STRING = CODE.+
000037FC 2E6EFE56     L.33.9	 MOVEA.L   X.33.1(A6),A7
		      *							       LINE 30/46
		      *							       LINE 30/47
00003800 202D0114		 MOVE.L	   STATIC.+276(A5),D0		         INPUT_FILE
00003804 4A80			 TST.L	   D0
00003806 6606			 BNE.S	   X.33.13(PC)
00003808 4EB900000000		 JSR	   E.FILE
0000380E 2040	      X.33.13	 MOVEA.L   D0,A0
00003810 2050			 MOVEA.L   (A0),A0
00003812 43ED0014		 LEA	   STATIC.+20(A5),A1		         INPUT_RECORD
00003816 721F			 MOVEQ	   #31,D1			         $1F
00003818 22D8	      X.33.14	 MOVE.L	   (A0)+,(A1)+
0000381A 22D8			 MOVE.L	   (A0)+,(A1)+0000381C 51C9FFFA		 DBF	   D1,X.33.14(PC)
00003820 2F00			 MOVE.L	   D0,-(A7)
00003822 4EB900000000		 JSR	   Y.GET
		      *							       LINE 30/48
00003828 4E75			 RTS	   
		      *
		      *		 Begin program M68DMP
		      *
				 XDEF	   M.START 
0000382A	      M.START 
0000382A 7010	      B.1	 MOVEQ	   #16,D0			         $10
0000382C 2F00			 MOVE.L	   D0,-(A7)
0000382E 610E			 BSR.S	   X.1.1(PC)
00003830 00000000		 DC.L	   C.1
00003834 0000			 DC.W	   0				         $0
00003836 0006			 DC.W	   6				       String length word
00003838 4D3638444D50		 DC.B	   'M68DMP'
0000383E 203CFFFFFD5E X.1.1	 MOVE.L	   #T.1-4,D0			         -670
00003844 4EB900000000		 JSR	   M.ENTRY
		      *							       LINE 31/2
		      *							       LINE 31/3
0000384A 6100C7C8     L.1.1	 BSR.L	   B.3(PC)			         INITIALIZE = CODE.+$1
		      *							       LINE 31/4
0000384E 6100FCE4		 BSR.L	   B.33(PC)			         GET_FILE_NAMES = CODE
		      *							       LINE 31/5
00003852 6100CB48		 BSR.L	   B.21(PC)			         MOTOROLA_FORMAT_DUMP 
		      *							       LINE 31/6
00003856 6100F7F8		 BSR.L	   B.31(PC)			         PROCESS_INPUT = CODE.
		      *							       LINE 31/8
0000385A 6100FA88		 BSR.L	   B.32(PC)			         PRINT_ESDID_STATISTI 
		      *							       LINE 31/10
0000385E 4EB900000000		 JSR	   M.STOP
				 XREF	   T.OPEN
				 XREF	   TTY
				 XREF	   T.REWRIT
				 XREF	   TTYOUTPU
				 XREF	   E.FILE
				 XREF	   T.WRITE
				 XREF	   T.WRTLN
				 XREF	   I.PTSTRV
				 XREF	   C.MVFF
				 XREF	   T.PAGE
				 XREF	   M.DYNTMB
				 XREF	   C.MVFR
				 XREF	   M.STOP				 XREF	   E.INDEX
				 XREF	   I.EOF
				 XREF	   Y.GET
				 XREF	   E.VALUE
				 XREF	   C.MVCR
				 XREF	   I.FILNAM
				 XREF	   I.CLOSE
				 XREF	   Y.INIT
				 XREF	   I.FILSTA
				 XREF	   E.SUBSTR
				 XREF	   I.PTSTRF
				 XREF	   I.PTSTRD
				 XREF	   G.I4PWR
				 XREF	   G.I4MULT
				 XREF	   C.CPFF
				 XREF	   T.BREAK
				 XREF	   T.READLN
				 XREF	   T.READ
				 XREF	   C.CPFC
				 XREF	   I.GENSTA
				 XREF	   M.ENTRY
		      *
		      *		 Code area:      00003212 bytes (12818 decimal)
		      *		 Constant area:  00000652 bytes (1618 decimal)
		      *		 Static area:    0000100C bytes (4108 decimal)
		      *
	 00000000		 END
   H@