       File DSK:EXE001.PAS[31024,274425]   Compiled 10-Aug-82 10:34   Pascal, Version 2A(440)-1

       File DSK:EXE001.PAS[31024,274425]   Compiled 10-Aug-82 10:34   Pascal, Version 2A(440)-1

       File DSK:EXE001.PAS[31024,274425]   Compiled 10-Aug-82 10:34   Pascal, Version 2A(440)-1

       File DSK:EXE001.PAS[31024,274425]   Compiled 10-Aug-82 10:34   Pascal, Version 2A(440)-1





			    $$$$$   $   $   $$$$$     $$      $$      $  
			    $       $   $   $        $  $    $  $    $$  
			    $        $ $    $        $  $    $  $     $  
			    $$$       $     $$$      $  $    $  $     $  
			    $        $ $    $        $  $    $  $     $  
			    $       $   $   $        $  $    $  $     $  
			    $$$$$   $   $   $$$$$     $$      $$     $$$ 


				    DSK:EXE001.PAS[31024,274425]


Options in effect: 

	CHECK, NOSPECIAL, NOMAP, NOSYMBOLS, NOCALLS, ASSEMBLY, NOXREF, TRACE, QBLOCKS, NOOPTIMIZE, 
	CODE, NODEBUG, FINISH, NOGLOBAL, NOMAINSEG, NOOVERLAY, AUTOQUICK, SOURCE, NOSTANDARD, 
	LENGTH (45), WIDTH (102), NOEXTLENGTH, STORAGE (2048), ALLOC (0), ENABLE(M68)




       File DSK:EXE001.PAS[31024,274425]   Compiled 10-Aug-82 10:34   Pascal, Version 2A(440)-1

       File DSK:EXE001.PAS[31024,274425]   Compiled 10-Aug-82 10:34   Pascal, Version 2A(440)-1

       File DSK:EXE001.PAS[31024,274425]   Compiled 10-Aug-82 10:34   Pascal, Version 2A(440)-1

       File DSK:EXE001.PAS[31024,274425]   Compiled 10-Aug-82 10:34   Pascal, Version 2A(440)-1
       File DSK:EXE001.PAS[31024,274425]   Compiled 10-Aug-82 10:34   Pascal, Version 2A(440)-1

       File DSK:EXE001.PAS[31024,274425]   Compiled 10-Aug-82 10:34   Pascal, Version 2A(440)-1

       File DSK:EXE001.PAS[31024,274425]   Compiled 10-Aug-82 10:34   Pascal, Version 2A(440)-1

       File DSK:EXE001.PAS[31024,274425]   Compiled 10-Aug-82 10:34   Pascal, Version 2A(440)-1





			    $$$$$   $   $   $$$$$     $$      $$      $  
			    $       $   $   $        $  $    $  $    $$  
			    $        $ $    $        $  $    $  $     $  
			    $$$       $     $$$      $  $    $  $     $  
			    $        $ $    $        $  $    $  $     $  
			    $       $   $   $        $  $    $  $     $  
			    $$$$$   $   $   $$$$$     $$      $$     $$$ 


				    DSK:EXE001.PAS[31024,274425]


Options in effect: 

	CHECK, NOSPECIAL, NOMAP, NOSYMBOLS, NOCALLS, ASSEMBLY, NOXREF, TRACE, QBLOCKS, NOOPTIMIZE, 
	CODE, NODEBUG, FINISH, NOGLOBAL, NOMAINSEG, NOOVERLAY, AUTOQUICK, SOURCE, NOSTANDARD, 
	LENGTH (45), WIDTH (102), NOEXTLENGTH, STORAGE (2048), ALLOC (0), ENABLE(M68)




       File DSK:EXE001.PAS[31024,274425]   Compiled 10-Aug-82 10:34   Pascal, Version 2A(440)-1

       File DSK:EXE001.PAS[31024,274425]   Compiled 10-Aug-82 10:34   Pascal, Version 2A(440)-1

       File DSK:EXE001.PAS[31024,274425]   Compiled 10-Aug-82 10:34   Pascal, Version 2A(440)-1

       File DSK:EXE001.PAS[31024,274425]   Compiled 10-Aug-82 10:34   Pascal, Version 2A(440)-1
MODULE  EXE001       DSK:EXE001.PAS[31024,274425]                                      10-Aug-82 10:34
SECTION 0                                                                                       PAGE 1

    1	(* EXE001 - string assignments, substrings, lengths, concatenations
    2	   and case conversions.  *)
    3	
    4	program exe001;
    5	
    6	public var
    7	  s1: packed array [1..4] of char := 's123';
    8	  s2: string[12] := 'string 12';
    9	  t: packed array [1..16] of char;
   10	  vflx: ^string[*];
   11	  fflx: ^packed array [1..*] of char;
   12	  aflx: packed array [ 1..400 ] of char;
   13	  bigstr : string [ 400 ];
   14	  i, j, k: integer;
   15	  vs1: string[15];
   16	  vs2: string [ 10 ];
   17	  bool: boolean;
   18	  ch1, ch2, ch3: char;
   19	
   20	procedure error ( error_number: 0..1000 );
   21	  begin
   22	    writeln ( ttyoutput, 'Error ', error_number );
   23	    break ( ttyoutput );
   24	  end;
   25	
   26	function func_ret_char ( ch: char ): char;
   27	  begin
   28	    func_ret_char := ch;
   29	  end;
   30	
   31	
   32	procedure many_params ( a:string[10]; b:char; c:string[400]; d:integer; e:string[10]; f:boolea
	n );
   33	begin
   34	  if a <> 'string10..' then error ( 300 );
   35	  if b <> 'c' then error ( 301 );
   36	  if c <> 'A.VERY.BIG.STRING.ACTUALLY.DECLARED.400' then error ( 302 );
   37	  if d <> 123 then error ( 303 );
   38	  if e <> 'STRING.10.' then error ( 304 );
   39	  if f then error ( 305 );
   40	end;
   41	MODULE  EXE001       DSK:EXE001.PAS[31024,274425]                                      10-Aug-82 10:34
SECTION 0                                                                                       PAGE 2

   42	procedure substr_as_param (a : packed array [1..10] of char);
   43	begin
   44	  if a <> 'string10..' then error( 350 );
   45	end;
   46	
   47	function case_passed ( A : String [ 400 ] ): boolean;
   48	  Begin
   49	    case_passed :=
   50	        ( substr ( A , 1 , 26 ) = 'ABCDEFGHIJKLMNOPQRSTUVWXYZ' );
   51	    If case_passed andif ( Length ( A ) > 128 )
   52	      then case_passed := Substr ( a , 128 , 10 ) = 'ABCDEFGHIJ';
   53	    if case_passed andif ( Length ( A ) > 300 )
   54	      then case_passed := Substr ( a , 300 , 10 ) = '1234567890'
   55	  end;
   56	  
   57	  
   58	procedure gory (s1, s2, s3, s4, s5: string[*]; j: integer);
   59	  label 1;
   60	  function f: string;
   61	    begin
   62	      f := 'ty';
   63	      if s1 = s3 then begin
   64	        error (400);
   65	        goto 1
   66	        (* shouldn't happen, but existence ofthe goto complicates pass4 
   67	           handling of the concatenations *)
   68	      end
   69	    end;
   70	  
   71	  begin
   72	    if (s1 || s2 <> substr (s3 || s4, 1, j) || f) then
   73	      error (401);
   74	   1:
   75	    if (s1 || s3 = substr (s2 || s4, 1, j) || f) then
   76	      error (402)
   77	  end;
   78	
   79	
   80	
   81	begin
   82	  rewrite ( ttyoutput );
   83	  writeln ( ttyoutput, 'Begin EXE001' );MODULE  EXE001       DSK:EXE001.PAS[31024,274425]                                      10-Aug-82 10:34
SECTION 0                                                                                       PAGE 3

   84	  break ( ttyoutput );
   85	  i := 3;
   86	  j := 6;
   87	  
   88	  new ( vflx, 12 );
   89	  new ( fflx, 7 );
   90	  
   91	  vflx^ := 'very flexible';                     (* 'very flexibl' *)
   92	  if vflx^ <> 'very flexibl' then error ( 1 );
   93	  i := length ( s2 );                           (* 9 *)
   94	  if i <> 9 then error ( 2 );
   95	  j := length ( s1 );                           (* 4 *)
   96	  if j <> 4 then error ( 3 );
   97	  k := length ( vflx^ );                        (* 12 *)
   98	  if k <> 12 then error ( 4 );
   99	  i := length ( fflx^ );                        (* 7 *)
  100	  if i <> 7 then error ( 5 );
  101	
  102	  fflx^ := 'ooof';                              (* 'ooof   ' *)
  103	  if fflx^ <> 'ooof   ' then error ( 6 );
  104	  t := uppercase ( s1 )  ||  substr ( s2, 3, 6);        (* 'S123ring 1      ' *)
  105	  if t <> 'S123ring 1      ' then error ( 7 );
  106	  s1 := fflx^;                                  (* 'ooof' *)
  107	  if s1 <> 'ooof' then error ( 8 );
  108	  t := vflx^ || lowercase( ' ' ) || s1;                 (* 'very flexibl ooo' *)
  109	  if t <> 'very flexibl ooo' then error ( 9 );
  110	  fflx^ := substr( vflx^,1, i - 2 ) || s1;      (* 'very oo' *)
  111	  if fflx^ <> 'very oo' then error ( 10 );
  112	  substr(vflx^, 6, length(vflx^) - 6) := uppercase ( s1 );      (* 'very OOOF  l' *)
  113	  if vflx^ <> 'very OOOF  l' then error ( 11 );
  114	
  115	  ch1 := s2[j];                                 (* 'i' *)
  116	  if ch1 <> 'i' then error ( 12 );
  117	  ch2 := vflx^[i];                              (* 'O' *)
  118	  if ch2 <> 'O' then error ( 13 );
  119	  ch3 := uppercase( 'a' );                      (* 'A' *)
  120	  if ch3 <> 'A' then error ( 14 );
  121	
  122	  t := fflx^ || '_' || vflx^ || s2;             (* 'very oo_very OOO' *)
  123	  if t <> 'very oo_very OOO' then error ( 15 );
  124	  fflx^ := vflx^;                               (* 'very OO' *)
  125	  if fflx^ <> 'very OO' then error ( 16 );MODULE  EXE001       DSK:EXE001.PAS[31024,274425]                                      10-Aug-82 10:34
SECTION 0                                                                                       PAGE 4

  126	  fflx^ := t || lowercase( substr(vflx^, i, j + k - 12) );      (* 'very oo' *)
  127	  if fflx^ <> 'very oo' then error ( 17 );
  128	
  129	  vs1 := 'ooof';                                (* 'ooof' *)
  130	  if vs1 <> 'ooof' then error ( 18 );
  131	  s2 := vs1;                                    (* 'ooof' *)
  132	  if s2 <> 'ooof' then error ( 19 );
  133	  fflx^ := s2 || vs1;                           (* 'ooofooo' *)
  134	  if fflx^ <> 'ooofooo' then error ( 20 );
  135	  ch1 := substr(t,9,4)[2];                      (* 'e' *)
  136	  if ch1 <> 'e' then error ( 21 );
  137	  t := '';                                      (* '                ' *)
  138	  if t <> '                ' then error ( 22 );
  139	  vs1 := '';                                    (* '' *);
  140	  if vs1 <> '' then error ( 23 );
  141	  t := 'a';                                     (* 'a               ' *)
  142	  if t <> 'a' then error ( 24 );
  143	  vs1 := 'a';                                   (* 'a' *)
  144	  if vs1 <> 'a' then error ( 25 );
  145	  vflx^ := '12345678';                          (* '12345678' *)
  146	  if vflx^ <> '12345678' then error ( 26 );
  147	  vs1 := substr ( vflx^, 3, 1 );                        (* '3' *)
  148	  if vs1 <> '3' then error ( 27 );
  149	  ch1 := uppercase( t )[ 1 ];                           (* 'A' *)
  150	  if ch1 <> 'A' then error ( 28 );
  151	  vs1 := substr( vflx^, 4 );                    (* '45678' *)
  152	  if vs1 <> '45678' then error ( 29 );
  153	  vs1 := 'string_longer_than upb_lhs';          (* 'string_longer_t' *)
  154	  if vs1 <> 'string_longer_t' then error ( 30 );
  155	  t := lowercase ( 'ABC' || '&' || uppercase ( s2 ) );  (* 'abc&ooof        ' *)
  156	  if t <> 'abc&ooof' then error ( 31 );
  157	  vs1 := uppercase ( substr ( lowercase ( t ), j ) );   (* '&OOOF           ' *)
  158	  if vs1 <> '&OOOF' then error ( 32 );
  159	  vs1 := substr ( t, 1, 3 ) || '.' || substr ( vflx^, 1, 3 );   (* 'abc.123' *)
  160	  if vs1 <> 'abc.123' then error ( 33 );
  161	  s1 := 'more than 4 chars';                    (* 'more' *)
  162	  if s1 <> 'more' then error ( 34 );
  163	  ch1 := uppercase( vs1 )[ 3 ];                 (* 'C' *)
  164	  if ch1 <> 'C' then error ( 35 );
  165	  s1 := substr ( t, j, 3 );                     (* '&oo ' *)
  166	  if s1 <> '&oo ' then error ( 36 );
  167	  s2 := '123456789012';                         (* '123456789012' *)MODULE  EXE001       DSK:EXE001.PAS[31024,274425]                                      10-Aug-82 10:34
SECTION 0                                                                                       PAGE 5

  168	  if s2 <> '123456789012' then error ( 37 );
  169	  substr( t, 4 ) :=  'cba';                     (* 'abccba         ' *)
  170	  if t <> 'abccba' then error ( 38 );
  171	  substr( s2, i, 5 ) := 'abcdefg';              (* '123456abcde2' *)
  172	  if s2 <> '123456abcde2' then error ( 39 );
  173	  substr( fflx^, 3 ) := 'foof';                 (* 'oofoof ' *)
  174	  if fflx^ <> 'oofoof ' then error ( 40 );
  175	  substr( fflx^, j, 3 ) := '';                  (* 'oof    ' *)
  176	  if fflx^ <> 'oof  ' then error ( 41 );
  177	  substr( vflx^, 5, 4 ) := '43210';             (* '12344321' *)
  178	  if vflx^ <> '12344321' then error ( 42 );
  179	  substr( vflx^,i ) := 'abcdefgh';              (* '123443ab' *)
  180	  if vflx^ <> '123443ab' then error ( 43 );
  181	  t := substr ( vflx^ || ' ', 5 );      (* '43ab ' *)
  182	  if t <> '43ab' then error ( 44 );
  183	  substr( vs1, 4 ) := vs1;              (* 'abcabc.' *)
  184	  if vs1 <> 'abcabc.' then error ( 45 );
  185	  vs1 := substr ( vs1, j );             (* 'abc.' *)
  186	  if vs1 <> 'abc.' then error ( 46 );
  187	  substr( vs1, 3 ) := substr( vs1, j ); (* 'ab.' *)
  188	  if vs1 <> 'ab.' then error ( 47 );
  189	  vs1 := chr ( k + ord( 'A' ) - k );            (* 'A' *)
  190	  if vs1 <> 'A' then error ( 48 );
  191	  vs1 := vs1 || func_ret_char ( t[ 1 ] );       (* 'A4' *)
  192	  if vs1 <> 'A4' then error ( 49 );
  193	
  194	  new ( vflx , 26 );
  195	  new ( fflx , 26 );
  196	  vflx^ := 'abcdefghijklmnopqrstuvwxyz';
  197	  fflx^ := vflx^;
  198	  if (fflx^ <> 'abcdefghijklmnopqrstuvwxyz')
  199	  or (vflx^ <> 'abcdefghijklmnopqrstuvwxyz')
  200	  or ( vflx^ <> fflx^ )
  201	    then error ( 50 );
  202	  if not case_passed ( uppercase ( fflx^ ) )
  203	    then error ( 51 );
  204	  if not case_passed ( Uppercase ( vflx^ ) )
  205	    then error ( 52 );
  206	  if not case_passed (uppercase(substr(fflx^,1,10)||substr(vflx^,11)) )
  207	    then error ( 53 );
  208	  If not case_passed ( Uppercase(substr(fflx^,1,10))||Uppercase(substr(vflx^,11)))
  209	    then error ( 54 );MODULE  EXE001       DSK:EXE001.PAS[31024,274425]                                      10-Aug-82 10:34
SECTION 0                                                                                       PAGE 6

  210	  new (fflx , 154 );
  211	  new (vflx , 154 );
  212	  substr(fflx^,1,26) := 'ABCDEFGHIJKLMNOPQRSTUVWXYZ';
  213	  substr(fflx^,128,26) := substr(fflx^,1,26);
  214	  if ( substr(fflx^,1,26) <> 'ABCDEFGHIJKLMNOPQRSTUVWXYZ' )
  215	  or ( substr(fflx^,128,26) <> substr(fflx^,1,26) )
  216	    then error ( 55 );
  217	  vflx^ := fflx^;
  218	  if ( substr(vflx^,1,26) <> 'ABCDEFGHIJKLMNOPQRSTUVWXYZ' )
  219	  or ( substr(vflx^,128,26) <> substr(vflx^,1,26) )
  220	    then error ( 56 );
  221	  if not case_passed ( fflx^ )
  222	    then error ( 57 );
  223	  if not case_passed ( vflx^ )
  224	    then error ( 58 );
  225	  if not case_passed ( uppercase ( fflx^ ) )
  226	    then error ( 59 );
  227	  if not case_passed ( uppercase ( lowercase ( vflx^ ) ) )
  228	    then error ( 60 );
  229	
  230	  new ( vflx , 400 );
  231	  vflx^ := '';
  232	  for i := 1 to 400 do
  233	    vflx^ := vflx^ || 'a';
  234	  substr ( vflx^ , 365,5 ) := '12345';
  235	  substr ( vflx^ , 300, 10 ) := '1234567890';
  236	  if uppercase(substr(vflx^,360,10)) <> 'AAAAA12345'
  237	    then error ( 61 );
  238	
  239	  if not case_passed ( 'ABCDEFGHIJKLMNOPQRSTUVWXYZ' )
  240	    then error ( 62 );
  241	
  242	  substr(aflx,1,26) := 'ABCDEFGHIJKLMNOPQRSTUVWXYZ';
  243	  substr(aflx,128,26) := substr(aflx,1,26);
  244	  substr(aflx,300,10) := '1234567890';
  245	  if not case_passed ( aflx )
  246	    then error ( 63 );
  247	
  248	  bigstr := substr(aflx,1,26);
  249	  bigstr := bigstr || bigstr || bigstr || bigstr || bigstr || bigstr;
  250	  bigstr := substr ( bigstr , 1 , 127 );
  251	  bigstr := bigstr || substr ( bigstr , 1 , 26 ) || bigstr || bigstr;MODULE  EXE001       DSK:EXE001.PAS[31024,274425]                                      10-Aug-82 10:34
SECTION 0                                                                                       PAGE 7

  252	  bigstr := substr ( bigstr , 1 , 299 ) || '1234567890';
  253	  if not case_passed ( bigstr )
  254	    then error ( 64 );
  255	
  256	  vs1 := 'string10..';
  257	  ch1 := 'c';
  258	  bigstr := 'A.VERY.BIG.STRING.ACTUALLY.DECLARED.400';
  259	  i := 123;
  260	  vs2 := 'STRING.10.';
  261	  bool := false;
  262	  many_params(vs1, ch1, bigstr, i, vs2, bool );
  263	  vs1 := 'AAAstring10..AA';
  264	  substr_as_param ( substr( vs1, 4, 10) );
  265	
  266	  gory ('NAS', 'TYnasty', 'NASTY', 'naszz', 'xxx', 8);
  267	  
  268	  i := 21;
  269	  j := 19;
  270	  t := chr( i + j );
  271	  if t <> '(' then error ( 65 );
  272	  writeln ( ttyoutput, 'End EXE001' );
  273	end.

File   level   on page     name

  0	 0	    1	DSK:EXE001.PAS[31024,274425]
                                                                                                                                                                                                                                                                              		      EXE001     IDNT	   0,0
		      *
		      *		 MC68000 Checkout Code Generator,  Aug 10, 1982  10:34:41 am
		      *
	 00000002		 SECTION   2
	 00000000     STATIC.	 EQU	   *
	 0000000A		 SECTION   10
	 00000000     CODE.	 EQU	   *
00000000 C21DC30F     C.1	 DC.L	   $C21DC30F			       Date-time
00000004 0000			 DC.W	   0				         $0
00000006 455845303031		 DC.B	   'EXE001'
	 00000002		 SECTION   2
		      *
		      *		 Initialized static area
		      *
				 XDEF	   S1      
00000000 73313233     S1      	 DC.B	   's123'
				 XDEF	   S2      
00000004 0009	      S2      	 DC.W	   9				       String length word
00000006 737472696E67		 DC.B	   'string 12'
0000000F 00000001		 DS.B	   1
00000010 00000002		 DS.B	   2
		      *
		      *		 Unitialized static area
		      *
00000012 00000368		 DS.B	   872
				 XDEF	   T       
		      T       	 EQU	   STATIC.+18
				 XDEF	   VFLX    
		      VFLX    	 EQU	   STATIC.+34
				 XDEF	   FFLX    
		      FFLX    	 EQU	   STATIC.+38
				 XDEF	   AFLX    
		      AFLX    	 EQU	   STATIC.+42
				 XDEF	   BIGSTR  
		      BIGSTR  	 EQU	   STATIC.+442
				 XDEF	   I       
		      I       	 EQU	   STATIC.+844
				 XDEF	   J       
		      J       	 EQU	   STATIC.+848
				 XDEF	   K       
		      K       	 EQU	   STATIC.+852
				 XDEF	   VS1     
		      VS1     	 EQU	   STATIC.+856
				 XDEF	   VS2     		      VS2     	 EQU	   STATIC.+874
				 XDEF	   BOOL    
		      BOOL    	 EQU	   STATIC.+886
				 XDEF	   CH1     
		      CH1     	 EQU	   STATIC.+887
				 XDEF	   CH2     
		      CH2     	 EQU	   STATIC.+888
				 XDEF	   CH3     
		      CH3     	 EQU	   STATIC.+889
	 0000000A		 SECTION   10
		     	      *		 Constant area for subroutine ERROR
		      *
0000000C 4572726F7220 K.1	 DC.B	   'Error '
		      *
		      *		 Begin subroutine ERROR
		      *
00000012	      B.3
		      *							       LINE 21
		      *							       LINE 22
00000012 202D0000     L.3.1	 MOVE.L	   TTYOUTPUT-32768(A5),D0	         TTYOUTPUT
00000016 4A80			 TST.L	   D0
00000018 6606			 BNE.S	   X.3.1(PC)
0000001A 4EB900000000		 JSR	   E.FILE
00000020 7206	      X.3.1	 MOVEQ	   #6,D1			         $6
00000022 3F01			 MOVE.W	   D1,-(A7)
00000024 7204			 MOVEQ	   #4,D1			         $4
00000026 3F01			 MOVE.W	   D1,-(A7)
00000028 487AFFE2		 PEA	   K.1(PC)			         CODE.+$C
0000002C 2F00			 MOVE.L	   D0,-(A7)
0000002E 4EB900000000		 JSR	   T.WRITE
00000034 4267			 CLR.W	   -(A7)
00000036 486EFFB4		 PEA	   -76(A6)			         ERROR_NUMBER
0000003A 2F00			 MOVE.L	   D0,-(A7)
0000003C 4EB900000000		 JSR	   T.WRITE
00000042 2F00			 MOVE.L	   D0,-(A7)
00000044 4EB900000000		 JSR	   T.WRTLN
		      *							       LINE 23
0000004A 202D0000		 MOVE.L	   TTYOUTPUT-32768(A5),D0	         TTYOUTPUT
0000004E 4A80			 TST.L	   D0
00000050 6606			 BNE.S	   X.3.2(PC)
00000052 4EB900000000		 JSR	   E.FILE
00000058 2F00	      X.3.2	 MOVE.L	   D0,-(A7)
0000005A 4EB900000000		 JSR	   T.BREAK
		      *							       LINE 2400000060 4E75			 RTS	   
		      *
		      *		 Begin subroutine FUNC_RET_CHAR
		      *
00000062	      B.4
		      *							       LINE 27
		      *							       LINE 28
00000062 206EFFB8     L.4.1	 MOVEA.L   -72(A6),A0			         FUNC_RET_CHAR
00000066 10AEFFBC		 MOVE.B	   -68(A6),(A0)			         CH
		      *							       LINE 29
0000006A 4E75			 RTS	   
		      *
		      *		 Constant area for subroutine MANY_PARAMS
		      *
0000006C 737472696E67 K.2	 DC.B	   'string10..'
00000076 412E56455259 K.3	 DC.B	   'A.VERY.BIG.STRING.ACTUALLY.DECLARED.400'
0000009D 00000001		 DS.B	   1
0000009E 535452494E47 K.4	 DC.B	   'STRING.10.'
		      *
		      *		 Begin subroutine MANY_PARAMS
		      *
000000A8	      B.5
		      *							       LINE 33
		      *							       LINE 34
000000A8 206EFFBE     L.5.1	 MOVEA.L   -66(A6),A0			         A
000000AC 487AFFBE		 PEA	   K.2(PC)			         CODE.+$6C
000000B0 700A			 MOVEQ	   #10,D0			         $A
000000B2 3F00			 MOVE.W	   D0,-(A7)
000000B4 48680002		 PEA	   2(A0)			         $2
000000B8 3F10			 MOVE.W	   (A0),-(A7)
000000BA 4EB900000000		 JSR	   C.CPFF
000000C0 670C			 BEQ.S	   L.5.3(PC)
		      *							       LINE 34 (2)
000000C2 2D7C0000012C L.5.2	 MOVE.L	   #300,-76(A6)			         $12C  $FFFFFFB4
	 FFB4
000000CA 6100FF46		 BSR.L	   B.3(PC)			         ERROR = CODE.+$12
		      *							       LINE 35
000000CE 7063	      L.5.3	 MOVEQ	   #99,D0			         $63
000000D0 B02EFFC2		 CMP.B	   -62(A6),D0			         B
000000D4 670C			 BEQ.S	   L.5.5(PC)
		      *							       LINE 35 (2)
000000D6 2D7C0000012D L.5.4	 MOVE.L	   #301,-76(A6)			         $12D  $FFFFFFB4
	 FFB4
000000DE 6100FF32		 BSR.L	   B.3(PC)			         ERROR = CODE.+$12
		      *							       LINE 36000000E2 206EFFC4     L.5.5	 MOVEA.L   -60(A6),A0			         C
000000E6 487AFF8E		 PEA	   K.3(PC)			         CODE.+$76
000000EA 7027			 MOVEQ	   #39,D0			         $27
000000EC 3F00			 MOVE.W	   D0,-(A7)
000000EE 48680002		 PEA	   2(A0)			         $2
000000F2 3F10			 MOVE.W	   (A0),-(A7)
000000F4 4EB900000000		 JSR	   C.CPFF
000000FA 670C			 BEQ.S	   L.5.7(PC)
		      *							       LINE 36 (2)
000000FC 2D7C0000012E L.5.6	 MOVE.L	   #302,-76(A6)			         $12E  $FFFFFFB4
	 FFB4
00000104 6100FF0C		 BSR.L	   B.3(PC)			         ERROR = CODE.+$12
		      *							       LINE 37
00000108 707B	      L.5.7	 MOVEQ	   #123,D0			         $7B
0000010A B0AEFFC8		 CMP.L	   -56(A6),D0			         D
0000010E 670C			 BEQ.S	   L.5.9(PC)
		      *							       LINE 37 (2)
00000110 2D7C0000012F L.5.8	 MOVE.L	   #303,-76(A6)			         $12F  $FFFFFFB4
	 FFB4
00000118 6100FEF8		 BSR.L	   B.3(PC)			         ERROR = CODE.+$12
		      *							       LINE 38
0000011C 206EFFCC     L.5.9	 MOVEA.L   -52(A6),A0			         E
00000120 487AFF7C		 PEA	   K.4(PC)			         CODE.+$9E
00000124 700A			 MOVEQ	   #10,D0			         $A
00000126 3F00			 MOVE.W	   D0,-(A7)
00000128 48680002		 PEA	   2(A0)			         $2
0000012C 3F10			 MOVE.W	   (A0),-(A7)
0000012E 4EB900000000		 JSR	   C.CPFF
00000134 670C			 BEQ.S	   L.5.11(PC)
		      *							       LINE 38 (2)
00000136 2D7C00000130 L.5.10	 MOVE.L	   #304,-76(A6)			         $130  $FFFFFFB4
	 FFB4
0000013E 6100FED2		 BSR.L	   B.3(PC)			         ERROR = CODE.+$12
		      *							       LINE 39
00000142 4A2EFFD0     L.5.11	 TST.B	   -48(A6)			         F
00000146 670C			 BEQ.S	   L.5.13(PC)
		      *							       LINE 39 (2)
00000148 2D7C00000131 L.5.12	 MOVE.L	   #305,-76(A6)			         $131  $FFFFFFB4
	 FFB4
00000150 6100FEC0		 BSR.L	   B.3(PC)			         ERROR = CODE.+$12
		      *							       LINE 40
00000154 4E75	      L.5.13	 RTS	   
		      *
		      *		 Constant area for subroutine SUBSTR_AS_PARAM
		      *00000156 737472696E67 K.5	 DC.B	   'string10..'
		      *
		      *		 Begin subroutine SUBSTR_AS_PARAM
		      *
00000160	      B.6
		      *							       LINE 43
		      *							       LINE 44
00000160 206EFFD2     L.6.1	 MOVEA.L   -46(A6),A0			         A
00000164 487AFFF0		 PEA	   K.5(PC)			         CODE.+$156
00000168 700A			 MOVEQ	   #10,D0			         $A
0000016A 3F00			 MOVE.W	   D0,-(A7)
0000016C 4850			 PEA	   (A0)
0000016E 700A			 MOVEQ	   #10,D0			         $A
00000170 3F00			 MOVE.W	   D0,-(A7)
00000172 4EB900000000		 JSR	   C.CPFF
00000178 670C			 BEQ.S	   L.6.3(PC)
		      *							       LINE 44 (2)
0000017A 2D7C0000015E L.6.2	 MOVE.L	   #350,-76(A6)			         $15E  $FFFFFFB4
	 FFB4
00000182 6100FE8E		 BSR.L	   B.3(PC)			         ERROR = CODE.+$12
		      *							       LINE 45
00000186 4E75	      L.6.3	 RTS	   
		      *
		      *		 Constant area for subroutine CASE_PASSED
		      *
00000188 414243444546 K.6	 DC.B	   'ABCDEFGHIJKLMNOPQRSTUVWXYZ'
000001A2 414243444546 K.7	 DC.B	   'ABCDEFGHIJ'
000001AC 313233343536 K.8	 DC.B	   '1234567890'
		      *
		      *		 Begin subroutine CASE_PASSED
		      *
000001B6	      B.7
		      *							       LINE 48
		      *							       LINE 49
000001B6 206EFFD6     L.7.1	 MOVEA.L   -42(A6),A0			         CASE_PASSED
000001BA 226EFFDA		 MOVEA.L   -38(A6),A1			         A
000001BE 7000			 MOVEQ	   #0,D0			         $0
000001C0 3011			 MOVE.W	   (A1),D0
000001C2 90BC00000000		 SUB.L	   #0,D0			         $0
000001C8 0C800000001A		 CMPI.L	   #26,D0			         $1A
000001CE 6C06			 BGE.S	   X.7.2(PC)
000001D0 4EB900000000 X.7.1	 JSR	   E.SUBSTR
000001D6 487AFFB0     X.7.2	 PEA	   K.6(PC)			         CODE.+$188
000001DA 701A			 MOVEQ	   #26,D0			         $1A
000001DC 3F00			 MOVE.W	   D0,-(A7)000001DE 48690002		 PEA	   2(A1)			         $2
000001E2 701A			 MOVEQ	   #26,D0			         $1A
000001E4 3F00			 MOVE.W	   D0,-(A7)
000001E6 4EB900000000		 JSR	   C.CPFF
000001EC 57C0			 SEQ	   D0
000001EE C07C0001		 AND.W	   #1,D0			         $1
000001F2 1080			 MOVE.B	   D0,(A0)
		      *							       LINE 51
000001F4 206EFFD6		 MOVEA.L   -42(A6),A0			         CASE_PASSED
000001F8 4A10			 TST.B	   (A0)
000001FA 6748			 BEQ.S	   L.7.4(PC)
000001FC 206EFFDA     L.7.2	 MOVEA.L   -38(A6),A0			         A
00000200 0C500080		 CMPI.W	   #128,(A0)			         $80
00000204 633E			 BLS.S	   L.7.4(PC)
		      *							       LINE 52
00000206 206EFFD6     L.7.3	 MOVEA.L   -42(A6),A0			         CASE_PASSED
0000020A 226EFFDA		 MOVEA.L   -38(A6),A1			         A
0000020E 7000			 MOVEQ	   #0,D0			         $0
00000210 3011			 MOVE.W	   (A1),D0
00000212 90BC0000007F		 SUB.L	   #127,D0			         $7F
00000218 0C800000000A		 CMPI.L	   #10,D0			         $A
0000021E 6C06			 BGE.S	   X.7.4(PC)
00000220 4EB900000000 X.7.3	 JSR	   E.SUBSTR
00000226 487AFF7A     X.7.4	 PEA	   K.7(PC)			         CODE.+$1A2
0000022A 700A			 MOVEQ	   #10,D0			         $A
0000022C 3F00			 MOVE.W	   D0,-(A7)
0000022E 48690081		 PEA	   129(A1)			         $81
00000232 700A			 MOVEQ	   #10,D0			         $A
00000234 3F00			 MOVE.W	   D0,-(A7)
00000236 4EB900000000		 JSR	   C.CPFF
0000023C 57C0			 SEQ	   D0
0000023E C07C0001		 AND.W	   #1,D0			         $1
00000242 1080			 MOVE.B	   D0,(A0)
		      *							       LINE 53
00000244 206EFFD6     L.7.4	 MOVEA.L   -42(A6),A0			         CASE_PASSED
00000248 4A10			 TST.B	   (A0)
0000024A 6748			 BEQ.S	   L.7.7(PC)
0000024C 206EFFDA     L.7.5	 MOVEA.L   -38(A6),A0			         A
00000250 0C50012C		 CMPI.W	   #300,(A0)			         $12C
00000254 633E			 BLS.S	   L.7.7(PC)
		      *							       LINE 54
00000256 206EFFD6     L.7.6	 MOVEA.L   -42(A6),A0			         CASE_PASSED
0000025A 226EFFDA		 MOVEA.L   -38(A6),A1			         A
0000025E 7000			 MOVEQ	   #0,D0			         $0
00000260 3011			 MOVE.W	   (A1),D000000262 90BC0000012B		 SUB.L	   #299,D0			         $12B
00000268 0C800000000A		 CMPI.L	   #10,D0			         $A
0000026E 6C06			 BGE.S	   X.7.6(PC)
00000270 4EB900000000 X.7.5	 JSR	   E.SUBSTR
00000276 487AFF34     X.7.6	 PEA	   K.8(PC)			         CODE.+$1AC
0000027A 700A			 MOVEQ	   #10,D0			         $A
0000027C 3F00			 MOVE.W	   D0,-(A7)
0000027E 4869012D		 PEA	   301(A1)			         $12D
00000282 700A			 MOVEQ	   #10,D0			         $A
00000284 3F00			 MOVE.W	   D0,-(A7)
00000286 4EB900000000		 JSR	   C.CPFF
0000028C 57C0			 SEQ	   D0
0000028E C07C0001		 AND.W	   #1,D0			         $1
00000292 1080			 MOVE.B	   D0,(A0)
		      *							       LINE 55
00000294 4E75	      L.7.7	 RTS	   
		      *
		      *		 Begin subroutine F
		      *
00000296	      B.9
		      *							       LINE 61
		      *							       LINE 62
00000296 206EFFB0     L.9.1	 MOVEA.L   -80(A6),A0			         F
0000029A 20BC00027479		 MOVE.L	   #160889,(A0)			         $27479
		      *							       LINE 63
000002A0 206EFFE0		 MOVEA.L   -32(A6),A0			         S1
000002A4 226EFFEC		 MOVEA.L   -20(A6),A1			         S3
000002A8 48690002		 PEA	   2(A1)			         $2
000002AC 3F11			 MOVE.W	   (A1),-(A7)
000002AE 48680002		 PEA	   2(A0)			         $2
000002B2 3F10			 MOVE.W	   (A0),-(A7)
000002B4 4EB900000000		 JSR	   C.CPFF
000002BA 6612			 BNE.S	   L.9.3(PC)
		      *							       LINE 63 (2)
		      *							       LINE 64
000002BC 2D7C00000190 L.9.2	 MOVE.L	   #400,-76(A6)			         $190  $FFFFFFB4
	 FFB4
000002C4 6100FD4C		 BSR.L	   B.3(PC)			         ERROR = CODE.+$12
		      *							       LINE 65
000002C8 4EF900000000		 JMP	   S.27
		      *							       LINE 69
000002CE 4E75	      L.9.3	 RTS	   
		      *
		      *		 Begin subroutine GORY
		      *000002D0 2D4FFF12     B.8	 MOVE.L	   A7,ST.8(A6)			         -238
		      *							       LINE 71
		      *							       LINE 72
000002D4 206EFFE0     L.8.1	 MOVEA.L   -32(A6),A0			         S1
000002D8 3010			 MOVE.W	   (A0),D0
000002DA 226EFFE6		 MOVEA.L   -26(A6),A1			         S2
000002DE D051			 ADD.W	   (A1),D0
000002E0 4840			 SWAP	   D0
000002E2 4240			 CLR.W	   D0
000002E4 4840			 SWAP	   D0
000002E6 2F00			 MOVE.L	   D0,-(A7)
000002E8 4EB900000000		 JSR	   M.DYNTMB
000002EE 244F			 MOVEA.L   A7,A2
000002F0 4852			 PEA	   (A2)
000002F2 3F00			 MOVE.W	   D0,-(A7)
000002F4 48680002		 PEA	   2(A0)			         $2
000002F8 3F10			 MOVE.W	   (A0),-(A7)
000002FA 4EB900000000		 JSR	   C.MVFF
00000300 48690002		 PEA	   2(A1)			         $2
00000304 3F11			 MOVE.W	   (A1),-(A7)
00000306 4EB900000000		 JSR	   C.MVFR
0000030C 206EFFEC		 MOVEA.L   -20(A6),A0			         S3
00000310 3210			 MOVE.W	   (A0),D1
00000312 226EFFF2		 MOVEA.L   -14(A6),A1			         S4
00000316 D251			 ADD.W	   (A1),D1
00000318 4841			 SWAP	   D1
0000031A 4241			 CLR.W	   D1
0000031C 4841			 SWAP	   D1
0000031E 2F01			 MOVE.L	   D1,-(A7)
00000320 4EB900000000		 JSR	   M.DYNTMB
00000326 264F			 MOVEA.L   A7,A3
00000328 4853			 PEA	   (A3)
0000032A 3F01			 MOVE.W	   D1,-(A7)
0000032C 48680002		 PEA	   2(A0)			         $2
00000330 3F10			 MOVE.W	   (A0),-(A7)
00000332 4EB900000000		 JSR	   C.MVFF
00000338 48690002		 PEA	   2(A1)			         $2
0000033C 3F11			 MOVE.W	   (A1),-(A7)
0000033E 4EB900000000		 JSR	   C.MVFR
00000344 242EFFFC		 MOVE.L	   -4(A6),D2			         J
00000348 4841			 SWAP	   D1
0000034A 4241			 CLR.W	   D1
0000034C 4841			 SWAP	   D1
0000034E 4A82			 TST.L	   D2
00000350 6D0C			 BLT.S	   X.8.1(PC)00000352 2601			 MOVE.L	   D1,D3
00000354 96BC00000000		 SUB.L	   #0,D3			         $0
0000035A B682			 CMP.L	   D2,D3
0000035C 6C06			 BGE.S	   X.8.2(PC)
0000035E 4EB900000000 X.8.1	 JSR	   E.SUBSTR
00000364 3202	      X.8.2	 MOVE.W	   D2,D1
00000366 41EEFF2A		 LEA	   -214(A6),A0			         $FFFFFF2A
0000036A 2D48FFB0		 MOVE.L	   A0,-80(A6)			         $FFFFFFB0
0000036E 48EE0C07FF16		 MOVEM.L   #3079,-234(A6)		         $C07  $FFFFFF16
00000374 6100FF20		 BSR.L	   B.9(PC)			         F = CODE.+$296
00000378 4CEE0C07FF16		 MOVEM.L   -234(A6),#3079		         $FFFFFF16  $C07
0000037E D26EFF2A		 ADD.W	   -214(A6),D1			         $FFFFFF2A
00000382 4841			 SWAP	   D1
00000384 4241			 CLR.W	   D1
00000386 4841			 SWAP	   D1
00000388 2F01			 MOVE.L	   D1,-(A7)
0000038A 4EB900000000		 JSR	   M.DYNTMB
00000390 204F			 MOVEA.L   A7,A0
00000392 4850			 PEA	   (A0)
00000394 3F01			 MOVE.W	   D1,-(A7)
00000396 4853			 PEA	   (A3)
00000398 3F02			 MOVE.W	   D2,-(A7)
0000039A 4EB900000000		 JSR	   C.MVFF
000003A0 486EFF2C		 PEA	   -212(A6)			         $FFFFFF2C
000003A4 3F2EFF2A		 MOVE.W	   -214(A6),-(A7)		         $FFFFFF2A
000003A8 4EB900000000		 JSR	   C.MVFR
000003AE 4850			 PEA	   (A0)
000003B0 3F01			 MOVE.W	   D1,-(A7)
000003B2 4852			 PEA	   (A2)
000003B4 3F00			 MOVE.W	   D0,-(A7)
000003B6 4EB900000000		 JSR	   C.CPFF
000003BC 6710			 BEQ.S	   L.8.3(PC)
000003BE 2E6EFF12     L.8.2	 MOVEA.L   ST.8(A6),A7			         -238
		      *							       LINE 73
000003C2 2D7C00000191		 MOVE.L	   #401,-76(A6)			         $191  $FFFFFFB4
	 FFB4
000003CA 6100FC46		 BSR.L	   B.3(PC)			         ERROR = CODE.+$12
000003CE 2E6EFF12     L.8.3	 MOVEA.L   ST.8(A6),A7			         -238
000003D2	      L.8.4
000003D2 2E6EFF12     S.27	 MOVEA.L   ST.8(A6),A7			         -238
		      *							       LINE 75
000003D6 206EFFE0		 MOVEA.L   -32(A6),A0			         S1
000003DA 3010			 MOVE.W	   (A0),D0
000003DC 226EFFEC		 MOVEA.L   -20(A6),A1			         S3
000003E0 D051			 ADD.W	   (A1),D0000003E2 4840			 SWAP	   D0
000003E4 4240			 CLR.W	   D0
000003E6 4840			 SWAP	   D0
000003E8 2F00			 MOVE.L	   D0,-(A7)
000003EA 4EB900000000		 JSR	   M.DYNTMB
000003F0 244F			 MOVEA.L   A7,A2
000003F2 4852			 PEA	   (A2)
000003F4 3F00			 MOVE.W	   D0,-(A7)
000003F6 48680002		 PEA	   2(A0)			         $2
000003FA 3F10			 MOVE.W	   (A0),-(A7)
000003FC 4EB900000000		 JSR	   C.MVFF
00000402 48690002		 PEA	   2(A1)			         $2
00000406 3F11			 MOVE.W	   (A1),-(A7)
00000408 4EB900000000		 JSR	   C.MVFR
0000040E 206EFFE6		 MOVEA.L   -26(A6),A0			         S2
00000412 3210			 MOVE.W	   (A0),D1
00000414 226EFFF2		 MOVEA.L   -14(A6),A1			         S4
00000418 D251			 ADD.W	   (A1),D1
0000041A 4841			 SWAP	   D1
0000041C 4241			 CLR.W	   D1
0000041E 4841			 SWAP	   D1
00000420 2F01			 MOVE.L	   D1,-(A7)
00000422 4EB900000000		 JSR	   M.DYNTMB
00000428 264F			 MOVEA.L   A7,A3
0000042A 4853			 PEA	   (A3)
0000042C 3F01			 MOVE.W	   D1,-(A7)
0000042E 48680002		 PEA	   2(A0)			         $2
00000432 3F10			 MOVE.W	   (A0),-(A7)
00000434 4EB900000000		 JSR	   C.MVFF
0000043A 48690002		 PEA	   2(A1)			         $2
0000043E 3F11			 MOVE.W	   (A1),-(A7)
00000440 4EB900000000		 JSR	   C.MVFR
00000446 242EFFFC		 MOVE.L	   -4(A6),D2			         J
0000044A 4841			 SWAP	   D1
0000044C 4241			 CLR.W	   D1
0000044E 4841			 SWAP	   D1
00000450 4A82			 TST.L	   D2
00000452 6D0C			 BLT.S	   X.8.3(PC)
00000454 2601			 MOVE.L	   D1,D3
00000456 96BC00000000		 SUB.L	   #0,D3			         $0
0000045C B682			 CMP.L	   D2,D3
0000045E 6C06			 BGE.S	   X.8.4(PC)
00000460 4EB900000000 X.8.3	 JSR	   E.SUBSTR
00000466 3202	      X.8.4	 MOVE.W	   D2,D1
00000468 41EEFF2A		 LEA	   -214(A6),A0			         $FFFFFF2A0000046C 2D48FFB0		 MOVE.L	   A0,-80(A6)			         $FFFFFFB0
00000470 48EE0C07FF16		 MOVEM.L   #3079,-234(A6)		         $C07  $FFFFFF16
00000476 6100FE1E		 BSR.L	   B.9(PC)			         F = CODE.+$296
0000047A 4CEE0C07FF16		 MOVEM.L   -234(A6),#3079		         $FFFFFF16  $C07
00000480 D26EFF2A		 ADD.W	   -214(A6),D1			         $FFFFFF2A
00000484 4841			 SWAP	   D1
00000486 4241			 CLR.W	   D1
00000488 4841			 SWAP	   D1
0000048A 2F01			 MOVE.L	   D1,-(A7)
0000048C 4EB900000000		 JSR	   M.DYNTMB
00000492 204F			 MOVEA.L   A7,A0
00000494 4850			 PEA	   (A0)
00000496 3F01			 MOVE.W	   D1,-(A7)
00000498 4853			 PEA	   (A3)
0000049A 3F02			 MOVE.W	   D2,-(A7)
0000049C 4EB900000000		 JSR	   C.MVFF
000004A2 486EFF2C		 PEA	   -212(A6)			         $FFFFFF2C
000004A6 3F2EFF2A		 MOVE.W	   -214(A6),-(A7)		         $FFFFFF2A
000004AA 4EB900000000		 JSR	   C.MVFR
000004B0 4850			 PEA	   (A0)
000004B2 3F01			 MOVE.W	   D1,-(A7)
000004B4 4852			 PEA	   (A2)
000004B6 3F00			 MOVE.W	   D0,-(A7)
000004B8 4EB900000000		 JSR	   C.CPFF
000004BE 6610			 BNE.S	   L.8.6(PC)
000004C0 2E6EFF12     L.8.5	 MOVEA.L   ST.8(A6),A7			         -238
		      *							       LINE 76
000004C4 2D7C00000192		 MOVE.L	   #402,-76(A6)			         $192  $FFFFFFB4
	 FFB4
000004CC 6100FB44		 BSR.L	   B.3(PC)			         ERROR = CODE.+$12
000004D0 2E6EFF12     L.8.6	 MOVEA.L   ST.8(A6),A7			         -238
		      *							       LINE 77
000004D4 4E75			 RTS	   
		      *
		      *		 Constant area for program EXE001
		      *
000004D6 23434E	      K.9	 DC.B	   '#CN'
000004D9 00000001		 DS.B	   1
000004DA 426567696E20 K.10	 DC.B	   'Begin EXE001'
000004E6 766572792066 K.11	 DC.B	   'very flexible'
000004F3 00000001		 DS.B	   1
000004F4 766572792066 K.12	 DC.B	   'very flexibl'
00000500 6F6F6F66     K.13	 DC.B	   'ooof'
00000504 6F6F6F662020 K.14	 DC.B	   'ooof   '
0000050B 00000001		 DS.B	   10000050C 533132337269 K.15	 DC.B	   'S123ring 1      '
0000051C 6F6F6F66     K.16	 DC.B	   'ooof'
00000520 766572792066 K.17	 DC.B	   'very flexibl ooo'
00000530 76657279206F K.18	 DC.B	   'very oo'
00000537 00000001		 DS.B	   1
00000538 76657279204F K.19	 DC.B	   'very OOOF  l'
00000544 76657279206F K.20	 DC.B	   'very oo_very OOO'
00000554 76657279204F K.21	 DC.B	   'very OO'
0000055B 00000001		 DS.B	   1
0000055C 76657279206F K.22	 DC.B	   'very oo'
00000563 00000001		 DS.B	   1
00000564 6F6F6F66     K.23	 DC.B	   'ooof'
00000568 6F6F6F66     K.24	 DC.B	   'ooof'
0000056C 6F6F6F666F6F K.25	 DC.B	   'ooofooo'
00000573 00000001		 DS.B	   1
00000574	      K.26
00000574 202020202020 K.27	 DC.B	   '                '
00000584	      K.28
00000584 313233343536 K.29	 DC.B	   '12345678'
0000058C 313233343536 K.30	 DC.B	   '12345678'
00000594 3435363738   K.31	 DC.B	   '45678'
00000599 00000001		 DS.B	   1
0000059A 737472696E67 K.32	 DC.B	   'string_longer_than upb_lhs'
000005B4 737472696E67 K.33	 DC.B	   'string_longer_t'
000005C3 00000001		 DS.B	   1
000005C4 414243	      K.34	 DC.B	   'ABC'
000005C7 00000001		 DS.B	   1
000005C8 616263266F6F K.35	 DC.B	   'abc&ooof'
000005D0 264F4F4F46   K.36	 DC.B	   '&OOOF'
000005D5 00000001		 DS.B	   1
000005D6 6162632E3132 K.37	 DC.B	   'abc.123'
000005DD 00000001		 DS.B	   1
000005DE 6D6F7265     K.38	 DC.B	   'more'
000005E2 266F6F20     K.39	 DC.B	   '&oo '
000005E6 313233343536 K.40	 DC.B	   '123456789012'
000005F2 313233343536 K.41	 DC.B	   '123456789012'
000005FE 636261	      K.42	 DC.B	   'cba'
00000601 00000001		 DS.B	   1
00000602 616263636261 K.43	 DC.B	   'abccba'
00000608 616263646566 K.44	 DC.B	   'abcdefg'
0000060F 00000001		 DS.B	   1
00000610 313233343536 K.45	 DC.B	   '123456abcde2'
0000061C 666F6F66     K.46	 DC.B	   'foof'
00000620 6F6F666F6F66 K.47	 DC.B	   'oofoof '
00000627 00000001		 DS.B	   100000628	      K.48
00000628 6F6F662020   K.49	 DC.B	   'oof  '
0000062D 00000001		 DS.B	   1
0000062E 3433323130   K.50	 DC.B	   '43210'
00000633 00000001		 DS.B	   1
00000634 313233343433 K.51	 DC.B	   '12344321'
0000063C 616263646566 K.52	 DC.B	   'abcdefgh'
00000644 313233343433 K.53	 DC.B	   '123443ab'
0000064C 34336162     K.54	 DC.B	   '43ab'
00000650 616263616263 K.55	 DC.B	   'abcabc.'
00000657 00000001		 DS.B	   1
00000658 6162632E     K.56	 DC.B	   'abc.'
0000065C 61622E	      K.57	 DC.B	   'ab.'
0000065F 00000001		 DS.B	   1
00000660 4134	      K.58	 DC.B	   'A4'
00000662 616263646566 K.59	 DC.B	   'abcdefghijklmnopqrstuvwxyz'
0000067C 616263646566 K.60	 DC.B	   'abcdefghijklmnopqrstuvwxyz'
00000696 616263646566 K.61	 DC.B	   'abcdefghijklmnopqrstuvwxyz'
000006B0 414243444546 K.62	 DC.B	   'ABCDEFGHIJKLMNOPQRSTUVWXYZ'
000006CA 414243444546 K.63	 DC.B	   'ABCDEFGHIJKLMNOPQRSTUVWXYZ'
000006E4 414243444546 K.64	 DC.B	   'ABCDEFGHIJKLMNOPQRSTUVWXYZ'
000006FE	      K.65
000006FE 3132333435   K.66	 DC.B	   '12345'
00000703 00000001		 DS.B	   1
00000704 313233343536 K.67	 DC.B	   '1234567890'
0000070E 414141414131 K.68	 DC.B	   'AAAAA12345'
00000718 414243444546 K.69	 DC.B	   'ABCDEFGHIJKLMNOPQRSTUVWXYZ'
00000732 414243444546 K.70	 DC.B	   'ABCDEFGHIJKLMNOPQRSTUVWXYZ'
0000074C 313233343536 K.71	 DC.B	   '1234567890'
00000756 313233343536 K.72	 DC.B	   '1234567890'
00000760 412E56455259 K.73	 DC.B	   'A.VERY.BIG.STRING.ACTUALLY.DECLARED.400'
00000787 00000001		 DS.B	   1
00000788 414141737472 K.74	 DC.B	   'AAAstring10..AA'
00000797 00000001		 DS.B	   1
00000798 787878	      K.75	 DC.B	   'xxx'
0000079B 00000001		 DS.B	   1
0000079C 6E61737A7A   K.76	 DC.B	   'naszz'
000007A1 00000001		 DS.B	   1
000007A2 4E41535459   K.77	 DC.B	   'NASTY'
000007A7 00000001		 DS.B	   1
000007A8 54596E617374 K.78	 DC.B	   'TYnasty'
000007AF 00000001		 DS.B	   1
000007B0 4E4153	      K.79	 DC.B	   'NAS'
000007B3 00000001		 DS.B	   1
000007B4 456E64204558 K.80	 DC.B	   'End EXE001'		      *
		      *		 Begin program EXE001
		      *
				 XDEF	   M.START 
000007BE	      M.START 
000007BE 7010	      B.1	 MOVEQ	   #16,D0			         $10
000007C0 2F00			 MOVE.L	   D0,-(A7)
000007C2 610E			 BSR.S	   X.1.1(PC)
000007C4 00000000		 DC.L	   C.1
000007C8 0000			 DC.W	   0				         $0
000007CA 0006			 DC.W	   6				       String length word
000007CC 455845303031		 DC.B	   'EXE001'
000007D2 203CFFFFFBE6 X.1.1	 MOVE.L	   #T.1-4,D0			         -1046
000007D8 4EB900000000		 JSR	   M.ENTRY
000007DE 2D4FFBEA		 MOVE.L	   A7,ST.1(A6)			         -1046
		      *							       LINE 81
		      *							       LINE 82
000007E2 487AFCF2     L.1.1	 PEA	   K.9(PC)			         CODE.+$4D6
000007E6 7003			 MOVEQ	   #3,D0			         $3
000007E8 3F00			 MOVE.W	   D0,-(A7)
000007EA 7032			 MOVEQ	   #50,D0			         $32
000007EC 3F00			 MOVE.W	   D0,-(A7)
000007EE 4EB900000000		 JSR	   T.REWRIT
000007F4 2B5F0000		 MOVE.L	   (A7)+,TTYOUTPUT-32768(A5)	         TTYOUTPUT
		      *							       LINE 83
000007F8 202D0000		 MOVE.L	   TTYOUTPUT-32768(A5),D0	         TTYOUTPUT
000007FC 4A80			 TST.L	   D0
000007FE 6606			 BNE.S	   X.1.2(PC)
00000800 4EB900000000		 JSR	   E.FILE
00000806 720C	      X.1.2	 MOVEQ	   #12,D1			         $C
00000808 3F01			 MOVE.W	   D1,-(A7)
0000080A 7204			 MOVEQ	   #4,D1			         $4
0000080C 3F01			 MOVE.W	   D1,-(A7)
0000080E 487AFCCA		 PEA	   K.10(PC)			         CODE.+$4DA
00000812 2F00			 MOVE.L	   D0,-(A7)
00000814 4EB900000000		 JSR	   T.WRITE
0000081A 2F00			 MOVE.L	   D0,-(A7)
0000081C 4EB900000000		 JSR	   T.WRTLN
		      *							       LINE 84
00000822 202D0000		 MOVE.L	   TTYOUTPUT-32768(A5),D0	         TTYOUTPUT
00000826 4A80			 TST.L	   D0
00000828 6606			 BNE.S	   X.1.3(PC)
0000082A 4EB900000000		 JSR	   E.FILE
00000830 2F00	      X.1.3	 MOVE.L	   D0,-(A7)
00000832 4EB900000000		 JSR	   T.BREAK		      *							       LINE 85
00000838 7003			 MOVEQ	   #3,D0			         $3
0000083A 2B40833A		 MOVE.L	   D0,STATIC.+844-32768(A5)	         I
		      *							       LINE 86
0000083E 7006			 MOVEQ	   #6,D0			         $6
00000840 2B40833E		 MOVE.L	   D0,STATIC.+848-32768(A5)	         J
		      *							       LINE 88
00000844 7010			 MOVEQ	   #16,D0			         $10
00000846 2F00			 MOVE.L	   D0,-(A7)
00000848 4EB900000000		 JSR	   H.NEW
0000084E 201F			 MOVE.L	   (A7)+,D0
00000850 2B408010		 MOVE.L	   D0,STATIC.+34-32768(A5)	         VFLX
00000854 2040			 MOVEA.L   D0,A0
00000856 700C			 MOVEQ	   #12,D0			         $C
00000858 3080			 MOVE.W	   D0,(A0)
		      *							       LINE 89
0000085A 7009			 MOVEQ	   #9,D0			         $9
0000085C 2F00			 MOVE.L	   D0,-(A7)
0000085E 4EB900000000		 JSR	   H.NEW
00000864 201F			 MOVE.L	   (A7)+,D0
00000866 2B408014		 MOVE.L	   D0,STATIC.+38-32768(A5)	         FFLX
0000086A 2040			 MOVEA.L   D0,A0
0000086C 7007			 MOVEQ	   #7,D0			         $7
0000086E 3080			 MOVE.W	   D0,(A0)
		      *							       LINE 91
00000870 202D8010		 MOVE.L	   STATIC.+34-32768(A5),D0	         VFLX
00000874 4A80			 TST.L	   D0
00000876 6606			 BNE.S	   X.1.4(PC)
00000878 4EB900000000		 JSR	   E.PTR
0000087E 2040	      X.1.4	 MOVEA.L   D0,A0
00000880 303C000D		 MOVE.W	   #13,D0			         $D
00000884 B050			 CMP.W	   (A0),D0
00000886 6F02			 BLE.S	   X.1.5(PC)
00000888 3010			 MOVE.W	   (A0),D0
0000088A 31400002     X.1.5	 MOVE.W	   D0,2(A0)			         $2
0000088E 48680004		 PEA	   4(A0)			         $4
00000892 3F10			 MOVE.W	   (A0),-(A7)
00000894 487AFC50		 PEA	   K.11(PC)			         CODE.+$4E6
00000898 700D			 MOVEQ	   #13,D0			         $D
0000089A 3F00			 MOVE.W	   D0,-(A7)
0000089C 4EB900000000		 JSR	   C.MVFF
		      *							       LINE 92
000008A2 202D8010		 MOVE.L	   STATIC.+34-32768(A5),D0	         VFLX
000008A6 4A80			 TST.L	   D0
000008A8 6606			 BNE.S	   X.1.6(PC)000008AA 4EB900000000		 JSR	   E.PTR
000008B0 2040	      X.1.6	 MOVEA.L   D0,A0
000008B2 487AFC40		 PEA	   K.12(PC)			         CODE.+$4F4
000008B6 700C			 MOVEQ	   #12,D0			         $C
000008B8 3F00			 MOVE.W	   D0,-(A7)
000008BA 48680004		 PEA	   4(A0)			         $4
000008BE 3F280002		 MOVE.W	   2(A0),-(A7)			         $2
000008C2 4EB900000000		 JSR	   C.CPFF
000008C8 670C			 BEQ.S	   L.1.3(PC)
		      *							       LINE 92 (2)
000008CA 2D7C00000001 L.1.2	 MOVE.L	   #1,-76(A6)			         $1  $FFFFFFB4
	 FFB4
000008D2 6100F73E		 BSR.L	   B.3(PC)			         ERROR = CODE.+$12
		      *							       LINE 93
000008D6 7000	      L.1.3	 MOVEQ	   #0,D0			         $0
000008D8 302D8004		 MOVE.W	   STATIC.+4-32768(A5),D0	         S2
000008DC 2B40833A		 MOVE.L	   D0,STATIC.+844-32768(A5)	         I
		      *							       LINE 94
000008E0 7009			 MOVEQ	   #9,D0			         $9
000008E2 B0AD833A		 CMP.L	   STATIC.+844-32768(A5),D0	         I
000008E6 670C			 BEQ.S	   L.1.5(PC)
		      *							       LINE 94 (2)
000008E8 2D7C00000002 L.1.4	 MOVE.L	   #2,-76(A6)			         $2  $FFFFFFB4
	 FFB4
000008F0 6100F720		 BSR.L	   B.3(PC)			         ERROR = CODE.+$12
		      *							       LINE 95
000008F4 7004	      L.1.5	 MOVEQ	   #4,D0			         $4
000008F6 2B40833E		 MOVE.L	   D0,STATIC.+848-32768(A5)	         J
		      *							       LINE 96
000008FA 7004			 MOVEQ	   #4,D0			         $4
000008FC B0AD833E		 CMP.L	   STATIC.+848-32768(A5),D0	         J
00000900 670C			 BEQ.S	   L.1.7(PC)
		      *							       LINE 96 (2)
00000902 2D7C00000003 L.1.6	 MOVE.L	   #3,-76(A6)			         $3  $FFFFFFB4
	 FFB4
0000090A 6100F706		 BSR.L	   B.3(PC)			         ERROR = CODE.+$12
		      *							       LINE 97
0000090E 202D8010     L.1.7	 MOVE.L	   STATIC.+34-32768(A5),D0	         VFLX
00000912 4A80			 TST.L	   D0
00000914 6606			 BNE.S	   X.1.7(PC)
00000916 4EB900000000		 JSR	   E.PTR
0000091C 2040	      X.1.7	 MOVEA.L   D0,A0
0000091E 7000			 MOVEQ	   #0,D0			         $0
00000920 30280002		 MOVE.W	   2(A0),D0			         $2
00000924 2B408342		 MOVE.L	   D0,STATIC.+852-32768(A5)	         K		      *							       LINE 98
00000928 700C			 MOVEQ	   #12,D0			         $C
0000092A B0AD8342		 CMP.L	   STATIC.+852-32768(A5),D0	         K
0000092E 670C			 BEQ.S	   L.1.9(PC)
		      *							       LINE 98 (2)
00000930 2D7C00000004 L.1.8	 MOVE.L	   #4,-76(A6)			         $4  $FFFFFFB4
	 FFB4
00000938 6100F6D8		 BSR.L	   B.3(PC)			         ERROR = CODE.+$12
		      *							       LINE 99
0000093C 202D8014     L.1.9	 MOVE.L	   STATIC.+38-32768(A5),D0	         FFLX
00000940 4A80			 TST.L	   D0
00000942 6606			 BNE.S	   X.1.8(PC)
00000944 4EB900000000		 JSR	   E.PTR
0000094A 2040	      X.1.8	 MOVEA.L   D0,A0
0000094C 7000			 MOVEQ	   #0,D0			         $0
0000094E 3010			 MOVE.W	   (A0),D0
00000950 2B40833A		 MOVE.L	   D0,STATIC.+844-32768(A5)	         I
		      *							       LINE 100
00000954 7007			 MOVEQ	   #7,D0			         $7
00000956 B0AD833A		 CMP.L	   STATIC.+844-32768(A5),D0	         I
0000095A 670C			 BEQ.S	   L.1.11(PC)
		      *							       LINE 100 (2)
0000095C 2D7C00000005 L.1.10	 MOVE.L	   #5,-76(A6)			         $5  $FFFFFFB4
	 FFB4
00000964 6100F6AC		 BSR.L	   B.3(PC)			         ERROR = CODE.+$12
		      *							       LINE 102
00000968 202D8014     L.1.11	 MOVE.L	   STATIC.+38-32768(A5),D0	         FFLX
0000096C 4A80			 TST.L	   D0
0000096E 6606			 BNE.S	   X.1.9(PC)
00000970 4EB900000000		 JSR	   E.PTR
00000976 2040	      X.1.9	 MOVEA.L   D0,A0
00000978 48680002		 PEA	   2(A0)			         $2
0000097C 3F10			 MOVE.W	   (A0),-(A7)
0000097E 487AFB80		 PEA	   K.13(PC)			         CODE.+$500
00000982 7004			 MOVEQ	   #4,D0			         $4
00000984 3F00			 MOVE.W	   D0,-(A7)
00000986 4EB900000000		 JSR	   C.MVFFP
		      *							       LINE 103
0000098C 202D8014		 MOVE.L	   STATIC.+38-32768(A5),D0	         FFLX
00000990 4A80			 TST.L	   D0
00000992 6606			 BNE.S	   X.1.10(PC)
00000994 4EB900000000		 JSR	   E.PTR
0000099A 2040	      X.1.10	 MOVEA.L   D0,A0
0000099C 487AFB66		 PEA	   K.14(PC)			         CODE.+$504
000009A0 7007			 MOVEQ	   #7,D0			         $7000009A2 3F00			 MOVE.W	   D0,-(A7)
000009A4 48680002		 PEA	   2(A0)			         $2
000009A8 3F10			 MOVE.W	   (A0),-(A7)
000009AA 4EB900000000		 JSR	   C.CPFF
000009B0 670C			 BEQ.S	   L.1.13(PC)
		      *							       LINE 103 (2)
000009B2 2D7C00000006 L.1.12	 MOVE.L	   #6,-76(A6)			         $6  $FFFFFFB4
	 FFB4
000009BA 6100F656		 BSR.L	   B.3(PC)			         ERROR = CODE.+$12
		      *							       LINE 104
000009BE 7000	      L.1.13	 MOVEQ	   #0,D0			         $0
000009C0 302D8004		 MOVE.W	   STATIC.+4-32768(A5),D0	         S2
000009C4 5580			 SUBQ.L	   #2,D0			         $2
000009C6 0C8000000006		 CMPI.L	   #6,D0			         $6
000009CC 6C06			 BGE.S	   X.1.12(PC)
000009CE 4EB900000000 X.1.11	 JSR	   E.SUBSTR
000009D4 486EFF08     X.1.12	 PEA	   -248(A6)			         $FFFFFF08
000009D8 700A			 MOVEQ	   #10,D0			         $A
000009DA 3F00			 MOVE.W	   D0,-(A7)
000009DC 486D8000		 PEA	   STATIC.+0-32768(A5)		         S1
000009E0 7004			 MOVEQ	   #4,D0			         $4
000009E2 3F00			 MOVE.W	   D0,-(A7)
000009E4 4EB900000000		 JSR	   C.MVFFU
000009EA 486D8008		 PEA	   STATIC.+4-32764(A5)		         S2
000009EE 7006			 MOVEQ	   #6,D0			         $6
000009F0 3F00			 MOVE.W	   D0,-(A7)
000009F2 4EB900000000		 JSR	   C.MVFR
000009F8 486D8000		 PEA	   STATIC.+18-32768(A5)		         T
000009FC 7010			 MOVEQ	   #16,D0			         $10
000009FE 3F00			 MOVE.W	   D0,-(A7)
00000A00 486EFF08		 PEA	   -248(A6)			         $FFFFFF08
00000A04 700A			 MOVEQ	   #10,D0			         $A
00000A06 3F00			 MOVE.W	   D0,-(A7)
00000A08 4EB900000000		 JSR	   C.MVFFP
		      *							       LINE 105
00000A0E 487AFAFC		 PEA	   K.15(PC)			         CODE.+$50C
00000A12 7010			 MOVEQ	   #16,D0			         $10
00000A14 3F00			 MOVE.W	   D0,-(A7)
00000A16 486D8000		 PEA	   STATIC.+18-32768(A5)		         T
00000A1A 7010			 MOVEQ	   #16,D0			         $10
00000A1C 3F00			 MOVE.W	   D0,-(A7)
00000A1E 4EB900000000		 JSR	   C.CPFF
00000A24 670C			 BEQ.S	   L.1.15(PC)
		      *							       LINE 105 (2)
00000A26 2D7C00000007 L.1.14	 MOVE.L	   #7,-76(A6)			         $7  $FFFFFFB4	 FFB4
00000A2E 6100F5E2		 BSR.L	   B.3(PC)			         ERROR = CODE.+$12
		      *							       LINE 106
00000A32 202D8014     L.1.15	 MOVE.L	   STATIC.+38-32768(A5),D0	         FFLX
00000A36 4A80			 TST.L	   D0
00000A38 6606			 BNE.S	   X.1.13(PC)
00000A3A 4EB900000000		 JSR	   E.PTR
00000A40 2040	      X.1.13	 MOVEA.L   D0,A0
00000A42 486D8000		 PEA	   STATIC.+0-32768(A5)		         S1
00000A46 7004			 MOVEQ	   #4,D0			         $4
00000A48 3F00			 MOVE.W	   D0,-(A7)
00000A4A 48680002		 PEA	   2(A0)			         $2
00000A4E 3F10			 MOVE.W	   (A0),-(A7)
00000A50 4EB900000000		 JSR	   C.MVFFP
		      *							       LINE 107
00000A56 487AFAC4		 PEA	   K.16(PC)			         CODE.+$51C
00000A5A 7004			 MOVEQ	   #4,D0			         $4
00000A5C 3F00			 MOVE.W	   D0,-(A7)
00000A5E 486D8000		 PEA	   STATIC.+0-32768(A5)		         S1
00000A62 7004			 MOVEQ	   #4,D0			         $4
00000A64 3F00			 MOVE.W	   D0,-(A7)
00000A66 4EB900000000		 JSR	   C.CPFF
00000A6C 670C			 BEQ.S	   L.1.17(PC)
		      *							       LINE 107 (2)
00000A6E 2D7C00000008 L.1.16	 MOVE.L	   #8,-76(A6)			         $8  $FFFFFFB4
	 FFB4
00000A76 6100F59A		 BSR.L	   B.3(PC)			         ERROR = CODE.+$12
		      *							       LINE 108
00000A7A 202D8010     L.1.17	 MOVE.L	   STATIC.+34-32768(A5),D0	         VFLX
00000A7E 4A80			 TST.L	   D0
00000A80 6606			 BNE.S	   X.1.14(PC)
00000A82 4EB900000000		 JSR	   E.PTR
00000A88 2040	      X.1.14	 MOVEA.L   D0,A0
00000A8A 30280002		 MOVE.W	   2(A0),D0			         $2
00000A8E 5A40			 ADDQ.W	   #5,D0			         $5
00000A90 486EFF02		 PEA	   -254(A6)			         $FFFFFF02
00000A94 7210			 MOVEQ	   #16,D1			         $10
00000A96 3F01			 MOVE.W	   D1,-(A7)
00000A98 48680004		 PEA	   4(A0)			         $4
00000A9C 3F280002		 MOVE.W	   2(A0),-(A7)			         $2
00000AA0 4EB900000000		 JSR	   C.MVFF
00000AA6 7220			 MOVEQ	   #32,D1			         $20
00000AA8 1F01			 MOVE.B	   D1,-(A7)
00000AAA 4EB900000000		 JSR	   C.MVCRL
00000AB0 486D8000		 PEA	   STATIC.+0-32768(A5)		         S100000AB4 7204			 MOVEQ	   #4,D1			         $4
00000AB6 3F01			 MOVE.W	   D1,-(A7)
00000AB8 4EB900000000		 JSR	   C.MVFR
00000ABE 486D8000		 PEA	   STATIC.+18-32768(A5)		         T
00000AC2 7210			 MOVEQ	   #16,D1			         $10
00000AC4 3F01			 MOVE.W	   D1,-(A7)
00000AC6 486EFF02		 PEA	   -254(A6)			         $FFFFFF02
00000ACA 3F00			 MOVE.W	   D0,-(A7)
00000ACC 4EB900000000		 JSR	   C.MVFFP
		      *							       LINE 109
00000AD2 487AFA4C		 PEA	   K.17(PC)			         CODE.+$520
00000AD6 7010			 MOVEQ	   #16,D0			         $10
00000AD8 3F00			 MOVE.W	   D0,-(A7)
00000ADA 486D8000		 PEA	   STATIC.+18-32768(A5)		         T
00000ADE 7010			 MOVEQ	   #16,D0			         $10
00000AE0 3F00			 MOVE.W	   D0,-(A7)
00000AE2 4EB900000000		 JSR	   C.CPFF
00000AE8 670C			 BEQ.S	   L.1.19(PC)
		      *							       LINE 109 (2)
00000AEA 2D7C00000009 L.1.18	 MOVE.L	   #9,-76(A6)			         $9  $FFFFFFB4
	 FFB4
00000AF2 6100F51E		 BSR.L	   B.3(PC)			         ERROR = CODE.+$12
		      *							       LINE 110
00000AF6 202D8010     L.1.19	 MOVE.L	   STATIC.+34-32768(A5),D0	         VFLX
00000AFA 4A80			 TST.L	   D0
00000AFC 6606			 BNE.S	   X.1.15(PC)
00000AFE 4EB900000000		 JSR	   E.PTR
00000B04 2040	      X.1.15	 MOVEA.L   D0,A0
00000B06 202D833A		 MOVE.L	   STATIC.+844-32768(A5),D0	         I
00000B0A 5580			 SUBQ.L	   #2,D0			         $2
00000B0C 7200			 MOVEQ	   #0,D1			         $0
00000B0E 32280002		 MOVE.W	   2(A0),D1			         $2
00000B12 4A80			 TST.L	   D0
00000B14 6D0A			 BLT.S	   X.1.16(PC)
00000B16 92BC00000000		 SUB.L	   #0,D1			         $0
00000B1C B280			 CMP.L	   D0,D1
00000B1E 6C06			 BGE.S	   X.1.17(PC)
00000B20 4EB900000000 X.1.16	 JSR	   E.SUBSTR
00000B26 3200	      X.1.17	 MOVE.W	   D0,D1
00000B28 5841			 ADDQ.W	   #4,D1			         $4
00000B2A 4841			 SWAP	   D1
00000B2C 4241			 CLR.W	   D1
00000B2E 4841			 SWAP	   D1
00000B30 2F01			 MOVE.L	   D1,-(A7)
00000B32 4EB900000000		 JSR	   M.DYNTMB00000B38 224F			 MOVEA.L   A7,A1
00000B3A 4851			 PEA	   (A1)
00000B3C 3F01			 MOVE.W	   D1,-(A7)
00000B3E 48680004		 PEA	   4(A0)			         $4
00000B42 3F00			 MOVE.W	   D0,-(A7)
00000B44 4EB900000000		 JSR	   C.MVFF
00000B4A 486D8000		 PEA	   STATIC.+0-32768(A5)		         S1
00000B4E 7004			 MOVEQ	   #4,D0			         $4
00000B50 3F00			 MOVE.W	   D0,-(A7)
00000B52 4EB900000000		 JSR	   C.MVFR
00000B58 202D8014		 MOVE.L	   STATIC.+38-32768(A5),D0	         FFLX
00000B5C 4A80			 TST.L	   D0
00000B5E 6606			 BNE.S	   X.1.18(PC)
00000B60 4EB900000000		 JSR	   E.PTR
00000B66 2040	      X.1.18	 MOVEA.L   D0,A0
00000B68 48680002		 PEA	   2(A0)			         $2
00000B6C 3F10			 MOVE.W	   (A0),-(A7)
00000B6E 4851			 PEA	   (A1)
00000B70 3F01			 MOVE.W	   D1,-(A7)
00000B72 4EB900000000		 JSR	   C.MVFFP
		      *							       LINE 111
00000B78 202D8014		 MOVE.L	   STATIC.+38-32768(A5),D0	         FFLX
00000B7C 4A80			 TST.L	   D0
00000B7E 6606			 BNE.S	   X.1.19(PC)
00000B80 4EB900000000		 JSR	   E.PTR
00000B86 2040	      X.1.19	 MOVEA.L   D0,A0
00000B88 487AF9A6		 PEA	   K.18(PC)			         CODE.+$530
00000B8C 7007			 MOVEQ	   #7,D0			         $7
00000B8E 3F00			 MOVE.W	   D0,-(A7)
00000B90 48680002		 PEA	   2(A0)			         $2
00000B94 3F10			 MOVE.W	   (A0),-(A7)
00000B96 4EB900000000		 JSR	   C.CPFF
00000B9C 6710			 BEQ.S	   L.1.21(PC)
00000B9E 2E6EFBEA     L.1.20	 MOVEA.L   ST.1(A6),A7			         -1046
		      *							       LINE 111 (2)
00000BA2 2D7C0000000A		 MOVE.L	   #10,-76(A6)			         $A  $FFFFFFB4
	 FFB4
00000BAA 6100F466		 BSR.L	   B.3(PC)			         ERROR = CODE.+$12
00000BAE 2E6EFBEA     L.1.21	 MOVEA.L   ST.1(A6),A7			         -1046
		      *							       LINE 112
00000BB2 202D8010		 MOVE.L	   STATIC.+34-32768(A5),D0	         VFLX
00000BB6 4A80			 TST.L	   D0
00000BB8 6606			 BNE.S	   X.1.20(PC)
00000BBA 4EB900000000		 JSR	   E.PTR
00000BC0 2040	      X.1.20	 MOVEA.L   D0,A000000BC2 202D8010		 MOVE.L	   STATIC.+34-32768(A5),D0	         VFLX
00000BC6 4A80			 TST.L	   D0
00000BC8 6606			 BNE.S	   X.1.21(PC)
00000BCA 4EB900000000		 JSR	   E.PTR
00000BD0 2240	      X.1.21	 MOVEA.L   D0,A1
00000BD2 7000			 MOVEQ	   #0,D0			         $0
00000BD4 30290002		 MOVE.W	   2(A1),D0			         $2
00000BD8 5D80			 SUBQ.L	   #6,D0			         $6
00000BDA 7200			 MOVEQ	   #0,D1			         $0
00000BDC 32280002		 MOVE.W	   2(A0),D1			         $2
00000BE0 4A80			 TST.L	   D0
00000BE2 6D06			 BLT.S	   X.1.22(PC)
00000BE4 5B81			 SUBQ.L	   #5,D1			         $5
00000BE6 B280			 CMP.L	   D0,D1
00000BE8 6C06			 BGE.S	   X.1.23(PC)
00000BEA 4EB900000000 X.1.22	 JSR	   E.SUBSTR
00000BF0 48680009     X.1.23	 PEA	   9(A0)			         $9
00000BF4 3F00			 MOVE.W	   D0,-(A7)
00000BF6 486D8000		 PEA	   STATIC.+0-32768(A5)		         S1
00000BFA 7204			 MOVEQ	   #4,D1			         $4
00000BFC 3F01			 MOVE.W	   D1,-(A7)
00000BFE 4EB900000000		 JSR	   C.MVFFPU
		      *							       LINE 113
00000C04 202D8010		 MOVE.L	   STATIC.+34-32768(A5),D0	         VFLX
00000C08 4A80			 TST.L	   D0
00000C0A 6606			 BNE.S	   X.1.24(PC)
00000C0C 4EB900000000		 JSR	   E.PTR
00000C12 2040	      X.1.24	 MOVEA.L   D0,A0
00000C14 487AF922		 PEA	   K.19(PC)			         CODE.+$538
00000C18 700C			 MOVEQ	   #12,D0			         $C
00000C1A 3F00			 MOVE.W	   D0,-(A7)
00000C1C 48680004		 PEA	   4(A0)			         $4
00000C20 3F280002		 MOVE.W	   2(A0),-(A7)			         $2
00000C24 4EB900000000		 JSR	   C.CPFF
00000C2A 670C			 BEQ.S	   L.1.23(PC)
		      *							       LINE 113 (2)
00000C2C 2D7C0000000B L.1.22	 MOVE.L	   #11,-76(A6)			         $B  $FFFFFFB4
	 FFB4
00000C34 6100F3DC		 BSR.L	   B.3(PC)			         ERROR = CODE.+$12
		      *							       LINE 115
00000C38 202D833E     L.1.23	 MOVE.L	   STATIC.+848-32768(A5),D0	         J
00000C3C 4A80			 TST.L	   D0
00000C3E 6E06			 BGT.S	   X.1.25(PC)
00000C40 4EB900000000 X.1.26	 JSR	   E.INDEX
00000C46 7200	      X.1.25	 MOVEQ	   #0,D1			         $000000C48 322D8004		 MOVE.W	   STATIC.+4-32768(A5),D1	         S2
00000C4C B081			 CMP.L	   D1,D0
00000C4E 6EF0			 BGT.S	   X.1.26(PC)
00000C50 41ED8006		 LEA	   STATIC.+4-32766(A5),A0	         S2
00000C54 1B7008FF8365		 MOVE.B	   -1(A0,D0.L),STATIC.+887-32768(A5)     $FFFFFFFF  CH1
		      *							       LINE 116
00000C5A 7069			 MOVEQ	   #105,D0			         $69
00000C5C B02D8365		 CMP.B	   STATIC.+887-32768(A5),D0	         CH1
00000C60 670C			 BEQ.S	   L.1.25(PC)
		      *							       LINE 116 (2)
00000C62 2D7C0000000C L.1.24	 MOVE.L	   #12,-76(A6)			         $C  $FFFFFFB4
	 FFB4
00000C6A 6100F3A6		 BSR.L	   B.3(PC)			         ERROR = CODE.+$12
		      *							       LINE 117
00000C6E 202D833A     L.1.25	 MOVE.L	   STATIC.+844-32768(A5),D0	         I
00000C72 4A80			 TST.L	   D0
00000C74 6E06			 BGT.S	   X.1.27(PC)
00000C76 4EB900000000 X.1.28	 JSR	   E.INDEX
00000C7C 222D8010     X.1.27	 MOVE.L	   STATIC.+34-32768(A5),D1	         VFLX
00000C80 4A81			 TST.L	   D1
00000C82 6606			 BNE.S	   X.1.29(PC)
00000C84 4EB900000000		 JSR	   E.PTR
00000C8A 2041	      X.1.29	 MOVEA.L   D1,A0
00000C8C 7200			 MOVEQ	   #0,D1			         $0
00000C8E 32280002		 MOVE.W	   2(A0),D1			         $2
00000C92 B081			 CMP.L	   D1,D0
00000C94 6EE0			 BGT.S	   X.1.28(PC)
00000C96 1B7008038366		 MOVE.B	   3(A0,D0.L),STATIC.+888-32768(A5)      $3  CH2
		      *							       LINE 118
00000C9C 704F			 MOVEQ	   #79,D0			         $4F
00000C9E B02D8366		 CMP.B	   STATIC.+888-32768(A5),D0	         CH2
00000CA2 670C			 BEQ.S	   L.1.27(PC)
		      *							       LINE 118 (2)
00000CA4 2D7C0000000D L.1.26	 MOVE.L	   #13,-76(A6)			         $D  $FFFFFFB4
	 FFB4
00000CAC 6100F364		 BSR.L	   B.3(PC)			         ERROR = CODE.+$12
		      *							       LINE 119
00000CB0 7061	      L.1.27	 MOVEQ	   #97,D0			         $61
00000CB2 0C000061		 CMPI.B	   #97,D0			         $61
00000CB6 6D0A			 BLT.S	   X.1.30(PC)
00000CB8 0C00007A		 CMPI.B	   #122,D0			         $7A
00000CBC 6E04			 BGT.S	   X.1.30(PC)
00000CBE 903C0020		 SUB.B	   #32,D0			         $20
00000CC2 4A00	      X.1.30	 TST.B	   D0
00000CC4 6C06			 BGE.S	   X.1.31(PC)00000CC6 4EB900000000 X.1.32	 JSR	   E.VALUE
00000CCC 727F	      X.1.31	 MOVEQ	   #127,D1			         $7F
00000CCE B001			 CMP.B	   D1,D0
00000CD0 6EF4			 BGT.S	   X.1.32(PC)
00000CD2 1B408367		 MOVE.B	   D0,STATIC.+889-32768(A5)	         CH3
		      *							       LINE 120
00000CD6 7041			 MOVEQ	   #65,D0			         $41
00000CD8 B02D8367		 CMP.B	   STATIC.+889-32768(A5),D0	         CH3
00000CDC 670C			 BEQ.S	   L.1.29(PC)
		      *							       LINE 120 (2)
00000CDE 2D7C0000000E L.1.28	 MOVE.L	   #14,-76(A6)			         $E  $FFFFFFB4
	 FFB4
00000CE6 6100F32A		 BSR.L	   B.3(PC)			         ERROR = CODE.+$12
		      *							       LINE 122
00000CEA 202D8014     L.1.29	 MOVE.L	   STATIC.+38-32768(A5),D0	         FFLX
00000CEE 4A80			 TST.L	   D0
00000CF0 6606			 BNE.S	   X.1.33(PC)
00000CF2 4EB900000000		 JSR	   E.PTR
00000CF8 2040	      X.1.33	 MOVEA.L   D0,A0
00000CFA 3010			 MOVE.W	   (A0),D0
00000CFC 222D8010		 MOVE.L	   STATIC.+34-32768(A5),D1	         VFLX
00000D00 4A81			 TST.L	   D1
00000D02 6606			 BNE.S	   X.1.34(PC)
00000D04 4EB900000000		 JSR	   E.PTR
00000D0A 2241	      X.1.34	 MOVEA.L   D1,A1
00000D0C D0690002		 ADD.W	   2(A1),D0			         $2
00000D10 D06D8004		 ADD.W	   STATIC.+4-32768(A5),D0	         S2
00000D14 5240			 ADDQ.W	   #1,D0			         $1
00000D16 486EFF02		 PEA	   -254(A6)			         $FFFFFF02
00000D1A 7210			 MOVEQ	   #16,D1			         $10
00000D1C 3F01			 MOVE.W	   D1,-(A7)
00000D1E 48680002		 PEA	   2(A0)			         $2
00000D22 3F10			 MOVE.W	   (A0),-(A7)
00000D24 4EB900000000		 JSR	   C.MVFF
00000D2A 725F			 MOVEQ	   #95,D1			         $5F
00000D2C 1F01			 MOVE.B	   D1,-(A7)
00000D2E 4EB900000000		 JSR	   C.MVCR
00000D34 48690004		 PEA	   4(A1)			         $4
00000D38 3F290002		 MOVE.W	   2(A1),-(A7)			         $2
00000D3C 4EB900000000		 JSR	   C.MVFR
00000D42 486D8006		 PEA	   STATIC.+4-32766(A5)		         S2
00000D46 3F2D8004		 MOVE.W	   STATIC.+4-32768(A5),-(A7)	         S2
00000D4A 4EB900000000		 JSR	   C.MVFR
00000D50 486D8000		 PEA	   STATIC.+18-32768(A5)		         T
00000D54 7210			 MOVEQ	   #16,D1			         $1000000D56 3F01			 MOVE.W	   D1,-(A7)
00000D58 486EFF02		 PEA	   -254(A6)			         $FFFFFF02
00000D5C 3F00			 MOVE.W	   D0,-(A7)
00000D5E 4EB900000000		 JSR	   C.MVFFP
		      *							       LINE 123
00000D64 487AF7DE		 PEA	   K.20(PC)			         CODE.+$544
00000D68 7010			 MOVEQ	   #16,D0			         $10
00000D6A 3F00			 MOVE.W	   D0,-(A7)
00000D6C 486D8000		 PEA	   STATIC.+18-32768(A5)		         T
00000D70 7010			 MOVEQ	   #16,D0			         $10
00000D72 3F00			 MOVE.W	   D0,-(A7)
00000D74 4EB900000000		 JSR	   C.CPFF
00000D7A 670C			 BEQ.S	   L.1.31(PC)
		      *							       LINE 123 (2)
00000D7C 2D7C0000000F L.1.30	 MOVE.L	   #15,-76(A6)			         $F  $FFFFFFB4
	 FFB4
00000D84 6100F28C		 BSR.L	   B.3(PC)			         ERROR = CODE.+$12
		      *							       LINE 124
00000D88 202D8010     L.1.31	 MOVE.L	   STATIC.+34-32768(A5),D0	         VFLX
00000D8C 4A80			 TST.L	   D0
00000D8E 6606			 BNE.S	   X.1.35(PC)
00000D90 4EB900000000		 JSR	   E.PTR
00000D96 2040	      X.1.35	 MOVEA.L   D0,A0
00000D98 202D8014		 MOVE.L	   STATIC.+38-32768(A5),D0	         FFLX
00000D9C 4A80			 TST.L	   D0
00000D9E 6606			 BNE.S	   X.1.36(PC)
00000DA0 4EB900000000		 JSR	   E.PTR
00000DA6 2240	      X.1.36	 MOVEA.L   D0,A1
00000DA8 48690002		 PEA	   2(A1)			         $2
00000DAC 3F11			 MOVE.W	   (A1),-(A7)
00000DAE 48680004		 PEA	   4(A0)			         $4
00000DB2 3F280002		 MOVE.W	   2(A0),-(A7)			         $2
00000DB6 4EB900000000		 JSR	   C.MVFFP
		      *							       LINE 125
00000DBC 202D8014		 MOVE.L	   STATIC.+38-32768(A5),D0	         FFLX
00000DC0 4A80			 TST.L	   D0
00000DC2 6606			 BNE.S	   X.1.37(PC)
00000DC4 4EB900000000		 JSR	   E.PTR
00000DCA 2040	      X.1.37	 MOVEA.L   D0,A0
00000DCC 487AF786		 PEA	   K.21(PC)			         CODE.+$554
00000DD0 7007			 MOVEQ	   #7,D0			         $7
00000DD2 3F00			 MOVE.W	   D0,-(A7)
00000DD4 48680002		 PEA	   2(A0)			         $2
00000DD8 3F10			 MOVE.W	   (A0),-(A7)
00000DDA 4EB900000000		 JSR	   C.CPFF00000DE0 670C			 BEQ.S	   L.1.33(PC)
		      *							       LINE 125 (2)
00000DE2 2D7C00000010 L.1.32	 MOVE.L	   #16,-76(A6)			         $10  $FFFFFFB4
	 FFB4
00000DEA 6100F226		 BSR.L	   B.3(PC)			         ERROR = CODE.+$12
		      *							       LINE 126
00000DEE 202D8010     L.1.33	 MOVE.L	   STATIC.+34-32768(A5),D0	         VFLX
00000DF2 4A80			 TST.L	   D0
00000DF4 6606			 BNE.S	   X.1.38(PC)
00000DF6 4EB900000000		 JSR	   E.PTR
00000DFC 2040	      X.1.38	 MOVEA.L   D0,A0
00000DFE 202D833A		 MOVE.L	   STATIC.+844-32768(A5),D0	         I
00000E02 222D833E		 MOVE.L	   STATIC.+848-32768(A5),D1	         J
00000E06 D2AD8342		 ADD.L	   STATIC.+852-32768(A5),D1	         K
00000E0A 740C			 MOVEQ	   #12,D2			         $C
00000E0C 9481			 SUB.L	   D1,D2
00000E0E 4482			 NEG.L	   D2
00000E10 7200			 MOVEQ	   #0,D1			         $0
00000E12 32280002		 MOVE.W	   2(A0),D1			         $2
00000E16 4A82			 TST.L	   D2
00000E18 6D0C			 BLT.S	   X.1.39(PC)
00000E1A 4A80			 TST.L	   D0
00000E1C 6F08			 BLE.S	   X.1.39(PC)
00000E1E 9280			 SUB.L	   D0,D1
00000E20 5281			 ADDQ.L	   #1,D1			         $1
00000E22 B282			 CMP.L	   D2,D1
00000E24 6C06			 BGE.S	   X.1.40(PC)
00000E26 4EB900000000 X.1.39	 JSR	   E.SUBSTR
00000E2C 5380	      X.1.40	 SUBQ.L	   #1,D0			         $1
00000E2E 3202			 MOVE.W	   D2,D1
00000E30 D27C0010		 ADD.W	   #16,D1			         $10
00000E34 4841			 SWAP	   D1
00000E36 4241			 CLR.W	   D1
00000E38 4841			 SWAP	   D1
00000E3A 2F01			 MOVE.L	   D1,-(A7)
00000E3C 4EB900000000		 JSR	   M.DYNTMB
00000E42 224F			 MOVEA.L   A7,A1
00000E44 4851			 PEA	   (A1)
00000E46 3F01			 MOVE.W	   D1,-(A7)
00000E48 486D8000		 PEA	   STATIC.+18-32768(A5)		         T
00000E4C 7610			 MOVEQ	   #16,D3			         $10
00000E4E 3F03			 MOVE.W	   D3,-(A7)
00000E50 4EB900000000		 JSR	   C.MVFF
00000E56 48700804		 PEA	   4(A0,D0.L)			         $4
00000E5A 3F02			 MOVE.W	   D2,-(A7)00000E5C 4EB900000000		 JSR	   C.MVFRL
00000E62 202D8014		 MOVE.L	   STATIC.+38-32768(A5),D0	         FFLX
00000E66 4A80			 TST.L	   D0
00000E68 6606			 BNE.S	   X.1.41(PC)
00000E6A 4EB900000000		 JSR	   E.PTR
00000E70 2040	      X.1.41	 MOVEA.L   D0,A0
00000E72 48680002		 PEA	   2(A0)			         $2
00000E76 3F10			 MOVE.W	   (A0),-(A7)
00000E78 4851			 PEA	   (A1)
00000E7A 3F01			 MOVE.W	   D1,-(A7)
00000E7C 4EB900000000		 JSR	   C.MVFFP
		      *							       LINE 127
00000E82 202D8014		 MOVE.L	   STATIC.+38-32768(A5),D0	         FFLX
00000E86 4A80			 TST.L	   D0
00000E88 6606			 BNE.S	   X.1.42(PC)
00000E8A 4EB900000000		 JSR	   E.PTR
00000E90 2040	      X.1.42	 MOVEA.L   D0,A0
00000E92 487AF6C8		 PEA	   K.22(PC)			         CODE.+$55C
00000E96 7007			 MOVEQ	   #7,D0			         $7
00000E98 3F00			 MOVE.W	   D0,-(A7)
00000E9A 48680002		 PEA	   2(A0)			         $2
00000E9E 3F10			 MOVE.W	   (A0),-(A7)
00000EA0 4EB900000000		 JSR	   C.CPFF
00000EA6 6710			 BEQ.S	   L.1.35(PC)
00000EA8 2E6EFBEA     L.1.34	 MOVEA.L   ST.1(A6),A7			         -1046
		      *							       LINE 127 (2)
00000EAC 2D7C00000011		 MOVE.L	   #17,-76(A6)			         $11  $FFFFFFB4
	 FFB4
00000EB4 6100F15C		 BSR.L	   B.3(PC)			         ERROR = CODE.+$12
00000EB8 2E6EFBEA     L.1.35	 MOVEA.L   ST.1(A6),A7			         -1046
		      *							       LINE 129
00000EBC 41ED8346		 LEA	   STATIC.+856-32768(A5),A0	         VS1
00000EC0 20FC00046F6F		 MOVE.L	   #290671,(A0)+		         $46F6F
00000EC6 30FC6F66		 MOVE.W	   #28518,(A0)+			         $6F66
		      *							       LINE 130
00000ECA 487AF698		 PEA	   K.23(PC)			         CODE.+$564
00000ECE 7004			 MOVEQ	   #4,D0			         $4
00000ED0 3F00			 MOVE.W	   D0,-(A7)
00000ED2 486D8348		 PEA	   STATIC.+856-32766(A5)	         VS1
00000ED6 3F2D8346		 MOVE.W	   STATIC.+856-32768(A5),-(A7)	         VS1
00000EDA 4EB900000000		 JSR	   C.CPFF
00000EE0 670C			 BEQ.S	   L.1.37(PC)
		      *							       LINE 130 (2)
00000EE2 2D7C00000012 L.1.36	 MOVE.L	   #18,-76(A6)			         $12  $FFFFFFB4
	 FFB400000EEA 6100F126		 BSR.L	   B.3(PC)			         ERROR = CODE.+$12
		      *							       LINE 131
00000EEE 302D8346     L.1.37	 MOVE.W	   STATIC.+856-32768(A5),D0	         VS1
00000EF2 0C40000C		 CMPI.W	   #12,D0			         $C
00000EF6 6F04			 BLE.S	   X.1.43(PC)
00000EF8 303C000C		 MOVE.W	   #12,D0			         $C
00000EFC 3B408004     X.1.43	 MOVE.W	   D0,STATIC.+4-32768(A5)	         S2
00000F00 486D8006		 PEA	   STATIC.+4-32766(A5)		         S2
00000F04 700C			 MOVEQ	   #12,D0			         $C
00000F06 3F00			 MOVE.W	   D0,-(A7)
00000F08 486D8348		 PEA	   STATIC.+856-32766(A5)	         VS1
00000F0C 3F2D8346		 MOVE.W	   STATIC.+856-32768(A5),-(A7)	         VS1
00000F10 4EB900000000		 JSR	   C.MVFF
		      *							       LINE 132
00000F16 487AF650		 PEA	   K.24(PC)			         CODE.+$568
00000F1A 7004			 MOVEQ	   #4,D0			         $4
00000F1C 3F00			 MOVE.W	   D0,-(A7)
00000F1E 486D8006		 PEA	   STATIC.+4-32766(A5)		         S2
00000F22 3F2D8004		 MOVE.W	   STATIC.+4-32768(A5),-(A7)	         S2
00000F26 4EB900000000		 JSR	   C.CPFF
00000F2C 670C			 BEQ.S	   L.1.39(PC)
		      *							       LINE 132 (2)
00000F2E 2D7C00000013 L.1.38	 MOVE.L	   #19,-76(A6)			         $13  $FFFFFFB4
	 FFB4
00000F36 6100F0DA		 BSR.L	   B.3(PC)			         ERROR = CODE.+$12
		      *							       LINE 133
00000F3A 302D8004     L.1.39	 MOVE.W	   STATIC.+4-32768(A5),D0	         S2
00000F3E D06D8346		 ADD.W	   STATIC.+856-32768(A5),D0	         VS1
00000F42 486EFEF6		 PEA	   -266(A6)			         $FFFFFEF6
00000F46 721B			 MOVEQ	   #27,D1			         $1B
00000F48 3F01			 MOVE.W	   D1,-(A7)
00000F4A 486D8006		 PEA	   STATIC.+4-32766(A5)		         S2
00000F4E 3F2D8004		 MOVE.W	   STATIC.+4-32768(A5),-(A7)	         S2
00000F52 4EB900000000		 JSR	   C.MVFF
00000F58 486D8348		 PEA	   STATIC.+856-32766(A5)	         VS1
00000F5C 3F2D8346		 MOVE.W	   STATIC.+856-32768(A5),-(A7)	         VS1
00000F60 4EB900000000		 JSR	   C.MVFR
00000F66 222D8014		 MOVE.L	   STATIC.+38-32768(A5),D1	         FFLX
00000F6A 4A81			 TST.L	   D1
00000F6C 6606			 BNE.S	   X.1.44(PC)
00000F6E 4EB900000000		 JSR	   E.PTR
00000F74 2041	      X.1.44	 MOVEA.L   D1,A0
00000F76 48680002		 PEA	   2(A0)			         $2
00000F7A 3F10			 MOVE.W	   (A0),-(A7)
00000F7C 486EFEF6		 PEA	   -266(A6)			         $FFFFFEF600000F80 3F00			 MOVE.W	   D0,-(A7)
00000F82 4EB900000000		 JSR	   C.MVFFP
		      *							       LINE 134
00000F88 202D8014		 MOVE.L	   STATIC.+38-32768(A5),D0	         FFLX
00000F8C 4A80			 TST.L	   D0
00000F8E 6606			 BNE.S	   X.1.45(PC)
00000F90 4EB900000000		 JSR	   E.PTR
00000F96 2040	      X.1.45	 MOVEA.L   D0,A0
00000F98 487AF5D2		 PEA	   K.25(PC)			         CODE.+$56C
00000F9C 7007			 MOVEQ	   #7,D0			         $7
00000F9E 3F00			 MOVE.W	   D0,-(A7)
00000FA0 48680002		 PEA	   2(A0)			         $2
00000FA4 3F10			 MOVE.W	   (A0),-(A7)
00000FA6 4EB900000000		 JSR	   C.CPFF
00000FAC 670C			 BEQ.S	   L.1.41(PC)
		      *							       LINE 134 (2)
00000FAE 2D7C00000014 L.1.40	 MOVE.L	   #20,-76(A6)			         $14  $FFFFFFB4
	 FFB4
00000FB6 6100F05A		 BSR.L	   B.3(PC)			         ERROR = CODE.+$12
		      *							       LINE 135
00000FBA 1B6D80098365 L.1.41	 MOVE.B	   STATIC.+18-32759(A5),STATIC.+887-32768(A5)
									         T  CH1
		      *							       LINE 136
00000FC0 7065			 MOVEQ	   #101,D0			         $65
00000FC2 B02D8365		 CMP.B	   STATIC.+887-32768(A5),D0	         CH1
00000FC6 670C			 BEQ.S	   L.1.43(PC)
		      *							       LINE 136 (2)
00000FC8 2D7C00000015 L.1.42	 MOVE.L	   #21,-76(A6)			         $15  $FFFFFFB4
	 FFB4
00000FD0 6100F040		 BSR.L	   B.3(PC)			         ERROR = CODE.+$12
		      *							       LINE 137
00000FD4 486D8000     L.1.43	 PEA	   STATIC.+18-32768(A5)		         T
00000FD8 7010			 MOVEQ	   #16,D0			         $10
00000FDA 3F00			 MOVE.W	   D0,-(A7)
00000FDC 487AF596		 PEA	   K.26(PC)			         CODE.+$574
00000FE0 4267			 CLR.W	   -(A7)
00000FE2 4EB900000000		 JSR	   C.MVFFP
		      *							       LINE 138
00000FE8 487AF58A		 PEA	   K.27(PC)			         CODE.+$574
00000FEC 7010			 MOVEQ	   #16,D0			         $10
00000FEE 3F00			 MOVE.W	   D0,-(A7)
00000FF0 486D8000		 PEA	   STATIC.+18-32768(A5)		         T
00000FF4 7010			 MOVEQ	   #16,D0			         $10
00000FF6 3F00			 MOVE.W	   D0,-(A7)
00000FF8 4EB900000000		 JSR	   C.CPFF00000FFE 670C			 BEQ.S	   L.1.45(PC)
		      *							       LINE 138 (2)
00001000 2D7C00000016 L.1.44	 MOVE.L	   #22,-76(A6)			         $16  $FFFFFFB4
	 FFB4
00001008 6100F008		 BSR.L	   B.3(PC)			         ERROR = CODE.+$12
		      *							       LINE 139
0000100C 426D8346     L.1.45	 CLR.W	   STATIC.+856-32768(A5)	         VS1
		      *							       LINE 140
00001010 487AF572		 PEA	   K.28(PC)			         CODE.+$584
00001014 4267			 CLR.W	   -(A7)
00001016 486D8348		 PEA	   STATIC.+856-32766(A5)	         VS1
0000101A 3F2D8346		 MOVE.W	   STATIC.+856-32768(A5),-(A7)	         VS1
0000101E 4EB900000000		 JSR	   C.CPFF
00001024 670C			 BEQ.S	   L.1.47(PC)
		      *							       LINE 140 (2)
00001026 2D7C00000017 L.1.46	 MOVE.L	   #23,-76(A6)			         $17  $FFFFFFB4
	 FFB4
0000102E 6100EFE2		 BSR.L	   B.3(PC)			         ERROR = CODE.+$12
		      *							       LINE 141
00001032 486D8000     L.1.47	 PEA	   STATIC.+18-32768(A5)		         T
00001036 7010			 MOVEQ	   #16,D0			         $10
00001038 3F00			 MOVE.W	   D0,-(A7)
0000103A 7061			 MOVEQ	   #97,D0			         $61
0000103C 1F00			 MOVE.B	   D0,-(A7)
0000103E 4EB900000000		 JSR	   C.MVCFP
		      *							       LINE 142
00001044 7061			 MOVEQ	   #97,D0			         $61
00001046 1F00			 MOVE.B	   D0,-(A7)
00001048 486D8000		 PEA	   STATIC.+18-32768(A5)		         T
0000104C 7010			 MOVEQ	   #16,D0			         $10
0000104E 3F00			 MOVE.W	   D0,-(A7)
00001050 4EB900000000		 JSR	   C.CPFC
00001056 670C			 BEQ.S	   L.1.49(PC)
		      *							       LINE 142 (2)
00001058 2D7C00000018 L.1.48	 MOVE.L	   #24,-76(A6)			         $18  $FFFFFFB4
	 FFB4
00001060 6100EFB0		 BSR.L	   B.3(PC)			         ERROR = CODE.+$12
		      *							       LINE 143
00001064 2B7C00016120 L.1.49	 MOVE.L	   #90400,STATIC.+856-32768(A5)	         $16120  VS1
	 8346
		      *							       LINE 144
0000106C 7061			 MOVEQ	   #97,D0			         $61
0000106E 1F00			 MOVE.B	   D0,-(A7)
00001070 486D8348		 PEA	   STATIC.+856-32766(A5)	         VS1
00001074 3F2D8346		 MOVE.W	   STATIC.+856-32768(A5),-(A7)	         VS100001078 4EB900000000		 JSR	   C.CPFC
0000107E 670C			 BEQ.S	   L.1.51(PC)
		      *							       LINE 144 (2)
00001080 2D7C00000019 L.1.50	 MOVE.L	   #25,-76(A6)			         $19  $FFFFFFB4
	 FFB4
00001088 6100EF88		 BSR.L	   B.3(PC)			         ERROR = CODE.+$12
		      *							       LINE 145
0000108C 202D8010     L.1.51	 MOVE.L	   STATIC.+34-32768(A5),D0	         VFLX
00001090 4A80			 TST.L	   D0
00001092 6606			 BNE.S	   X.1.46(PC)
00001094 4EB900000000		 JSR	   E.PTR
0000109A 2040	      X.1.46	 MOVEA.L   D0,A0
0000109C 303C0008		 MOVE.W	   #8,D0			         $8
000010A0 B050			 CMP.W	   (A0),D0
000010A2 6F02			 BLE.S	   X.1.47(PC)
000010A4 3010			 MOVE.W	   (A0),D0
000010A6 31400002     X.1.47	 MOVE.W	   D0,2(A0)			         $2
000010AA 48680004		 PEA	   4(A0)			         $4
000010AE 3F10			 MOVE.W	   (A0),-(A7)
000010B0 487AF4D2		 PEA	   K.29(PC)			         CODE.+$584
000010B4 7008			 MOVEQ	   #8,D0			         $8
000010B6 3F00			 MOVE.W	   D0,-(A7)
000010B8 4EB900000000		 JSR	   C.MVFF
		      *							       LINE 146
000010BE 202D8010		 MOVE.L	   STATIC.+34-32768(A5),D0	         VFLX
000010C2 4A80			 TST.L	   D0
000010C4 6606			 BNE.S	   X.1.48(PC)
000010C6 4EB900000000		 JSR	   E.PTR
000010CC 2040	      X.1.48	 MOVEA.L   D0,A0
000010CE 487AF4BC		 PEA	   K.30(PC)			         CODE.+$58C
000010D2 7008			 MOVEQ	   #8,D0			         $8
000010D4 3F00			 MOVE.W	   D0,-(A7)
000010D6 48680004		 PEA	   4(A0)			         $4
000010DA 3F280002		 MOVE.W	   2(A0),-(A7)			         $2
000010DE 4EB900000000		 JSR	   C.CPFF
000010E4 670C			 BEQ.S	   L.1.53(PC)
		      *							       LINE 146 (2)
000010E6 2D7C0000001A L.1.52	 MOVE.L	   #26,-76(A6)			         $1A  $FFFFFFB4
	 FFB4
000010EE 6100EF22		 BSR.L	   B.3(PC)			         ERROR = CODE.+$12
		      *							       LINE 147
000010F2 202D8010     L.1.53	 MOVE.L	   STATIC.+34-32768(A5),D0	         VFLX
000010F6 4A80			 TST.L	   D0
000010F8 6606			 BNE.S	   X.1.49(PC)
000010FA 4EB900000000		 JSR	   E.PTR00001100 2040	      X.1.49	 MOVEA.L   D0,A0
00001102 7000			 MOVEQ	   #0,D0			         $0
00001104 30280002		 MOVE.W	   2(A0),D0			         $2
00001108 5580			 SUBQ.L	   #2,D0			         $2
0000110A 0C8000000001		 CMPI.L	   #1,D0			         $1
00001110 6C06			 BGE.S	   X.1.51(PC)
00001112 4EB900000000 X.1.50	 JSR	   E.SUBSTR
00001118 3B7C00018346 X.1.51	 MOVE.W	   #1,STATIC.+856-32768(A5)	         $1  VS1
0000111E 486D8348		 PEA	   STATIC.+856-32766(A5)	         VS1
00001122 700F			 MOVEQ	   #15,D0			         $F
00001124 3F00			 MOVE.W	   D0,-(A7)
00001126 48680006		 PEA	   6(A0)			         $6
0000112A 7001			 MOVEQ	   #1,D0			         $1
0000112C 3F00			 MOVE.W	   D0,-(A7)
0000112E 4EB900000000		 JSR	   C.MVFF
		      *							       LINE 148
00001134 7033			 MOVEQ	   #51,D0			         $33
00001136 1F00			 MOVE.B	   D0,-(A7)
00001138 486D8348		 PEA	   STATIC.+856-32766(A5)	         VS1
0000113C 3F2D8346		 MOVE.W	   STATIC.+856-32768(A5),-(A7)	         VS1
00001140 4EB900000000		 JSR	   C.CPFC
00001146 670C			 BEQ.S	   L.1.55(PC)
		      *							       LINE 148 (2)
00001148 2D7C0000001B L.1.54	 MOVE.L	   #27,-76(A6)			         $1B  $FFFFFFB4
	 FFB4
00001150 6100EEC0		 BSR.L	   B.3(PC)			         ERROR = CODE.+$12
		      *							       LINE 149
00001154 486EFF02     L.1.55	 PEA	   -254(A6)			         $FFFFFF02
00001158 7010			 MOVEQ	   #16,D0			         $10
0000115A 3F00			 MOVE.W	   D0,-(A7)
0000115C 486D8000		 PEA	   STATIC.+18-32768(A5)		         T
00001160 7010			 MOVEQ	   #16,D0			         $10
00001162 3F00			 MOVE.W	   D0,-(A7)
00001164 4EB900000000		 JSR	   C.MVFFU
0000116A 1B6EFF028365		 MOVE.B	   -254(A6),STATIC.+887-32768(A5)        $FFFFFF02  CH1
		      *							       LINE 150
00001170 7041			 MOVEQ	   #65,D0			         $41
00001172 B02D8365		 CMP.B	   STATIC.+887-32768(A5),D0	         CH1
00001176 670C			 BEQ.S	   L.1.57(PC)
		      *							       LINE 150 (2)
00001178 2D7C0000001C L.1.56	 MOVE.L	   #28,-76(A6)			         $1C  $FFFFFFB4
	 FFB4
00001180 6100EE90		 BSR.L	   B.3(PC)			         ERROR = CODE.+$12
		      *							       LINE 151
00001184 202D8010     L.1.57	 MOVE.L	   STATIC.+34-32768(A5),D0	         VFLX00001188 4A80			 TST.L	   D0
0000118A 6606			 BNE.S	   X.1.52(PC)
0000118C 4EB900000000		 JSR	   E.PTR
00001192 2040	      X.1.52	 MOVEA.L   D0,A0
00001194 7000			 MOVEQ	   #0,D0			         $0
00001196 30280002		 MOVE.W	   2(A0),D0			         $2
0000119A 5280			 ADDQ.L	   #1,D0			         $1
0000119C 5980			 SUBQ.L	   #4,D0			         $4
0000119E 7200			 MOVEQ	   #0,D1			         $0
000011A0 32280002		 MOVE.W	   2(A0),D1			         $2
000011A4 4A80			 TST.L	   D0
000011A6 6D06			 BLT.S	   X.1.53(PC)
000011A8 5781			 SUBQ.L	   #3,D1			         $3
000011AA B280			 CMP.L	   D0,D1
000011AC 6C06			 BGE.S	   X.1.54(PC)
000011AE 4EB900000000 X.1.53	 JSR	   E.SUBSTR
000011B4 3200	      X.1.54	 MOVE.W	   D0,D1
000011B6 0C41000F		 CMPI.W	   #15,D1			         $F
000011BA 6F04			 BLE.S	   X.1.55(PC)
000011BC 323C000F		 MOVE.W	   #15,D1			         $F
000011C0 3B418346     X.1.55	 MOVE.W	   D1,STATIC.+856-32768(A5)	         VS1
000011C4 486D8348		 PEA	   STATIC.+856-32766(A5)	         VS1
000011C8 720F			 MOVEQ	   #15,D1			         $F
000011CA 3F01			 MOVE.W	   D1,-(A7)
000011CC 48680007		 PEA	   7(A0)			         $7
000011D0 3F00			 MOVE.W	   D0,-(A7)
000011D2 4EB900000000		 JSR	   C.MVFF
		      *							       LINE 152
000011D8 487AF3BA		 PEA	   K.31(PC)			         CODE.+$594
000011DC 7005			 MOVEQ	   #5,D0			         $5
000011DE 3F00			 MOVE.W	   D0,-(A7)
000011E0 486D8348		 PEA	   STATIC.+856-32766(A5)	         VS1
000011E4 3F2D8346		 MOVE.W	   STATIC.+856-32768(A5),-(A7)	         VS1
000011E8 4EB900000000		 JSR	   C.CPFF
000011EE 670C			 BEQ.S	   L.1.59(PC)
		      *							       LINE 152 (2)
000011F0 2D7C0000001D L.1.58	 MOVE.L	   #29,-76(A6)			         $1D  $FFFFFFB4
	 FFB4
000011F8 6100EE18		 BSR.L	   B.3(PC)			         ERROR = CODE.+$12
		      *							       LINE 153
000011FC 3B7C000F8346 L.1.59	 MOVE.W	   #15,STATIC.+856-32768(A5)	         $F  VS1
00001202 486D8348		 PEA	   STATIC.+856-32766(A5)	         VS1
00001206 700F			 MOVEQ	   #15,D0			         $F
00001208 3F00			 MOVE.W	   D0,-(A7)
0000120A 487AF38E		 PEA	   K.32(PC)			         CODE.+$59A0000120E 701A			 MOVEQ	   #26,D0			         $1A
00001210 3F00			 MOVE.W	   D0,-(A7)
00001212 4EB900000000		 JSR	   C.MVFF
		      *							       LINE 154
00001218 487AF39A		 PEA	   K.33(PC)			         CODE.+$5B4
0000121C 700F			 MOVEQ	   #15,D0			         $F
0000121E 3F00			 MOVE.W	   D0,-(A7)
00001220 486D8348		 PEA	   STATIC.+856-32766(A5)	         VS1
00001224 3F2D8346		 MOVE.W	   STATIC.+856-32768(A5),-(A7)	         VS1
00001228 4EB900000000		 JSR	   C.CPFF
0000122E 670C			 BEQ.S	   L.1.61(PC)
		      *							       LINE 154 (2)
00001230 2D7C0000001E L.1.60	 MOVE.L	   #30,-76(A6)			         $1E  $FFFFFFB4
	 FFB4
00001238 6100EDD8		 BSR.L	   B.3(PC)			         ERROR = CODE.+$12
		      *							       LINE 155
0000123C 302D8004     L.1.61	 MOVE.W	   STATIC.+4-32768(A5),D0	         S2
00001240 5840			 ADDQ.W	   #4,D0			         $4
00001242 486EFF02		 PEA	   -254(A6)			         $FFFFFF02
00001246 7210			 MOVEQ	   #16,D1			         $10
00001248 3F01			 MOVE.W	   D1,-(A7)
0000124A 487AF378		 PEA	   K.34(PC)			         CODE.+$5C4
0000124E 7203			 MOVEQ	   #3,D1			         $3
00001250 3F01			 MOVE.W	   D1,-(A7)
00001252 4EB900000000		 JSR	   C.MVFFL
00001258 7226			 MOVEQ	   #38,D1			         $26
0000125A 1F01			 MOVE.B	   D1,-(A7)
0000125C 4EB900000000		 JSR	   C.MVCRL
00001262 486D8006		 PEA	   STATIC.+4-32766(A5)		         S2
00001266 3F2D8004		 MOVE.W	   STATIC.+4-32768(A5),-(A7)	         S2
0000126A 4EB900000000		 JSR	   C.MVFRL
00001270 486D8000		 PEA	   STATIC.+18-32768(A5)		         T
00001274 7210			 MOVEQ	   #16,D1			         $10
00001276 3F01			 MOVE.W	   D1,-(A7)
00001278 486EFF02		 PEA	   -254(A6)			         $FFFFFF02
0000127C 3F00			 MOVE.W	   D0,-(A7)
0000127E 4EB900000000		 JSR	   C.MVFFP
		      *							       LINE 156
00001284 487AF342		 PEA	   K.35(PC)			         CODE.+$5C8
00001288 7008			 MOVEQ	   #8,D0			         $8
0000128A 3F00			 MOVE.W	   D0,-(A7)
0000128C 486D8000		 PEA	   STATIC.+18-32768(A5)		         T
00001290 7010			 MOVEQ	   #16,D0			         $10
00001292 3F00			 MOVE.W	   D0,-(A7)
00001294 4EB900000000		 JSR	   C.CPFF0000129A 670C			 BEQ.S	   L.1.63(PC)
		      *							       LINE 156 (2)
0000129C 2D7C0000001F L.1.62	 MOVE.L	   #31,-76(A6)			         $1F  $FFFFFFB4
	 FFB4
000012A4 6100ED6C		 BSR.L	   B.3(PC)			         ERROR = CODE.+$12
		      *							       LINE 157
000012A8 202D833E     L.1.63	 MOVE.L	   STATIC.+848-32768(A5),D0	         J
000012AC 7211			 MOVEQ	   #17,D1			         $11
000012AE 9280			 SUB.L	   D0,D1
000012B0 4A81			 TST.L	   D1
000012B2 6D0C			 BLT.S	   X.1.56(PC)
000012B4 4A80			 TST.L	   D0
000012B6 6F08			 BLE.S	   X.1.56(PC)
000012B8 7411			 MOVEQ	   #17,D2			         $11
000012BA 9480			 SUB.L	   D0,D2
000012BC B481			 CMP.L	   D1,D2
000012BE 6C06			 BGE.S	   X.1.57(PC)
000012C0 4EB900000000 X.1.56	 JSR	   E.SUBSTR
000012C6 5380	      X.1.57	 SUBQ.L	   #1,D0			         $1
000012C8 41ED8000		 LEA	   STATIC.+18-32768(A5),A0	         T
000012CC 3401			 MOVE.W	   D1,D2
000012CE 0C42000F		 CMPI.W	   #15,D2			         $F
000012D2 6F04			 BLE.S	   X.1.58(PC)
000012D4 343C000F		 MOVE.W	   #15,D2			         $F
000012D8 3B428346     X.1.58	 MOVE.W	   D2,STATIC.+856-32768(A5)	         VS1
000012DC 486D8348		 PEA	   STATIC.+856-32766(A5)	         VS1
000012E0 740F			 MOVEQ	   #15,D2			         $F
000012E2 3F02			 MOVE.W	   D2,-(A7)
000012E4 48700800		 PEA	   0(A0,D0.L)			         $0
000012E8 3F01			 MOVE.W	   D1,-(A7)
000012EA 4EB900000000		 JSR	   C.MVFFU
		      *							       LINE 158
000012F0 487AF2DE		 PEA	   K.36(PC)			         CODE.+$5D0
000012F4 7005			 MOVEQ	   #5,D0			         $5
000012F6 3F00			 MOVE.W	   D0,-(A7)
000012F8 486D8348		 PEA	   STATIC.+856-32766(A5)	         VS1
000012FC 3F2D8346		 MOVE.W	   STATIC.+856-32768(A5),-(A7)	         VS1
00001300 4EB900000000		 JSR	   C.CPFF
00001306 670C			 BEQ.S	   L.1.65(PC)
		      *							       LINE 158 (2)
00001308 2D7C00000020 L.1.64	 MOVE.L	   #32,-76(A6)			         $20  $FFFFFFB4
	 FFB4
00001310 6100ED00		 BSR.L	   B.3(PC)			         ERROR = CODE.+$12
		      *							       LINE 159
00001314 202D8010     L.1.65	 MOVE.L	   STATIC.+34-32768(A5),D0	         VFLX00001318 4A80			 TST.L	   D0
0000131A 6606			 BNE.S	   X.1.59(PC)
0000131C 4EB900000000		 JSR	   E.PTR
00001322 2040	      X.1.59	 MOVEA.L   D0,A0
00001324 7000			 MOVEQ	   #0,D0			         $0
00001326 30280002		 MOVE.W	   2(A0),D0			         $2
0000132A 90BC00000000		 SUB.L	   #0,D0			         $0
00001330 0C8000000003		 CMPI.L	   #3,D0			         $3
00001336 6C06			 BGE.S	   X.1.61(PC)
00001338 4EB900000000 X.1.60	 JSR	   E.SUBSTR
0000133E 486EFF0A     X.1.61	 PEA	   -246(A6)			         $FFFFFF0A
00001342 7007			 MOVEQ	   #7,D0			         $7
00001344 3F00			 MOVE.W	   D0,-(A7)
00001346 486D8000		 PEA	   STATIC.+18-32768(A5)		         T
0000134A 7003			 MOVEQ	   #3,D0			         $3
0000134C 3F00			 MOVE.W	   D0,-(A7)
0000134E 4EB900000000		 JSR	   C.MVFF
00001354 702E			 MOVEQ	   #46,D0			         $2E
00001356 1F00			 MOVE.B	   D0,-(A7)
00001358 4EB900000000		 JSR	   C.MVCR
0000135E 48680004		 PEA	   4(A0)			         $4
00001362 7003			 MOVEQ	   #3,D0			         $3
00001364 3F00			 MOVE.W	   D0,-(A7)
00001366 4EB900000000		 JSR	   C.MVFR
0000136C 3B7C00078346		 MOVE.W	   #7,STATIC.+856-32768(A5)	         $7  VS1
00001372 486D8348		 PEA	   STATIC.+856-32766(A5)	         VS1
00001376 700F			 MOVEQ	   #15,D0			         $F
00001378 3F00			 MOVE.W	   D0,-(A7)
0000137A 486EFF0A		 PEA	   -246(A6)			         $FFFFFF0A
0000137E 7007			 MOVEQ	   #7,D0			         $7
00001380 3F00			 MOVE.W	   D0,-(A7)
00001382 4EB900000000		 JSR	   C.MVFF
		      *							       LINE 160
00001388 487AF24C		 PEA	   K.37(PC)			         CODE.+$5D6
0000138C 7007			 MOVEQ	   #7,D0			         $7
0000138E 3F00			 MOVE.W	   D0,-(A7)
00001390 486D8348		 PEA	   STATIC.+856-32766(A5)	         VS1
00001394 3F2D8346		 MOVE.W	   STATIC.+856-32768(A5),-(A7)	         VS1
00001398 4EB900000000		 JSR	   C.CPFF
0000139E 670C			 BEQ.S	   L.1.67(PC)
		      *							       LINE 160 (2)
000013A0 2D7C00000021 L.1.66	 MOVE.L	   #33,-76(A6)			         $21  $FFFFFFB4
	 FFB4
000013A8 6100EC68		 BSR.L	   B.3(PC)			         ERROR = CODE.+$12
		      *							       LINE 161000013AC 2B7C6D6F7265 L.1.67	 MOVE.L	   #1836020325,STATIC.+0-32768(A5)       $6D6F7265  S1
	 8000
		      *							       LINE 162
000013B4 487AF228		 PEA	   K.38(PC)			         CODE.+$5DE
000013B8 7004			 MOVEQ	   #4,D0			         $4
000013BA 3F00			 MOVE.W	   D0,-(A7)
000013BC 486D8000		 PEA	   STATIC.+0-32768(A5)		         S1
000013C0 7004			 MOVEQ	   #4,D0			         $4
000013C2 3F00			 MOVE.W	   D0,-(A7)
000013C4 4EB900000000		 JSR	   C.CPFF
000013CA 670C			 BEQ.S	   L.1.69(PC)
		      *							       LINE 162 (2)
000013CC 2D7C00000022 L.1.68	 MOVE.L	   #34,-76(A6)			         $22  $FFFFFFB4
	 FFB4
000013D4 6100EC3C		 BSR.L	   B.3(PC)			         ERROR = CODE.+$12
		      *							       LINE 163
000013D8 7003	      L.1.69	 MOVEQ	   #3,D0			         $3
000013DA B06D8346		 CMP.W	   STATIC.+856-32768(A5),D0	         VS1
000013DE 6306			 BLS.S	   X.1.62(PC)
000013E0 4EB900000000		 JSR	   E.INDEX
000013E6 3D6D8346FF00 X.1.62	 MOVE.W	   STATIC.+856-32768(A5),-256(A6)        VS1  $FFFFFF00
000013EC 486EFF02		 PEA	   -254(A6)			         $FFFFFF02
000013F0 3F2EFF00		 MOVE.W	   -256(A6),-(A7)		         $FFFFFF00
000013F4 486D8348		 PEA	   STATIC.+856-32766(A5)	         VS1
000013F8 3F2D8346		 MOVE.W	   STATIC.+856-32768(A5),-(A7)	         VS1
000013FC 4EB900000000		 JSR	   C.MVFFU
00001402 1B6EFF048365		 MOVE.B	   -252(A6),STATIC.+887-32768(A5)        $FFFFFF04  CH1
		      *							       LINE 164
00001408 7043			 MOVEQ	   #67,D0			         $43
0000140A B02D8365		 CMP.B	   STATIC.+887-32768(A5),D0	         CH1
0000140E 670C			 BEQ.S	   L.1.71(PC)
		      *							       LINE 164 (2)
00001410 2D7C00000023 L.1.70	 MOVE.L	   #35,-76(A6)			         $23  $FFFFFFB4
	 FFB4
00001418 6100EBF8		 BSR.L	   B.3(PC)			         ERROR = CODE.+$12
		      *							       LINE 165
0000141C 202D833E     L.1.71	 MOVE.L	   STATIC.+848-32768(A5),D0	         J
00001420 4A80			 TST.L	   D0
00001422 6F0C			 BLE.S	   X.1.63(PC)
00001424 7211			 MOVEQ	   #17,D1			         $11
00001426 9280			 SUB.L	   D0,D1
00001428 0C8100000003		 CMPI.L	   #3,D1			         $3
0000142E 6C06			 BGE.S	   X.1.64(PC)
00001430 4EB900000000 X.1.63	 JSR	   E.SUBSTR
00001436 5380	      X.1.64	 SUBQ.L	   #1,D0			         $100001438 41ED8000		 LEA	   STATIC.+18-32768(A5),A0	         T
0000143C 486D8000		 PEA	   STATIC.+0-32768(A5)		         S1
00001440 7204			 MOVEQ	   #4,D1			         $4
00001442 3F01			 MOVE.W	   D1,-(A7)
00001444 48700800		 PEA	   0(A0,D0.L)			         $0
00001448 7203			 MOVEQ	   #3,D1			         $3
0000144A 3F01			 MOVE.W	   D1,-(A7)
0000144C 4EB900000000		 JSR	   C.MVFFP
		      *							       LINE 166
00001452 487AF18E		 PEA	   K.39(PC)			         CODE.+$5E2
00001456 7004			 MOVEQ	   #4,D0			         $4
00001458 3F00			 MOVE.W	   D0,-(A7)
0000145A 486D8000		 PEA	   STATIC.+0-32768(A5)		         S1
0000145E 7004			 MOVEQ	   #4,D0			         $4
00001460 3F00			 MOVE.W	   D0,-(A7)
00001462 4EB900000000		 JSR	   C.CPFF
00001468 670C			 BEQ.S	   L.1.73(PC)
		      *							       LINE 166 (2)
0000146A 2D7C00000024 L.1.72	 MOVE.L	   #36,-76(A6)			         $24  $FFFFFFB4
	 FFB4
00001472 6100EB9E		 BSR.L	   B.3(PC)			         ERROR = CODE.+$12
		      *							       LINE 167
00001476 3B7C000C8004 L.1.73	 MOVE.W	   #12,STATIC.+4-32768(A5)	         $C  S2
0000147C 486D8006		 PEA	   STATIC.+4-32766(A5)		         S2
00001480 700C			 MOVEQ	   #12,D0			         $C
00001482 3F00			 MOVE.W	   D0,-(A7)
00001484 487AF160		 PEA	   K.40(PC)			         CODE.+$5E6
00001488 700C			 MOVEQ	   #12,D0			         $C
0000148A 3F00			 MOVE.W	   D0,-(A7)
0000148C 4EB900000000		 JSR	   C.MVFF
		      *							       LINE 168
00001492 487AF15E		 PEA	   K.41(PC)			         CODE.+$5F2
00001496 700C			 MOVEQ	   #12,D0			         $C
00001498 3F00			 MOVE.W	   D0,-(A7)
0000149A 486D8006		 PEA	   STATIC.+4-32766(A5)		         S2
0000149E 3F2D8004		 MOVE.W	   STATIC.+4-32768(A5),-(A7)	         S2
000014A2 4EB900000000		 JSR	   C.CPFF
000014A8 670C			 BEQ.S	   L.1.75(PC)
		      *							       LINE 168 (2)
000014AA 2D7C00000025 L.1.74	 MOVE.L	   #37,-76(A6)			         $25  $FFFFFFB4
	 FFB4
000014B2 6100EB5E		 BSR.L	   B.3(PC)			         ERROR = CODE.+$12
		      *							       LINE 169
000014B6 486D8003     L.1.75	 PEA	   STATIC.+18-32765(A5)		         T
000014BA 700D			 MOVEQ	   #13,D0			         $D000014BC 3F00			 MOVE.W	   D0,-(A7)
000014BE 487AF13E		 PEA	   K.42(PC)			         CODE.+$5FE
000014C2 7003			 MOVEQ	   #3,D0			         $3
000014C4 3F00			 MOVE.W	   D0,-(A7)
000014C6 4EB900000000		 JSR	   C.MVFFP
		      *							       LINE 170
000014CC 487AF134		 PEA	   K.43(PC)			         CODE.+$602
000014D0 7006			 MOVEQ	   #6,D0			         $6
000014D2 3F00			 MOVE.W	   D0,-(A7)
000014D4 486D8000		 PEA	   STATIC.+18-32768(A5)		         T
000014D8 7010			 MOVEQ	   #16,D0			         $10
000014DA 3F00			 MOVE.W	   D0,-(A7)
000014DC 4EB900000000		 JSR	   C.CPFF
000014E2 670C			 BEQ.S	   L.1.77(PC)
		      *							       LINE 170 (2)
000014E4 2D7C00000026 L.1.76	 MOVE.L	   #38,-76(A6)			         $26  $FFFFFFB4
	 FFB4
000014EC 6100EB24		 BSR.L	   B.3(PC)			         ERROR = CODE.+$12
		      *							       LINE 171
000014F0 202D833A     L.1.77	 MOVE.L	   STATIC.+844-32768(A5),D0	         I
000014F4 7200			 MOVEQ	   #0,D1			         $0
000014F6 322D8004		 MOVE.W	   STATIC.+4-32768(A5),D1	         S2
000014FA 4A80			 TST.L	   D0
000014FC 6F0C			 BLE.S	   X.1.65(PC)
000014FE 9280			 SUB.L	   D0,D1
00001500 5281			 ADDQ.L	   #1,D1			         $1
00001502 0C8100000005		 CMPI.L	   #5,D1			         $5
00001508 6C06			 BGE.S	   X.1.66(PC)
0000150A 4EB900000000 X.1.65	 JSR	   E.SUBSTR
00001510 5380	      X.1.66	 SUBQ.L	   #1,D0			         $1
00001512 41ED8006		 LEA	   STATIC.+4-32766(A5),A0	         S2
00001516 48700800		 PEA	   0(A0,D0.L)			         $0
0000151A 7205			 MOVEQ	   #5,D1			         $5
0000151C 3F01			 MOVE.W	   D1,-(A7)
0000151E 487AF0E8		 PEA	   K.44(PC)			         CODE.+$608
00001522 7207			 MOVEQ	   #7,D1			         $7
00001524 3F01			 MOVE.W	   D1,-(A7)
00001526 4EB900000000		 JSR	   C.MVFFP
		      *							       LINE 172
0000152C 487AF0E2		 PEA	   K.45(PC)			         CODE.+$610
00001530 700C			 MOVEQ	   #12,D0			         $C
00001532 3F00			 MOVE.W	   D0,-(A7)
00001534 486D8006		 PEA	   STATIC.+4-32766(A5)		         S2
00001538 3F2D8004		 MOVE.W	   STATIC.+4-32768(A5),-(A7)	         S2
0000153C 4EB900000000		 JSR	   C.CPFF00001542 670C			 BEQ.S	   L.1.79(PC)
		      *							       LINE 172 (2)
00001544 2D7C00000027 L.1.78	 MOVE.L	   #39,-76(A6)			         $27  $FFFFFFB4
	 FFB4
0000154C 6100EAC4		 BSR.L	   B.3(PC)			         ERROR = CODE.+$12
		      *							       LINE 173
00001550 202D8014     L.1.79	 MOVE.L	   STATIC.+38-32768(A5),D0	         FFLX
00001554 4A80			 TST.L	   D0
00001556 6606			 BNE.S	   X.1.67(PC)
00001558 4EB900000000		 JSR	   E.PTR
0000155E 2040	      X.1.67	 MOVEA.L   D0,A0
00001560 7000			 MOVEQ	   #0,D0			         $0
00001562 3010			 MOVE.W	   (A0),D0
00001564 5280			 ADDQ.L	   #1,D0			         $1
00001566 5780			 SUBQ.L	   #3,D0			         $3
00001568 7200			 MOVEQ	   #0,D1			         $0
0000156A 3210			 MOVE.W	   (A0),D1
0000156C 4A80			 TST.L	   D0
0000156E 6D06			 BLT.S	   X.1.68(PC)
00001570 5581			 SUBQ.L	   #2,D1			         $2
00001572 B280			 CMP.L	   D0,D1
00001574 6C06			 BGE.S	   X.1.69(PC)
00001576 4EB900000000 X.1.68	 JSR	   E.SUBSTR
0000157C 48680004     X.1.69	 PEA	   4(A0)			         $4
00001580 3F00			 MOVE.W	   D0,-(A7)
00001582 487AF098		 PEA	   K.46(PC)			         CODE.+$61C
00001586 7204			 MOVEQ	   #4,D1			         $4
00001588 3F01			 MOVE.W	   D1,-(A7)
0000158A 4EB900000000		 JSR	   C.MVFFP
		      *							       LINE 174
00001590 202D8014		 MOVE.L	   STATIC.+38-32768(A5),D0	         FFLX
00001594 4A80			 TST.L	   D0
00001596 6606			 BNE.S	   X.1.70(PC)
00001598 4EB900000000		 JSR	   E.PTR
0000159E 2040	      X.1.70	 MOVEA.L   D0,A0
000015A0 487AF07E		 PEA	   K.47(PC)			         CODE.+$620
000015A4 7007			 MOVEQ	   #7,D0			         $7
000015A6 3F00			 MOVE.W	   D0,-(A7)
000015A8 48680002		 PEA	   2(A0)			         $2
000015AC 3F10			 MOVE.W	   (A0),-(A7)
000015AE 4EB900000000		 JSR	   C.CPFF
000015B4 670C			 BEQ.S	   L.1.81(PC)
		      *							       LINE 174 (2)
000015B6 2D7C00000028 L.1.80	 MOVE.L	   #40,-76(A6)			         $28  $FFFFFFB4
	 FFB4000015BE 6100EA52		 BSR.L	   B.3(PC)			         ERROR = CODE.+$12
		      *							       LINE 175
000015C2 202D8014     L.1.81	 MOVE.L	   STATIC.+38-32768(A5),D0	         FFLX
000015C6 4A80			 TST.L	   D0
000015C8 6606			 BNE.S	   X.1.71(PC)
000015CA 4EB900000000		 JSR	   E.PTR
000015D0 2040	      X.1.71	 MOVEA.L   D0,A0
000015D2 202D833E		 MOVE.L	   STATIC.+848-32768(A5),D0	         J
000015D6 7200			 MOVEQ	   #0,D1			         $0
000015D8 3210			 MOVE.W	   (A0),D1
000015DA 4A80			 TST.L	   D0
000015DC 6F0C			 BLE.S	   X.1.72(PC)
000015DE 9280			 SUB.L	   D0,D1
000015E0 5281			 ADDQ.L	   #1,D1			         $1
000015E2 0C8100000003		 CMPI.L	   #3,D1			         $3
000015E8 6C06			 BGE.S	   X.1.73(PC)
000015EA 4EB900000000 X.1.72	 JSR	   E.SUBSTR
000015F0 5380	      X.1.73	 SUBQ.L	   #1,D0			         $1
000015F2 48700802		 PEA	   2(A0,D0.L)			         $2
000015F6 7203			 MOVEQ	   #3,D1			         $3
000015F8 3F01			 MOVE.W	   D1,-(A7)
000015FA 487AF02C		 PEA	   K.48(PC)			         CODE.+$628
000015FE 4267			 CLR.W	   -(A7)
00001600 4EB900000000		 JSR	   C.MVFFP
		      *							       LINE 176
00001606 202D8014		 MOVE.L	   STATIC.+38-32768(A5),D0	         FFLX
0000160A 4A80			 TST.L	   D0
0000160C 6606			 BNE.S	   X.1.74(PC)
0000160E 4EB900000000		 JSR	   E.PTR
00001614 2040	      X.1.74	 MOVEA.L   D0,A0
00001616 487AF010		 PEA	   K.49(PC)			         CODE.+$628
0000161A 7005			 MOVEQ	   #5,D0			         $5
0000161C 3F00			 MOVE.W	   D0,-(A7)
0000161E 48680002		 PEA	   2(A0)			         $2
00001622 3F10			 MOVE.W	   (A0),-(A7)
00001624 4EB900000000		 JSR	   C.CPFF
0000162A 670C			 BEQ.S	   L.1.83(PC)
		      *							       LINE 176 (2)
0000162C 2D7C00000029 L.1.82	 MOVE.L	   #41,-76(A6)			         $29  $FFFFFFB4
	 FFB4
00001634 6100E9DC		 BSR.L	   B.3(PC)			         ERROR = CODE.+$12
		      *							       LINE 177
00001638 202D8010     L.1.83	 MOVE.L	   STATIC.+34-32768(A5),D0	         VFLX
0000163C 4A80			 TST.L	   D0
0000163E 6606			 BNE.S	   X.1.75(PC)00001640 4EB900000000		 JSR	   E.PTR
00001646 2040	      X.1.75	 MOVEA.L   D0,A0
00001648 7000			 MOVEQ	   #0,D0			         $0
0000164A 30280002		 MOVE.W	   2(A0),D0			         $2
0000164E 5980			 SUBQ.L	   #4,D0			         $4
00001650 0C8000000004		 CMPI.L	   #4,D0			         $4
00001656 6C06			 BGE.S	   X.1.77(PC)
00001658 4EB900000000 X.1.76	 JSR	   E.SUBSTR
0000165E 48680008     X.1.77	 PEA	   8(A0)			         $8
00001662 7004			 MOVEQ	   #4,D0			         $4
00001664 3F00			 MOVE.W	   D0,-(A7)
00001666 487AEFC6		 PEA	   K.50(PC)			         CODE.+$62E
0000166A 7005			 MOVEQ	   #5,D0			         $5
0000166C 3F00			 MOVE.W	   D0,-(A7)
0000166E 4EB900000000		 JSR	   C.MVFFP
		      *							       LINE 178
00001674 202D8010		 MOVE.L	   STATIC.+34-32768(A5),D0	         VFLX
00001678 4A80			 TST.L	   D0
0000167A 6606			 BNE.S	   X.1.78(PC)
0000167C 4EB900000000		 JSR	   E.PTR
00001682 2040	      X.1.78	 MOVEA.L   D0,A0
00001684 487AEFAE		 PEA	   K.51(PC)			         CODE.+$634
00001688 7008			 MOVEQ	   #8,D0			         $8
0000168A 3F00			 MOVE.W	   D0,-(A7)
0000168C 48680004		 PEA	   4(A0)			         $4
00001690 3F280002		 MOVE.W	   2(A0),-(A7)			         $2
00001694 4EB900000000		 JSR	   C.CPFF
0000169A 670C			 BEQ.S	   L.1.85(PC)
		      *							       LINE 178 (2)
0000169C 2D7C0000002A L.1.84	 MOVE.L	   #42,-76(A6)			         $2A  $FFFFFFB4
	 FFB4
000016A4 6100E96C		 BSR.L	   B.3(PC)			         ERROR = CODE.+$12
		      *							       LINE 179
000016A8 202D8010     L.1.85	 MOVE.L	   STATIC.+34-32768(A5),D0	         VFLX
000016AC 4A80			 TST.L	   D0
000016AE 6606			 BNE.S	   X.1.79(PC)
000016B0 4EB900000000		 JSR	   E.PTR
000016B6 2040	      X.1.79	 MOVEA.L   D0,A0
000016B8 202D833A		 MOVE.L	   STATIC.+844-32768(A5),D0	         I
000016BC 7200			 MOVEQ	   #0,D1			         $0
000016BE 32280002		 MOVE.W	   2(A0),D1			         $2
000016C2 5281			 ADDQ.L	   #1,D1			         $1
000016C4 9280			 SUB.L	   D0,D1
000016C6 7400			 MOVEQ	   #0,D2			         $0
000016C8 34280002		 MOVE.W	   2(A0),D2			         $2000016CC 4A81			 TST.L	   D1
000016CE 6D0C			 BLT.S	   X.1.80(PC)
000016D0 4A80			 TST.L	   D0
000016D2 6F08			 BLE.S	   X.1.80(PC)
000016D4 9480			 SUB.L	   D0,D2
000016D6 5282			 ADDQ.L	   #1,D2			         $1
000016D8 B481			 CMP.L	   D1,D2
000016DA 6C06			 BGE.S	   X.1.81(PC)
000016DC 4EB900000000 X.1.80	 JSR	   E.SUBSTR
000016E2 5380	      X.1.81	 SUBQ.L	   #1,D0			         $1
000016E4 48700804		 PEA	   4(A0,D0.L)			         $4
000016E8 3F01			 MOVE.W	   D1,-(A7)
000016EA 487AEF50		 PEA	   K.52(PC)			         CODE.+$63C
000016EE 7408			 MOVEQ	   #8,D2			         $8
000016F0 3F02			 MOVE.W	   D2,-(A7)
000016F2 4EB900000000		 JSR	   C.MVFFP
		      *							       LINE 180
000016F8 202D8010		 MOVE.L	   STATIC.+34-32768(A5),D0	         VFLX
000016FC 4A80			 TST.L	   D0
000016FE 6606			 BNE.S	   X.1.82(PC)
00001700 4EB900000000		 JSR	   E.PTR
00001706 2040	      X.1.82	 MOVEA.L   D0,A0
00001708 487AEF3A		 PEA	   K.53(PC)			         CODE.+$644
0000170C 7008			 MOVEQ	   #8,D0			         $8
0000170E 3F00			 MOVE.W	   D0,-(A7)
00001710 48680004		 PEA	   4(A0)			         $4
00001714 3F280002		 MOVE.W	   2(A0),-(A7)			         $2
00001718 4EB900000000		 JSR	   C.CPFF
0000171E 670C			 BEQ.S	   L.1.87(PC)
		      *							       LINE 180 (2)
00001720 2D7C0000002B L.1.86	 MOVE.L	   #43,-76(A6)			         $2B  $FFFFFFB4
	 FFB4
00001728 6100E8E8		 BSR.L	   B.3(PC)			         ERROR = CODE.+$12
		      *							       LINE 181
0000172C 202D8010     L.1.87	 MOVE.L	   STATIC.+34-32768(A5),D0	         VFLX
00001730 4A80			 TST.L	   D0
00001732 6606			 BNE.S	   X.1.83(PC)
00001734 4EB900000000		 JSR	   E.PTR
0000173A 2040	      X.1.83	 MOVEA.L   D0,A0
0000173C 30280002		 MOVE.W	   2(A0),D0			         $2
00001740 5240			 ADDQ.W	   #1,D0			         $1
00001742 4840			 SWAP	   D0
00001744 4240			 CLR.W	   D0
00001746 4840			 SWAP	   D0
00001748 2F00			 MOVE.L	   D0,-(A7)0000174A 4EB900000000		 JSR	   M.DYNTMB
00001750 224F			 MOVEA.L   A7,A1
00001752 4851			 PEA	   (A1)
00001754 3F00			 MOVE.W	   D0,-(A7)
00001756 48680004		 PEA	   4(A0)			         $4
0000175A 3F280002		 MOVE.W	   2(A0),-(A7)			         $2
0000175E 4EB900000000		 JSR	   C.MVFF
00001764 7220			 MOVEQ	   #32,D1			         $20
00001766 1F01			 MOVE.B	   D1,-(A7)
00001768 4EB900000000		 JSR	   C.MVCR
0000176E 4840			 SWAP	   D0
00001770 4240			 CLR.W	   D0
00001772 4840			 SWAP	   D0
00001774 2200			 MOVE.L	   D0,D1
00001776 5281			 ADDQ.L	   #1,D1			         $1
00001778 5B81			 SUBQ.L	   #5,D1			         $5
0000177A 4840			 SWAP	   D0
0000177C 4240			 CLR.W	   D0
0000177E 4840			 SWAP	   D0
00001780 4A81			 TST.L	   D1
00001782 6D08			 BLT.S	   X.1.84(PC)
00001784 2400			 MOVE.L	   D0,D2
00001786 5982			 SUBQ.L	   #4,D2			         $4
00001788 B481			 CMP.L	   D1,D2
0000178A 6C06			 BGE.S	   X.1.85(PC)
0000178C 4EB900000000 X.1.84	 JSR	   E.SUBSTR
00001792 486D8000     X.1.85	 PEA	   STATIC.+18-32768(A5)		         T
00001796 7010			 MOVEQ	   #16,D0			         $10
00001798 3F00			 MOVE.W	   D0,-(A7)
0000179A 48690004		 PEA	   4(A1)			         $4
0000179E 3F01			 MOVE.W	   D1,-(A7)
000017A0 4EB900000000		 JSR	   C.MVFFP
		      *							       LINE 182
000017A6 487AEEA4		 PEA	   K.54(PC)			         CODE.+$64C
000017AA 7004			 MOVEQ	   #4,D0			         $4
000017AC 3F00			 MOVE.W	   D0,-(A7)
000017AE 486D8000		 PEA	   STATIC.+18-32768(A5)		         T
000017B2 7010			 MOVEQ	   #16,D0			         $10
000017B4 3F00			 MOVE.W	   D0,-(A7)
000017B6 4EB900000000		 JSR	   C.CPFF
000017BC 6710			 BEQ.S	   L.1.89(PC)
000017BE 2E6EFBEA     L.1.88	 MOVEA.L   ST.1(A6),A7			         -1046
		      *							       LINE 182 (2)
000017C2 2D7C0000002C		 MOVE.L	   #44,-76(A6)			         $2C  $FFFFFFB4
	 FFB4000017CA 6100E846		 BSR.L	   B.3(PC)			         ERROR = CODE.+$12
000017CE 2E6EFBEA     L.1.89	 MOVEA.L   ST.1(A6),A7			         -1046
		      *							       LINE 183
000017D2 7000			 MOVEQ	   #0,D0			         $0
000017D4 302D8346		 MOVE.W	   STATIC.+856-32768(A5),D0	         VS1
000017D8 5280			 ADDQ.L	   #1,D0			         $1
000017DA 5980			 SUBQ.L	   #4,D0			         $4
000017DC 7200			 MOVEQ	   #0,D1			         $0
000017DE 322D8346		 MOVE.W	   STATIC.+856-32768(A5),D1	         VS1
000017E2 4A80			 TST.L	   D0
000017E4 6D06			 BLT.S	   X.1.86(PC)
000017E6 5781			 SUBQ.L	   #3,D1			         $3
000017E8 B280			 CMP.L	   D0,D1
000017EA 6C06			 BGE.S	   X.1.87(PC)
000017EC 4EB900000000 X.1.86	 JSR	   E.SUBSTR
000017F2 486D834B     X.1.87	 PEA	   STATIC.+856-32763(A5)	         VS1
000017F6 3F00			 MOVE.W	   D0,-(A7)
000017F8 486D8348		 PEA	   STATIC.+856-32766(A5)	         VS1
000017FC 3F2D8346		 MOVE.W	   STATIC.+856-32768(A5),-(A7)	         VS1
00001800 4EB900000000		 JSR	   C.MVFFP
		      *							       LINE 184
00001806 487AEE48		 PEA	   K.55(PC)			         CODE.+$650
0000180A 7007			 MOVEQ	   #7,D0			         $7
0000180C 3F00			 MOVE.W	   D0,-(A7)
0000180E 486D8348		 PEA	   STATIC.+856-32766(A5)	         VS1
00001812 3F2D8346		 MOVE.W	   STATIC.+856-32768(A5),-(A7)	         VS1
00001816 4EB900000000		 JSR	   C.CPFF
0000181C 670C			 BEQ.S	   L.1.91(PC)
		      *							       LINE 184 (2)
0000181E 2D7C0000002D L.1.90	 MOVE.L	   #45,-76(A6)			         $2D  $FFFFFFB4
	 FFB4
00001826 6100E7EA		 BSR.L	   B.3(PC)			         ERROR = CODE.+$12
		      *							       LINE 185
0000182A 202D833E     L.1.91	 MOVE.L	   STATIC.+848-32768(A5),D0	         J
0000182E 7200			 MOVEQ	   #0,D1			         $0
00001830 322D8346		 MOVE.W	   STATIC.+856-32768(A5),D1	         VS1
00001834 5281			 ADDQ.L	   #1,D1			         $1
00001836 9280			 SUB.L	   D0,D1
00001838 7400			 MOVEQ	   #0,D2			         $0
0000183A 342D8346		 MOVE.W	   STATIC.+856-32768(A5),D2	         VS1
0000183E 4A81			 TST.L	   D1
00001840 6D0C			 BLT.S	   X.1.88(PC)
00001842 4A80			 TST.L	   D0
00001844 6F08			 BLE.S	   X.1.88(PC)
00001846 9480			 SUB.L	   D0,D200001848 5282			 ADDQ.L	   #1,D2			         $1
0000184A B481			 CMP.L	   D1,D2
0000184C 6C06			 BGE.S	   X.1.89(PC)
0000184E 4EB900000000 X.1.88	 JSR	   E.SUBSTR
00001854 5380	      X.1.89	 SUBQ.L	   #1,D0			         $1
00001856 41ED8348		 LEA	   STATIC.+856-32766(A5),A0	         VS1
0000185A 3401			 MOVE.W	   D1,D2
0000185C 0C42000F		 CMPI.W	   #15,D2			         $F
00001860 6F04			 BLE.S	   X.1.90(PC)
00001862 343C000F		 MOVE.W	   #15,D2			         $F
00001866 3B428346     X.1.90	 MOVE.W	   D2,STATIC.+856-32768(A5)	         VS1
0000186A 486D8348		 PEA	   STATIC.+856-32766(A5)	         VS1
0000186E 740F			 MOVEQ	   #15,D2			         $F
00001870 3F02			 MOVE.W	   D2,-(A7)
00001872 48700800		 PEA	   0(A0,D0.L)			         $0
00001876 3F01			 MOVE.W	   D1,-(A7)
00001878 4EB900000000		 JSR	   C.MVFF
		      *							       LINE 186
0000187E 487AEDD8		 PEA	   K.56(PC)			         CODE.+$658
00001882 7004			 MOVEQ	   #4,D0			         $4
00001884 3F00			 MOVE.W	   D0,-(A7)
00001886 486D8348		 PEA	   STATIC.+856-32766(A5)	         VS1
0000188A 3F2D8346		 MOVE.W	   STATIC.+856-32768(A5),-(A7)	         VS1
0000188E 4EB900000000		 JSR	   C.CPFF
00001894 670C			 BEQ.S	   L.1.93(PC)
		      *							       LINE 186 (2)
00001896 2D7C0000002E L.1.92	 MOVE.L	   #46,-76(A6)			         $2E  $FFFFFFB4
	 FFB4
0000189E 6100E772		 BSR.L	   B.3(PC)			         ERROR = CODE.+$12
		      *							       LINE 187
000018A2 202D833E     L.1.93	 MOVE.L	   STATIC.+848-32768(A5),D0	         J
000018A6 7200			 MOVEQ	   #0,D1			         $0
000018A8 322D8346		 MOVE.W	   STATIC.+856-32768(A5),D1	         VS1
000018AC 5281			 ADDQ.L	   #1,D1			         $1
000018AE 9280			 SUB.L	   D0,D1
000018B0 7400			 MOVEQ	   #0,D2			         $0
000018B2 342D8346		 MOVE.W	   STATIC.+856-32768(A5),D2	         VS1
000018B6 4A81			 TST.L	   D1
000018B8 6D0C			 BLT.S	   X.1.91(PC)
000018BA 4A80			 TST.L	   D0
000018BC 6F08			 BLE.S	   X.1.91(PC)
000018BE 9480			 SUB.L	   D0,D2
000018C0 5282			 ADDQ.L	   #1,D2			         $1
000018C2 B481			 CMP.L	   D1,D2
000018C4 6C06			 BGE.S	   X.1.92(PC)000018C6 4EB900000000 X.1.91	 JSR	   E.SUBSTR
000018CC 5380	      X.1.92	 SUBQ.L	   #1,D0			         $1
000018CE 41ED8348		 LEA	   STATIC.+856-32766(A5),A0	         VS1
000018D2 7400			 MOVEQ	   #0,D2			         $0
000018D4 342D8346		 MOVE.W	   STATIC.+856-32768(A5),D2	         VS1
000018D8 5282			 ADDQ.L	   #1,D2			         $1
000018DA 5782			 SUBQ.L	   #3,D2			         $3
000018DC 7600			 MOVEQ	   #0,D3			         $0
000018DE 362D8346		 MOVE.W	   STATIC.+856-32768(A5),D3	         VS1
000018E2 4A82			 TST.L	   D2
000018E4 6D06			 BLT.S	   X.1.93(PC)
000018E6 5583			 SUBQ.L	   #2,D3			         $2
000018E8 B682			 CMP.L	   D2,D3
000018EA 6C06			 BGE.S	   X.1.94(PC)
000018EC 4EB900000000 X.1.93	 JSR	   E.SUBSTR
000018F2 486D834A     X.1.94	 PEA	   STATIC.+856-32764(A5)	         VS1
000018F6 3F02			 MOVE.W	   D2,-(A7)
000018F8 48700800		 PEA	   0(A0,D0.L)			         $0
000018FC 3F01			 MOVE.W	   D1,-(A7)
000018FE 4EB900000000		 JSR	   C.MVFFP
		      *							       LINE 188
00001904 487AED56		 PEA	   K.57(PC)			         CODE.+$65C
00001908 7003			 MOVEQ	   #3,D0			         $3
0000190A 3F00			 MOVE.W	   D0,-(A7)
0000190C 486D8348		 PEA	   STATIC.+856-32766(A5)	         VS1
00001910 3F2D8346		 MOVE.W	   STATIC.+856-32768(A5),-(A7)	         VS1
00001914 4EB900000000		 JSR	   C.CPFF
0000191A 670C			 BEQ.S	   L.1.95(PC)
		      *							       LINE 188 (2)
0000191C 2D7C0000002F L.1.94	 MOVE.L	   #47,-76(A6)			         $2F  $FFFFFFB4
	 FFB4
00001924 6100E6EC		 BSR.L	   B.3(PC)			         ERROR = CODE.+$12
		      *							       LINE 189
00001928 7041	      L.1.95	 MOVEQ	   #65,D0			         $41
0000192A D0AD8342		 ADD.L	   STATIC.+852-32768(A5),D0	         K
0000192E 90AD8342		 SUB.L	   STATIC.+852-32768(A5),D0	         K
00001932 4A80			 TST.L	   D0
00001934 6C06			 BGE.S	   X.1.95(PC)
00001936 4EB900000000 X.1.96	 JSR	   E.VALUE
0000193C 727F	      X.1.95	 MOVEQ	   #127,D1			         $7F
0000193E B081			 CMP.L	   D1,D0
00001940 6EF4			 BGT.S	   X.1.96(PC)
00001942 3B7C00018346		 MOVE.W	   #1,STATIC.+856-32768(A5)	         $1  VS1
00001948 1B408348		 MOVE.B	   D0,STATIC.+856-32766(A5)	         VS1
		      *							       LINE 1900000194C 7041			 MOVEQ	   #65,D0			         $41
0000194E 1F00			 MOVE.B	   D0,-(A7)
00001950 486D8348		 PEA	   STATIC.+856-32766(A5)	         VS1
00001954 3F2D8346		 MOVE.W	   STATIC.+856-32768(A5),-(A7)	         VS1
00001958 4EB900000000		 JSR	   C.CPFC
0000195E 670C			 BEQ.S	   L.1.97(PC)
		      *							       LINE 190 (2)
00001960 2D7C00000030 L.1.96	 MOVE.L	   #48,-76(A6)			         $30  $FFFFFFB4
	 FFB4
00001968 6100E6A8		 BSR.L	   B.3(PC)			         ERROR = CODE.+$12
		      *							       LINE 191
0000196C 302D8346     L.1.97	 MOVE.W	   STATIC.+856-32768(A5),D0	         VS1
00001970 1D6D8000FFBC		 MOVE.B	   STATIC.+18-32768(A5),-68(A6)	         T  $FFFFFFBC
00001976 41EEFF10		 LEA	   -240(A6),A0			         $FFFFFF10
0000197A 2D48FFB8		 MOVE.L	   A0,-72(A6)			         $FFFFFFB8
0000197E 2D40FF0C		 MOVE.L	   D0,-244(A6)			         $FFFFFF0C
00001982 6100E6DE		 BSR.L	   B.4(PC)			         FUNC_RET_CHAR = CODE.
00001986 202EFF0C		 MOVE.L	   -244(A6),D0			         $FFFFFF0C
0000198A 5240			 ADDQ.W	   #1,D0			         $1
0000198C 486EFEFC		 PEA	   -260(A6)			         $FFFFFEFC
00001990 720F			 MOVEQ	   #15,D1			         $F
00001992 3F01			 MOVE.W	   D1,-(A7)
00001994 486D8348		 PEA	   STATIC.+856-32766(A5)	         VS1
00001998 3F2D8346		 MOVE.W	   STATIC.+856-32768(A5),-(A7)	         VS1
0000199C 4EB900000000		 JSR	   C.MVFF
000019A2 1F2EFF10		 MOVE.B	   -240(A6),-(A7)		         $FFFFFF10
000019A6 4EB900000000		 JSR	   C.MVCR
000019AC 3200			 MOVE.W	   D0,D1
000019AE 0C41000F		 CMPI.W	   #15,D1			         $F
000019B2 6F04			 BLE.S	   X.1.97(PC)
000019B4 323C000F		 MOVE.W	   #15,D1			         $F
000019B8 3B418346     X.1.97	 MOVE.W	   D1,STATIC.+856-32768(A5)	         VS1
000019BC 486D8348		 PEA	   STATIC.+856-32766(A5)	         VS1
000019C0 720F			 MOVEQ	   #15,D1			         $F
000019C2 3F01			 MOVE.W	   D1,-(A7)
000019C4 486EFEFC		 PEA	   -260(A6)			         $FFFFFEFC
000019C8 3F00			 MOVE.W	   D0,-(A7)
000019CA 4EB900000000		 JSR	   C.MVFF
		      *							       LINE 192
000019D0 487AEC8E		 PEA	   K.58(PC)			         CODE.+$660
000019D4 7002			 MOVEQ	   #2,D0			         $2
000019D6 3F00			 MOVE.W	   D0,-(A7)
000019D8 486D8348		 PEA	   STATIC.+856-32766(A5)	         VS1
000019DC 3F2D8346		 MOVE.W	   STATIC.+856-32768(A5),-(A7)	         VS1
000019E0 4EB900000000		 JSR	   C.CPFF000019E6 670C			 BEQ.S	   L.1.99(PC)
		      *							       LINE 192 (2)
000019E8 2D7C00000031 L.1.98	 MOVE.L	   #49,-76(A6)			         $31  $FFFFFFB4
	 FFB4
000019F0 6100E620		 BSR.L	   B.3(PC)			         ERROR = CODE.+$12
		      *							       LINE 194
000019F4 701E	      L.1.99	 MOVEQ	   #30,D0			         $1E
000019F6 2F00			 MOVE.L	   D0,-(A7)
000019F8 4EB900000000		 JSR	   H.NEW
000019FE 201F			 MOVE.L	   (A7)+,D0
00001A00 2B408010		 MOVE.L	   D0,STATIC.+34-32768(A5)	         VFLX
00001A04 2040			 MOVEA.L   D0,A0
00001A06 701A			 MOVEQ	   #26,D0			         $1A
00001A08 3080			 MOVE.W	   D0,(A0)
		      *							       LINE 195
00001A0A 701C			 MOVEQ	   #28,D0			         $1C
00001A0C 2F00			 MOVE.L	   D0,-(A7)
00001A0E 4EB900000000		 JSR	   H.NEW
00001A14 201F			 MOVE.L	   (A7)+,D0
00001A16 2B408014		 MOVE.L	   D0,STATIC.+38-32768(A5)	         FFLX
00001A1A 2040			 MOVEA.L   D0,A0
00001A1C 701A			 MOVEQ	   #26,D0			         $1A
00001A1E 3080			 MOVE.W	   D0,(A0)
		      *							       LINE 196
00001A20 202D8010		 MOVE.L	   STATIC.+34-32768(A5),D0	         VFLX
00001A24 4A80			 TST.L	   D0
00001A26 6606			 BNE.S	   X.1.98(PC)
00001A28 4EB900000000		 JSR	   E.PTR
00001A2E 2040	      X.1.98	 MOVEA.L   D0,A0
00001A30 303C001A		 MOVE.W	   #26,D0			         $1A
00001A34 B050			 CMP.W	   (A0),D0
00001A36 6F02			 BLE.S	   X.1.99(PC)
00001A38 3010			 MOVE.W	   (A0),D0
00001A3A 31400002     X.1.99	 MOVE.W	   D0,2(A0)			         $2
00001A3E 48680004		 PEA	   4(A0)			         $4
00001A42 3F10			 MOVE.W	   (A0),-(A7)
00001A44 487AEC1C		 PEA	   K.59(PC)			         CODE.+$662
00001A48 701A			 MOVEQ	   #26,D0			         $1A
00001A4A 3F00			 MOVE.W	   D0,-(A7)
00001A4C 4EB900000000		 JSR	   C.MVFF
		      *							       LINE 197
00001A52 202D8010		 MOVE.L	   STATIC.+34-32768(A5),D0	         VFLX
00001A56 4A80			 TST.L	   D0
00001A58 6606			 BNE.S	   X.1.100(PC)
00001A5A 4EB900000000		 JSR	   E.PTR00001A60 2040	      X.1.100	 MOVEA.L   D0,A0
00001A62 202D8014		 MOVE.L	   STATIC.+38-32768(A5),D0	         FFLX
00001A66 4A80			 TST.L	   D0
00001A68 6606			 BNE.S	   X.1.101(PC)
00001A6A 4EB900000000		 JSR	   E.PTR
00001A70 2240	      X.1.101	 MOVEA.L   D0,A1
00001A72 48690002		 PEA	   2(A1)			         $2
00001A76 3F11			 MOVE.W	   (A1),-(A7)
00001A78 48680004		 PEA	   4(A0)			         $4
00001A7C 3F280002		 MOVE.W	   2(A0),-(A7)			         $2
00001A80 4EB900000000		 JSR	   C.MVFFP
		      *							       LINE 198
00001A86 202D8014		 MOVE.L	   STATIC.+38-32768(A5),D0	         FFLX
00001A8A 4A80			 TST.L	   D0
00001A8C 6606			 BNE.S	   X.1.102(PC)
00001A8E 4EB900000000		 JSR	   E.PTR
00001A94 2040	      X.1.102	 MOVEA.L   D0,A0
00001A96 487AEBE4		 PEA	   K.60(PC)			         CODE.+$67C
00001A9A 701A			 MOVEQ	   #26,D0			         $1A
00001A9C 3F00			 MOVE.W	   D0,-(A7)
00001A9E 48680002		 PEA	   2(A0)			         $2
00001AA2 3F10			 MOVE.W	   (A0),-(A7)
00001AA4 4EB900000000		 JSR	   C.CPFF
00001AAA 665E			 BNE.S	   L.1.102(PC)
00001AAC 202D8010     L.1.100	 MOVE.L	   STATIC.+34-32768(A5),D0	         VFLX
00001AB0 4A80			 TST.L	   D0
00001AB2 6606			 BNE.S	   X.1.103(PC)
00001AB4 4EB900000000		 JSR	   E.PTR
00001ABA 2040	      X.1.103	 MOVEA.L   D0,A0
00001ABC 487AEBD8		 PEA	   K.61(PC)			         CODE.+$696
00001AC0 701A			 MOVEQ	   #26,D0			         $1A
00001AC2 3F00			 MOVE.W	   D0,-(A7)
00001AC4 48680004		 PEA	   4(A0)			         $4
00001AC8 3F280002		 MOVE.W	   2(A0),-(A7)			         $2
00001ACC 4EB900000000		 JSR	   C.CPFF
00001AD2 6636			 BNE.S	   L.1.102(PC)
00001AD4 202D8010     L.1.101	 MOVE.L	   STATIC.+34-32768(A5),D0	         VFLX
00001AD8 4A80			 TST.L	   D0
00001ADA 6606			 BNE.S	   X.1.104(PC)
00001ADC 4EB900000000		 JSR	   E.PTR
00001AE2 2040	      X.1.104	 MOVEA.L   D0,A0
00001AE4 202D8014		 MOVE.L	   STATIC.+38-32768(A5),D0	         FFLX
00001AE8 4A80			 TST.L	   D0
00001AEA 6606			 BNE.S	   X.1.105(PC)
00001AEC 4EB900000000		 JSR	   E.PTR00001AF2 2240	      X.1.105	 MOVEA.L   D0,A1
00001AF4 48690002		 PEA	   2(A1)			         $2
00001AF8 3F11			 MOVE.W	   (A1),-(A7)
00001AFA 48680004		 PEA	   4(A0)			         $4
00001AFE 3F280002		 MOVE.W	   2(A0),-(A7)			         $2
00001B02 4EB900000000		 JSR	   C.CPFF
00001B08 670C			 BEQ.S	   L.1.103(PC)
		      *							       LINE 201
00001B0A 2D7C00000032 L.1.102	 MOVE.L	   #50,-76(A6)			         $32  $FFFFFFB4
	 FFB4
00001B12 6100E4FE		 BSR.L	   B.3(PC)			         ERROR = CODE.+$12
		      *							       LINE 202
00001B16 202D8014     L.1.103	 MOVE.L	   STATIC.+38-32768(A5),D0	         FFLX
00001B1A 4A80			 TST.L	   D0
00001B1C 6606			 BNE.S	   X.1.106(PC)
00001B1E 4EB900000000		 JSR	   E.PTR
00001B24 2040	      X.1.106	 MOVEA.L   D0,A0
00001B26 3010			 MOVE.W	   (A0),D0
00001B28 0C400190		 CMPI.W	   #400,D0			         $190
00001B2C 6F04			 BLE.S	   X.1.107(PC)
00001B2E 303C0190		 MOVE.W	   #400,D0			         $190
00001B32 3D40FD7E     X.1.107	 MOVE.W	   D0,-642(A6)			         $FFFFFD7E
00001B36 486EFD80		 PEA	   -640(A6)			         $FFFFFD80
00001B3A 3F2EFD7E		 MOVE.W	   -642(A6),-(A7)		         $FFFFFD7E
00001B3E 48680002		 PEA	   2(A0)			         $2
00001B42 3F10			 MOVE.W	   (A0),-(A7)
00001B44 4EB900000000		 JSR	   C.MVFFU
00001B4A 43EEFD7E		 LEA	   -642(A6),A1			         $FFFFFD7E
00001B4E 2D49FFDA		 MOVE.L	   A1,-38(A6)			         $FFFFFFDA
00001B52 41EEFF10		 LEA	   -240(A6),A0			         $FFFFFF10
00001B56 2D48FFD6		 MOVE.L	   A0,-42(A6)			         $FFFFFFD6
00001B5A 6100E65A		 BSR.L	   B.7(PC)			         CASE_PASSED = CODE.+$
00001B5E 4A2EFF10		 TST.B	   -240(A6)			         $FFFFFF10
00001B62 660C			 BNE.S	   L.1.105(PC)
		      *							       LINE 203
00001B64 2D7C00000033 L.1.104	 MOVE.L	   #51,-76(A6)			         $33  $FFFFFFB4
	 FFB4
00001B6C 6100E4A4		 BSR.L	   B.3(PC)			         ERROR = CODE.+$12
		      *							       LINE 204
00001B70 202D8010     L.1.105	 MOVE.L	   STATIC.+34-32768(A5),D0	         VFLX
00001B74 4A80			 TST.L	   D0
00001B76 6606			 BNE.S	   X.1.108(PC)
00001B78 4EB900000000		 JSR	   E.PTR
00001B7E 2040	      X.1.108	 MOVEA.L   D0,A0
00001B80 30280002		 MOVE.W	   2(A0),D0			         $200001B84 0C400190		 CMPI.W	   #400,D0			         $190
00001B88 6F04			 BLE.S	   X.1.109(PC)
00001B8A 303C0190		 MOVE.W	   #400,D0			         $190
00001B8E 3D40FD7E     X.1.109	 MOVE.W	   D0,-642(A6)			         $FFFFFD7E
00001B92 486EFD80		 PEA	   -640(A6)			         $FFFFFD80
00001B96 3F2EFD7E		 MOVE.W	   -642(A6),-(A7)		         $FFFFFD7E
00001B9A 48680004		 PEA	   4(A0)			         $4
00001B9E 3F280002		 MOVE.W	   2(A0),-(A7)			         $2
00001BA2 4EB900000000		 JSR	   C.MVFFU
00001BA8 43EEFD7E		 LEA	   -642(A6),A1			         $FFFFFD7E
00001BAC 2D49FFDA		 MOVE.L	   A1,-38(A6)			         $FFFFFFDA
00001BB0 41EEFF10		 LEA	   -240(A6),A0			         $FFFFFF10
00001BB4 2D48FFD6		 MOVE.L	   A0,-42(A6)			         $FFFFFFD6
00001BB8 6100E5FC		 BSR.L	   B.7(PC)			         CASE_PASSED = CODE.+$
00001BBC 4A2EFF10		 TST.B	   -240(A6)			         $FFFFFF10
00001BC0 660C			 BNE.S	   L.1.107(PC)
		      *							       LINE 205
00001BC2 2D7C00000034 L.1.106	 MOVE.L	   #52,-76(A6)			         $34  $FFFFFFB4
	 FFB4
00001BCA 6100E446		 BSR.L	   B.3(PC)			         ERROR = CODE.+$12
		      *							       LINE 206
00001BCE 202D8014     L.1.107	 MOVE.L	   STATIC.+38-32768(A5),D0	         FFLX
00001BD2 4A80			 TST.L	   D0
00001BD4 6606			 BNE.S	   X.1.110(PC)
00001BD6 4EB900000000		 JSR	   E.PTR
00001BDC 2040	      X.1.110	 MOVEA.L   D0,A0
00001BDE 7000			 MOVEQ	   #0,D0			         $0
00001BE0 3010			 MOVE.W	   (A0),D0
00001BE2 90BC00000000		 SUB.L	   #0,D0			         $0
00001BE8 0C800000000A		 CMPI.L	   #10,D0			         $A
00001BEE 6C06			 BGE.S	   X.1.112(PC)
00001BF0 4EB900000000 X.1.111	 JSR	   E.SUBSTR
00001BF6 202D8010     X.1.112	 MOVE.L	   STATIC.+34-32768(A5),D0	         VFLX
00001BFA 4A80			 TST.L	   D0
00001BFC 6606			 BNE.S	   X.1.113(PC)
00001BFE 4EB900000000		 JSR	   E.PTR
00001C04 2240	      X.1.113	 MOVEA.L   D0,A1
00001C06 7000			 MOVEQ	   #0,D0			         $0
00001C08 30290002		 MOVE.W	   2(A1),D0			         $2
00001C0C 5280			 ADDQ.L	   #1,D0			         $1
00001C0E 720B			 MOVEQ	   #11,D1			         $B
00001C10 9280			 SUB.L	   D0,D1
00001C12 4481			 NEG.L	   D1
00001C14 7000			 MOVEQ	   #0,D0			         $0
00001C16 30290002		 MOVE.W	   2(A1),D0			         $200001C1A 4A81			 TST.L	   D1
00001C1C 6D0A			 BLT.S	   X.1.114(PC)
00001C1E 90BC0000000A		 SUB.L	   #10,D0			         $A
00001C24 B081			 CMP.L	   D1,D0
00001C26 6C06			 BGE.S	   X.1.115(PC)
00001C28 4EB900000000 X.1.114	 JSR	   E.SUBSTR
00001C2E 3001	      X.1.115	 MOVE.W	   D1,D0
00001C30 D07C000A		 ADD.W	   #10,D0			         $A
00001C34 486EFD80		 PEA	   -640(A6)			         $FFFFFD80
00001C38 3F3C0190		 MOVE.W	   #400,-(A7)			         $190
00001C3C 48680002		 PEA	   2(A0)			         $2
00001C40 740A			 MOVEQ	   #10,D2			         $A
00001C42 3F02			 MOVE.W	   D2,-(A7)
00001C44 4EB900000000		 JSR	   C.MVFFU
00001C4A 4869000E		 PEA	   14(A1)			         $E
00001C4E 3F01			 MOVE.W	   D1,-(A7)
00001C50 4EB900000000		 JSR	   C.MVFRU
00001C56 3200			 MOVE.W	   D0,D1
00001C58 0C410190		 CMPI.W	   #400,D1			         $190
00001C5C 6F04			 BLE.S	   X.1.116(PC)
00001C5E 323C0190		 MOVE.W	   #400,D1			         $190
00001C62 3D41FBEE     X.1.116	 MOVE.W	   D1,-1042(A6)			         $FFFFFBEE
00001C66 486EFBF0		 PEA	   -1040(A6)			         $FFFFFBF0
00001C6A 3F2EFBEE		 MOVE.W	   -1042(A6),-(A7)		         $FFFFFBEE
00001C6E 486EFD80		 PEA	   -640(A6)			         $FFFFFD80
00001C72 3F00			 MOVE.W	   D0,-(A7)
00001C74 4EB900000000		 JSR	   C.MVFF
00001C7A 41EEFBEE		 LEA	   -1042(A6),A0			         $FFFFFBEE
00001C7E 2D48FFDA		 MOVE.L	   A0,-38(A6)			         $FFFFFFDA
00001C82 41EEFF10		 LEA	   -240(A6),A0			         $FFFFFF10
00001C86 2D48FFD6		 MOVE.L	   A0,-42(A6)			         $FFFFFFD6
00001C8A 6100E52A		 BSR.L	   B.7(PC)			         CASE_PASSED = CODE.+$
00001C8E 4A2EFF10		 TST.B	   -240(A6)			         $FFFFFF10
00001C92 660C			 BNE.S	   L.1.109(PC)
		      *							       LINE 207
00001C94 2D7C00000035 L.1.108	 MOVE.L	   #53,-76(A6)			         $35  $FFFFFFB4
	 FFB4
00001C9C 6100E374		 BSR.L	   B.3(PC)			         ERROR = CODE.+$12
		      *							       LINE 208
00001CA0 202D8014     L.1.109	 MOVE.L	   STATIC.+38-32768(A5),D0	         FFLX
00001CA4 4A80			 TST.L	   D0
00001CA6 6606			 BNE.S	   X.1.117(PC)
00001CA8 4EB900000000		 JSR	   E.PTR
00001CAE 2040	      X.1.117	 MOVEA.L   D0,A0
00001CB0 7000			 MOVEQ	   #0,D0			         $000001CB2 3010			 MOVE.W	   (A0),D0
00001CB4 90BC00000000		 SUB.L	   #0,D0			         $0
00001CBA 0C800000000A		 CMPI.L	   #10,D0			         $A
00001CC0 6C06			 BGE.S	   X.1.119(PC)
00001CC2 4EB900000000 X.1.118	 JSR	   E.SUBSTR
00001CC8 202D8010     X.1.119	 MOVE.L	   STATIC.+34-32768(A5),D0	         VFLX
00001CCC 4A80			 TST.L	   D0
00001CCE 6606			 BNE.S	   X.1.120(PC)
00001CD0 4EB900000000		 JSR	   E.PTR
00001CD6 2240	      X.1.120	 MOVEA.L   D0,A1
00001CD8 7000			 MOVEQ	   #0,D0			         $0
00001CDA 30290002		 MOVE.W	   2(A1),D0			         $2
00001CDE 5280			 ADDQ.L	   #1,D0			         $1
00001CE0 720B			 MOVEQ	   #11,D1			         $B
00001CE2 9280			 SUB.L	   D0,D1
00001CE4 4481			 NEG.L	   D1
00001CE6 7000			 MOVEQ	   #0,D0			         $0
00001CE8 30290002		 MOVE.W	   2(A1),D0			         $2
00001CEC 4A81			 TST.L	   D1
00001CEE 6D0A			 BLT.S	   X.1.121(PC)
00001CF0 90BC0000000A		 SUB.L	   #10,D0			         $A
00001CF6 B081			 CMP.L	   D1,D0
00001CF8 6C06			 BGE.S	   X.1.122(PC)
00001CFA 4EB900000000 X.1.121	 JSR	   E.SUBSTR
00001D00 3001	      X.1.122	 MOVE.W	   D1,D0
00001D02 D07C000A		 ADD.W	   #10,D0			         $A
00001D06 486EFD80		 PEA	   -640(A6)			         $FFFFFD80
00001D0A 3F3C0190		 MOVE.W	   #400,-(A7)			         $190
00001D0E 48680002		 PEA	   2(A0)			         $2
00001D12 740A			 MOVEQ	   #10,D2			         $A
00001D14 3F02			 MOVE.W	   D2,-(A7)
00001D16 4EB900000000		 JSR	   C.MVFFU
00001D1C 4869000E		 PEA	   14(A1)			         $E
00001D20 3F01			 MOVE.W	   D1,-(A7)
00001D22 4EB900000000		 JSR	   C.MVFRU
00001D28 3200			 MOVE.W	   D0,D1
00001D2A 0C410190		 CMPI.W	   #400,D1			         $190
00001D2E 6F04			 BLE.S	   X.1.123(PC)
00001D30 323C0190		 MOVE.W	   #400,D1			         $190
00001D34 3D41FBEE     X.1.123	 MOVE.W	   D1,-1042(A6)			         $FFFFFBEE
00001D38 486EFBF0		 PEA	   -1040(A6)			         $FFFFFBF0
00001D3C 3F2EFBEE		 MOVE.W	   -1042(A6),-(A7)		         $FFFFFBEE
00001D40 486EFD80		 PEA	   -640(A6)			         $FFFFFD80
00001D44 3F00			 MOVE.W	   D0,-(A7)
00001D46 4EB900000000		 JSR	   C.MVFF00001D4C 41EEFBEE		 LEA	   -1042(A6),A0			         $FFFFFBEE
00001D50 2D48FFDA		 MOVE.L	   A0,-38(A6)			         $FFFFFFDA
00001D54 41EEFF10		 LEA	   -240(A6),A0			         $FFFFFF10
00001D58 2D48FFD6		 MOVE.L	   A0,-42(A6)			         $FFFFFFD6
00001D5C 6100E458		 BSR.L	   B.7(PC)			         CASE_PASSED = CODE.+$
00001D60 4A2EFF10		 TST.B	   -240(A6)			         $FFFFFF10
00001D64 660C			 BNE.S	   L.1.111(PC)
		      *							       LINE 209
00001D66 2D7C00000036 L.1.110	 MOVE.L	   #54,-76(A6)			         $36  $FFFFFFB4
	 FFB4
00001D6E 6100E2A2		 BSR.L	   B.3(PC)			         ERROR = CODE.+$12
		      *							       LINE 210
00001D72 4878009C     L.1.111	 PEA	   156				         $9C
00001D76 4EB900000000		 JSR	   H.NEW
00001D7C 201F			 MOVE.L	   (A7)+,D0
00001D7E 2B408014		 MOVE.L	   D0,STATIC.+38-32768(A5)	         FFLX
00001D82 2040			 MOVEA.L   D0,A0
00001D84 30BC009A		 MOVE.W	   #154,(A0)			         $9A
		      *							       LINE 211
00001D88 4878009E		 PEA	   158				         $9E
00001D8C 4EB900000000		 JSR	   H.NEW
00001D92 201F			 MOVE.L	   (A7)+,D0
00001D94 2B408010		 MOVE.L	   D0,STATIC.+34-32768(A5)	         VFLX
00001D98 2040			 MOVEA.L   D0,A0
00001D9A 30BC009A		 MOVE.W	   #154,(A0)			         $9A
		      *							       LINE 212
00001D9E 202D8014		 MOVE.L	   STATIC.+38-32768(A5),D0	         FFLX
00001DA2 4A80			 TST.L	   D0
00001DA4 6606			 BNE.S	   X.1.124(PC)
00001DA6 4EB900000000		 JSR	   E.PTR
00001DAC 2040	      X.1.124	 MOVEA.L   D0,A0
00001DAE 7000			 MOVEQ	   #0,D0			         $0
00001DB0 3010			 MOVE.W	   (A0),D0
00001DB2 90BC00000000		 SUB.L	   #0,D0			         $0
00001DB8 0C800000001A		 CMPI.L	   #26,D0			         $1A
00001DBE 6C06			 BGE.S	   X.1.126(PC)
00001DC0 4EB900000000 X.1.125	 JSR	   E.SUBSTR
00001DC6 48680002     X.1.126	 PEA	   2(A0)			         $2
00001DCA 701A			 MOVEQ	   #26,D0			         $1A
00001DCC 3F00			 MOVE.W	   D0,-(A7)
00001DCE 487AE8E0		 PEA	   K.62(PC)			         CODE.+$6B0
00001DD2 701A			 MOVEQ	   #26,D0			         $1A
00001DD4 3F00			 MOVE.W	   D0,-(A7)
00001DD6 4EB900000000		 JSR	   C.MVFFP
		      *							       LINE 21300001DDC 202D8014		 MOVE.L	   STATIC.+38-32768(A5),D0	         FFLX
00001DE0 4A80			 TST.L	   D0
00001DE2 6606			 BNE.S	   X.1.127(PC)
00001DE4 4EB900000000		 JSR	   E.PTR
00001DEA 2040	      X.1.127	 MOVEA.L   D0,A0
00001DEC 7000			 MOVEQ	   #0,D0			         $0
00001DEE 3010			 MOVE.W	   (A0),D0
00001DF0 90BC00000000		 SUB.L	   #0,D0			         $0
00001DF6 0C800000001A		 CMPI.L	   #26,D0			         $1A
00001DFC 6C06			 BGE.S	   X.1.129(PC)
00001DFE 4EB900000000 X.1.128	 JSR	   E.SUBSTR
00001E04 202D8014     X.1.129	 MOVE.L	   STATIC.+38-32768(A5),D0	         FFLX
00001E08 4A80			 TST.L	   D0
00001E0A 6606			 BNE.S	   X.1.130(PC)
00001E0C 4EB900000000		 JSR	   E.PTR
00001E12 2240	      X.1.130	 MOVEA.L   D0,A1
00001E14 7000			 MOVEQ	   #0,D0			         $0
00001E16 3011			 MOVE.W	   (A1),D0
00001E18 90BC0000007F		 SUB.L	   #127,D0			         $7F
00001E1E 0C800000001A		 CMPI.L	   #26,D0			         $1A
00001E24 6C06			 BGE.S	   X.1.132(PC)
00001E26 4EB900000000 X.1.131	 JSR	   E.SUBSTR
00001E2C 48690081     X.1.132	 PEA	   129(A1)			         $81
00001E30 701A			 MOVEQ	   #26,D0			         $1A
00001E32 3F00			 MOVE.W	   D0,-(A7)
00001E34 48680002		 PEA	   2(A0)			         $2
00001E38 701A			 MOVEQ	   #26,D0			         $1A
00001E3A 3F00			 MOVE.W	   D0,-(A7)
00001E3C 4EB900000000		 JSR	   C.MVFFP
		      *							       LINE 214
00001E42 202D8014		 MOVE.L	   STATIC.+38-32768(A5),D0	         FFLX
00001E46 4A80			 TST.L	   D0
00001E48 6606			 BNE.S	   X.1.133(PC)
00001E4A 4EB900000000		 JSR	   E.PTR
00001E50 2040	      X.1.133	 MOVEA.L   D0,A0
00001E52 7000			 MOVEQ	   #0,D0			         $0
00001E54 3010			 MOVE.W	   (A0),D0
00001E56 90BC00000000		 SUB.L	   #0,D0			         $0
00001E5C 0C800000001A		 CMPI.L	   #26,D0			         $1A
00001E62 6C06			 BGE.S	   X.1.135(PC)
00001E64 4EB900000000 X.1.134	 JSR	   E.SUBSTR
00001E6A 487AE85E     X.1.135	 PEA	   K.63(PC)			         CODE.+$6CA
00001E6E 701A			 MOVEQ	   #26,D0			         $1A
00001E70 3F00			 MOVE.W	   D0,-(A7)
00001E72 48680002		 PEA	   2(A0)			         $200001E76 701A			 MOVEQ	   #26,D0			         $1A
00001E78 3F00			 MOVE.W	   D0,-(A7)
00001E7A 4EB900000000		 JSR	   C.CPFF
00001E80 6668			 BNE.S	   L.1.113(PC)
00001E82 202D8014     L.1.112	 MOVE.L	   STATIC.+38-32768(A5),D0	         FFLX
00001E86 4A80			 TST.L	   D0
00001E88 6606			 BNE.S	   X.1.136(PC)
00001E8A 4EB900000000		 JSR	   E.PTR
00001E90 2040	      X.1.136	 MOVEA.L   D0,A0
00001E92 7000			 MOVEQ	   #0,D0			         $0
00001E94 3010			 MOVE.W	   (A0),D0
00001E96 90BC0000007F		 SUB.L	   #127,D0			         $7F
00001E9C 0C800000001A		 CMPI.L	   #26,D0			         $1A
00001EA2 6C06			 BGE.S	   X.1.138(PC)
00001EA4 4EB900000000 X.1.137	 JSR	   E.SUBSTR
00001EAA 202D8014     X.1.138	 MOVE.L	   STATIC.+38-32768(A5),D0	         FFLX
00001EAE 4A80			 TST.L	   D0
00001EB0 6606			 BNE.S	   X.1.139(PC)
00001EB2 4EB900000000		 JSR	   E.PTR
00001EB8 2240	      X.1.139	 MOVEA.L   D0,A1
00001EBA 7000			 MOVEQ	   #0,D0			         $0
00001EBC 3011			 MOVE.W	   (A1),D0
00001EBE 90BC00000000		 SUB.L	   #0,D0			         $0
00001EC4 0C800000001A		 CMPI.L	   #26,D0			         $1A
00001ECA 6C06			 BGE.S	   X.1.141(PC)
00001ECC 4EB900000000 X.1.140	 JSR	   E.SUBSTR
00001ED2 48690002     X.1.141	 PEA	   2(A1)			         $2
00001ED6 701A			 MOVEQ	   #26,D0			         $1A
00001ED8 3F00			 MOVE.W	   D0,-(A7)
00001EDA 48680081		 PEA	   129(A0)			         $81
00001EDE 701A			 MOVEQ	   #26,D0			         $1A
00001EE0 3F00			 MOVE.W	   D0,-(A7)
00001EE2 4EB900000000		 JSR	   C.CPFF
00001EE8 670C			 BEQ.S	   L.1.114(PC)
		      *							       LINE 216
00001EEA 2D7C00000037 L.1.113	 MOVE.L	   #55,-76(A6)			         $37  $FFFFFFB4
	 FFB4
00001EF2 6100E11E		 BSR.L	   B.3(PC)			         ERROR = CODE.+$12
		      *							       LINE 217
00001EF6 202D8014     L.1.114	 MOVE.L	   STATIC.+38-32768(A5),D0	         FFLX
00001EFA 4A80			 TST.L	   D0
00001EFC 6606			 BNE.S	   X.1.142(PC)
00001EFE 4EB900000000		 JSR	   E.PTR
00001F04 2040	      X.1.142	 MOVEA.L   D0,A0
00001F06 202D8010		 MOVE.L	   STATIC.+34-32768(A5),D0	         VFLX00001F0A 4A80			 TST.L	   D0
00001F0C 6606			 BNE.S	   X.1.143(PC)
00001F0E 4EB900000000		 JSR	   E.PTR
00001F14 2240	      X.1.143	 MOVEA.L   D0,A1
00001F16 3010			 MOVE.W	   (A0),D0
00001F18 B051			 CMP.W	   (A1),D0
00001F1A 6F02			 BLE.S	   X.1.144(PC)
00001F1C 3011			 MOVE.W	   (A1),D0
00001F1E 33400002     X.1.144	 MOVE.W	   D0,2(A1)			         $2
00001F22 48690004		 PEA	   4(A1)			         $4
00001F26 3F11			 MOVE.W	   (A1),-(A7)
00001F28 48680002		 PEA	   2(A0)			         $2
00001F2C 3F10			 MOVE.W	   (A0),-(A7)
00001F2E 4EB900000000		 JSR	   C.MVFF
		      *							       LINE 218
00001F34 202D8010		 MOVE.L	   STATIC.+34-32768(A5),D0	         VFLX
00001F38 4A80			 TST.L	   D0
00001F3A 6606			 BNE.S	   X.1.145(PC)
00001F3C 4EB900000000		 JSR	   E.PTR
00001F42 2040	      X.1.145	 MOVEA.L   D0,A0
00001F44 7000			 MOVEQ	   #0,D0			         $0
00001F46 30280002		 MOVE.W	   2(A0),D0			         $2
00001F4A 90BC00000000		 SUB.L	   #0,D0			         $0
00001F50 0C800000001A		 CMPI.L	   #26,D0			         $1A
00001F56 6C06			 BGE.S	   X.1.147(PC)
00001F58 4EB900000000 X.1.146	 JSR	   E.SUBSTR
00001F5E 487AE784     X.1.147	 PEA	   K.64(PC)			         CODE.+$6E4
00001F62 701A			 MOVEQ	   #26,D0			         $1A
00001F64 3F00			 MOVE.W	   D0,-(A7)
00001F66 48680004		 PEA	   4(A0)			         $4
00001F6A 701A			 MOVEQ	   #26,D0			         $1A
00001F6C 3F00			 MOVE.W	   D0,-(A7)
00001F6E 4EB900000000		 JSR	   C.CPFF
00001F74 666C			 BNE.S	   L.1.116(PC)
00001F76 202D8010     L.1.115	 MOVE.L	   STATIC.+34-32768(A5),D0	         VFLX
00001F7A 4A80			 TST.L	   D0
00001F7C 6606			 BNE.S	   X.1.148(PC)
00001F7E 4EB900000000		 JSR	   E.PTR
00001F84 2040	      X.1.148	 MOVEA.L   D0,A0
00001F86 7000			 MOVEQ	   #0,D0			         $0
00001F88 30280002		 MOVE.W	   2(A0),D0			         $2
00001F8C 90BC0000007F		 SUB.L	   #127,D0			         $7F
00001F92 0C800000001A		 CMPI.L	   #26,D0			         $1A
00001F98 6C06			 BGE.S	   X.1.150(PC)
00001F9A 4EB900000000 X.1.149	 JSR	   E.SUBSTR00001FA0 202D8010     X.1.150	 MOVE.L	   STATIC.+34-32768(A5),D0	         VFLX
00001FA4 4A80			 TST.L	   D0
00001FA6 6606			 BNE.S	   X.1.151(PC)
00001FA8 4EB900000000		 JSR	   E.PTR
00001FAE 2240	      X.1.151	 MOVEA.L   D0,A1
00001FB0 7000			 MOVEQ	   #0,D0			         $0
00001FB2 30290002		 MOVE.W	   2(A1),D0			         $2
00001FB6 90BC00000000		 SUB.L	   #0,D0			         $0
00001FBC 0C800000001A		 CMPI.L	   #26,D0			         $1A
00001FC2 6C06			 BGE.S	   X.1.153(PC)
00001FC4 4EB900000000 X.1.152	 JSR	   E.SUBSTR
00001FCA 48690004     X.1.153	 PEA	   4(A1)			         $4
00001FCE 701A			 MOVEQ	   #26,D0			         $1A
00001FD0 3F00			 MOVE.W	   D0,-(A7)
00001FD2 48680083		 PEA	   131(A0)			         $83
00001FD6 701A			 MOVEQ	   #26,D0			         $1A
00001FD8 3F00			 MOVE.W	   D0,-(A7)
00001FDA 4EB900000000		 JSR	   C.CPFF
00001FE0 670C			 BEQ.S	   L.1.117(PC)
		      *							       LINE 220
00001FE2 2D7C00000038 L.1.116	 MOVE.L	   #56,-76(A6)			         $38  $FFFFFFB4
	 FFB4
00001FEA 6100E026		 BSR.L	   B.3(PC)			         ERROR = CODE.+$12
		      *							       LINE 221
00001FEE 202D8014     L.1.117	 MOVE.L	   STATIC.+38-32768(A5),D0	         FFLX
00001FF2 4A80			 TST.L	   D0
00001FF4 6606			 BNE.S	   X.1.154(PC)
00001FF6 4EB900000000		 JSR	   E.PTR
00001FFC 2040	      X.1.154	 MOVEA.L   D0,A0
00001FFE 3010			 MOVE.W	   (A0),D0
00002000 0C400190		 CMPI.W	   #400,D0			         $190
00002004 6F04			 BLE.S	   X.1.155(PC)
00002006 303C0190		 MOVE.W	   #400,D0			         $190
0000200A 3D40FD7E     X.1.155	 MOVE.W	   D0,-642(A6)			         $FFFFFD7E
0000200E 486EFD80		 PEA	   -640(A6)			         $FFFFFD80
00002012 3F2EFD7E		 MOVE.W	   -642(A6),-(A7)		         $FFFFFD7E
00002016 48680002		 PEA	   2(A0)			         $2
0000201A 3F10			 MOVE.W	   (A0),-(A7)
0000201C 4EB900000000		 JSR	   C.MVFF
00002022 43EEFD7E		 LEA	   -642(A6),A1			         $FFFFFD7E
00002026 2D49FFDA		 MOVE.L	   A1,-38(A6)			         $FFFFFFDA
0000202A 41EEFF10		 LEA	   -240(A6),A0			         $FFFFFF10
0000202E 2D48FFD6		 MOVE.L	   A0,-42(A6)			         $FFFFFFD6
00002032 6100E182		 BSR.L	   B.7(PC)			         CASE_PASSED = CODE.+$
00002036 4A2EFF10		 TST.B	   -240(A6)			         $FFFFFF100000203A 660C			 BNE.S	   L.1.119(PC)
		      *							       LINE 222
0000203C 2D7C00000039 L.1.118	 MOVE.L	   #57,-76(A6)			         $39  $FFFFFFB4
	 FFB4
00002044 6100DFCC		 BSR.L	   B.3(PC)			         ERROR = CODE.+$12
		      *							       LINE 223
00002048 202D8010     L.1.119	 MOVE.L	   STATIC.+34-32768(A5),D0	         VFLX
0000204C 4A80			 TST.L	   D0
0000204E 6606			 BNE.S	   X.1.156(PC)
00002050 4EB900000000		 JSR	   E.PTR
00002056 2040	      X.1.156	 MOVEA.L   D0,A0
00002058 30280002		 MOVE.W	   2(A0),D0			         $2
0000205C 0C400190		 CMPI.W	   #400,D0			         $190
00002060 6F04			 BLE.S	   X.1.157(PC)
00002062 303C0190		 MOVE.W	   #400,D0			         $190
00002066 3D40FD7E     X.1.157	 MOVE.W	   D0,-642(A6)			         $FFFFFD7E
0000206A 486EFD80		 PEA	   -640(A6)			         $FFFFFD80
0000206E 3F2EFD7E		 MOVE.W	   -642(A6),-(A7)		         $FFFFFD7E
00002072 48680004		 PEA	   4(A0)			         $4
00002076 3F280002		 MOVE.W	   2(A0),-(A7)			         $2
0000207A 4EB900000000		 JSR	   C.MVFF
00002080 43EEFD7E		 LEA	   -642(A6),A1			         $FFFFFD7E
00002084 2D49FFDA		 MOVE.L	   A1,-38(A6)			         $FFFFFFDA
00002088 41EEFF10		 LEA	   -240(A6),A0			         $FFFFFF10
0000208C 2D48FFD6		 MOVE.L	   A0,-42(A6)			         $FFFFFFD6
00002090 6100E124		 BSR.L	   B.7(PC)			         CASE_PASSED = CODE.+$
00002094 4A2EFF10		 TST.B	   -240(A6)			         $FFFFFF10
00002098 660C			 BNE.S	   L.1.121(PC)
		      *							       LINE 224
0000209A 2D7C0000003A L.1.120	 MOVE.L	   #58,-76(A6)			         $3A  $FFFFFFB4
	 FFB4
000020A2 6100DF6E		 BSR.L	   B.3(PC)			         ERROR = CODE.+$12
		      *							       LINE 225
000020A6 202D8014     L.1.121	 MOVE.L	   STATIC.+38-32768(A5),D0	         FFLX
000020AA 4A80			 TST.L	   D0
000020AC 6606			 BNE.S	   X.1.158(PC)
000020AE 4EB900000000		 JSR	   E.PTR
000020B4 2040	      X.1.158	 MOVEA.L   D0,A0
000020B6 3010			 MOVE.W	   (A0),D0
000020B8 0C400190		 CMPI.W	   #400,D0			         $190
000020BC 6F04			 BLE.S	   X.1.159(PC)
000020BE 303C0190		 MOVE.W	   #400,D0			         $190
000020C2 3D40FD7E     X.1.159	 MOVE.W	   D0,-642(A6)			         $FFFFFD7E
000020C6 486EFD80		 PEA	   -640(A6)			         $FFFFFD80
000020CA 3F2EFD7E		 MOVE.W	   -642(A6),-(A7)		         $FFFFFD7E000020CE 48680002		 PEA	   2(A0)			         $2
000020D2 3F10			 MOVE.W	   (A0),-(A7)
000020D4 4EB900000000		 JSR	   C.MVFFU
000020DA 43EEFD7E		 LEA	   -642(A6),A1			         $FFFFFD7E
000020DE 2D49FFDA		 MOVE.L	   A1,-38(A6)			         $FFFFFFDA
000020E2 41EEFF10		 LEA	   -240(A6),A0			         $FFFFFF10
000020E6 2D48FFD6		 MOVE.L	   A0,-42(A6)			         $FFFFFFD6
000020EA 6100E0CA		 BSR.L	   B.7(PC)			         CASE_PASSED = CODE.+$
000020EE 4A2EFF10		 TST.B	   -240(A6)			         $FFFFFF10
000020F2 660C			 BNE.S	   L.1.123(PC)
		      *							       LINE 226
000020F4 2D7C0000003B L.1.122	 MOVE.L	   #59,-76(A6)			         $3B  $FFFFFFB4
	 FFB4
000020FC 6100DF14		 BSR.L	   B.3(PC)			         ERROR = CODE.+$12
		      *							       LINE 227
00002100 202D8010     L.1.123	 MOVE.L	   STATIC.+34-32768(A5),D0	         VFLX
00002104 4A80			 TST.L	   D0
00002106 6606			 BNE.S	   X.1.160(PC)
00002108 4EB900000000		 JSR	   E.PTR
0000210E 2040	      X.1.160	 MOVEA.L   D0,A0
00002110 30280002		 MOVE.W	   2(A0),D0			         $2
00002114 0C400190		 CMPI.W	   #400,D0			         $190
00002118 6F04			 BLE.S	   X.1.161(PC)
0000211A 303C0190		 MOVE.W	   #400,D0			         $190
0000211E 3D40FD7E     X.1.161	 MOVE.W	   D0,-642(A6)			         $FFFFFD7E
00002122 486EFD80		 PEA	   -640(A6)			         $FFFFFD80
00002126 3F2EFD7E		 MOVE.W	   -642(A6),-(A7)		         $FFFFFD7E
0000212A 48680004		 PEA	   4(A0)			         $4
0000212E 3F280002		 MOVE.W	   2(A0),-(A7)			         $2
00002132 4EB900000000		 JSR	   C.MVFFU
00002138 43EEFD7E		 LEA	   -642(A6),A1			         $FFFFFD7E
0000213C 2D49FFDA		 MOVE.L	   A1,-38(A6)			         $FFFFFFDA
00002140 41EEFF10		 LEA	   -240(A6),A0			         $FFFFFF10
00002144 2D48FFD6		 MOVE.L	   A0,-42(A6)			         $FFFFFFD6
00002148 6100E06C		 BSR.L	   B.7(PC)			         CASE_PASSED = CODE.+$
0000214C 4A2EFF10		 TST.B	   -240(A6)			         $FFFFFF10
00002150 660C			 BNE.S	   L.1.125(PC)
		      *							       LINE 228
00002152 2D7C0000003C L.1.124	 MOVE.L	   #60,-76(A6)			         $3C  $FFFFFFB4
	 FFB4
0000215A 6100DEB6		 BSR.L	   B.3(PC)			         ERROR = CODE.+$12
		      *							       LINE 230
0000215E 48780194     L.1.125	 PEA	   404				         $194
00002162 4EB900000000		 JSR	   H.NEW
00002168 201F			 MOVE.L	   (A7)+,D00000216A 2B408010		 MOVE.L	   D0,STATIC.+34-32768(A5)	         VFLX
0000216E 2040			 MOVEA.L   D0,A0
00002170 30BC0190		 MOVE.W	   #400,(A0)			         $190
		      *							       LINE 231
00002174 202D8010		 MOVE.L	   STATIC.+34-32768(A5),D0	         VFLX
00002178 4A80			 TST.L	   D0
0000217A 6606			 BNE.S	   X.1.162(PC)
0000217C 4EB900000000		 JSR	   E.PTR
00002182 2040	      X.1.162	 MOVEA.L   D0,A0
00002184 4240			 CLR.W	   D0
00002186 B050			 CMP.W	   (A0),D0
00002188 6F02			 BLE.S	   X.1.163(PC)
0000218A 3010			 MOVE.W	   (A0),D0
0000218C 31400002     X.1.163	 MOVE.W	   D0,2(A0)			         $2
		      *							       LINE 232
00002190 7001	      L.1.126	 MOVEQ	   #1,D0			         $1
00002192 2B40833A		 MOVE.L	   D0,STATIC.+844-32768(A5)	         I
00002196 2E6EFBEA     L.1.127	 MOVEA.L   ST.1(A6),A7			         -1046
		      *							       LINE 233
0000219A 202D8010		 MOVE.L	   STATIC.+34-32768(A5),D0	         VFLX
0000219E 4A80			 TST.L	   D0
000021A0 6606			 BNE.S	   X.1.164(PC)
000021A2 4EB900000000		 JSR	   E.PTR
000021A8 2040	      X.1.164	 MOVEA.L   D0,A0
000021AA 30280002		 MOVE.W	   2(A0),D0			         $2
000021AE 5240			 ADDQ.W	   #1,D0			         $1
000021B0 4840			 SWAP	   D0
000021B2 4240			 CLR.W	   D0
000021B4 4840			 SWAP	   D0
000021B6 2F00			 MOVE.L	   D0,-(A7)
000021B8 4EB900000000		 JSR	   M.DYNTMB
000021BE 224F			 MOVEA.L   A7,A1
000021C0 4851			 PEA	   (A1)
000021C2 3F00			 MOVE.W	   D0,-(A7)
000021C4 48680004		 PEA	   4(A0)			         $4
000021C8 3F280002		 MOVE.W	   2(A0),-(A7)			         $2
000021CC 4EB900000000		 JSR	   C.MVFF
000021D2 7261			 MOVEQ	   #97,D1			         $61
000021D4 1F01			 MOVE.B	   D1,-(A7)
000021D6 4EB900000000		 JSR	   C.MVCR
000021DC 222D8010		 MOVE.L	   STATIC.+34-32768(A5),D1	         VFLX
000021E0 4A81			 TST.L	   D1
000021E2 6606			 BNE.S	   X.1.165(PC)
000021E4 4EB900000000		 JSR	   E.PTR
000021EA 2041	      X.1.165	 MOVEA.L   D1,A0000021EC 3200			 MOVE.W	   D0,D1
000021EE B250			 CMP.W	   (A0),D1
000021F0 6F02			 BLE.S	   X.1.166(PC)
000021F2 3210			 MOVE.W	   (A0),D1
000021F4 31410002     X.1.166	 MOVE.W	   D1,2(A0)			         $2
000021F8 48680004		 PEA	   4(A0)			         $4
000021FC 3F10			 MOVE.W	   (A0),-(A7)
000021FE 4851			 PEA	   (A1)
00002200 3F00			 MOVE.W	   D0,-(A7)
00002202 4EB900000000		 JSR	   C.MVFF
00002208 202D833A		 MOVE.L	   STATIC.+844-32768(A5),D0	         I
0000220C 5280			 ADDQ.L	   #1,D0			         $1
0000220E 2B40833A		 MOVE.L	   D0,STATIC.+844-32768(A5)	         I
00002212 0C8000000190		 CMPI.L	   #400,D0			         $190
00002218 6F00FF7C		 BLE.L	   L.1.127(PC)
0000221C 2E6EFBEA     L.1.128	 MOVEA.L   ST.1(A6),A7			         -1046
		      *							       LINE 234
00002220 202D8010		 MOVE.L	   STATIC.+34-32768(A5),D0	         VFLX
00002224 4A80			 TST.L	   D0
00002226 6606			 BNE.S	   X.1.167(PC)
00002228 4EB900000000		 JSR	   E.PTR
0000222E 2040	      X.1.167	 MOVEA.L   D0,A0
00002230 7000			 MOVEQ	   #0,D0			         $0
00002232 30280002		 MOVE.W	   2(A0),D0			         $2
00002236 90BC0000016C		 SUB.L	   #364,D0			         $16C
0000223C 0C8000000005		 CMPI.L	   #5,D0			         $5
00002242 6C06			 BGE.S	   X.1.169(PC)
00002244 4EB900000000 X.1.168	 JSR	   E.SUBSTR
0000224A 48680170     X.1.169	 PEA	   368(A0)			         $170
0000224E 7005			 MOVEQ	   #5,D0			         $5
00002250 3F00			 MOVE.W	   D0,-(A7)
00002252 487AE4AA		 PEA	   K.66(PC)			         CODE.+$6FE
00002256 7005			 MOVEQ	   #5,D0			         $5
00002258 3F00			 MOVE.W	   D0,-(A7)
0000225A 4EB900000000		 JSR	   C.MVFFP
		      *							       LINE 235
00002260 202D8010		 MOVE.L	   STATIC.+34-32768(A5),D0	         VFLX
00002264 4A80			 TST.L	   D0
00002266 6606			 BNE.S	   X.1.170(PC)
00002268 4EB900000000		 JSR	   E.PTR
0000226E 2040	      X.1.170	 MOVEA.L   D0,A0
00002270 7000			 MOVEQ	   #0,D0			         $0
00002272 30280002		 MOVE.W	   2(A0),D0			         $2
00002276 90BC0000012B		 SUB.L	   #299,D0			         $12B
0000227C 0C800000000A		 CMPI.L	   #10,D0			         $A00002282 6C06			 BGE.S	   X.1.172(PC)
00002284 4EB900000000 X.1.171	 JSR	   E.SUBSTR
0000228A 4868012F     X.1.172	 PEA	   303(A0)			         $12F
0000228E 700A			 MOVEQ	   #10,D0			         $A
00002290 3F00			 MOVE.W	   D0,-(A7)
00002292 487AE470		 PEA	   K.67(PC)			         CODE.+$704
00002296 700A			 MOVEQ	   #10,D0			         $A
00002298 3F00			 MOVE.W	   D0,-(A7)
0000229A 4EB900000000		 JSR	   C.MVFFP
		      *							       LINE 236
000022A0 202D8010		 MOVE.L	   STATIC.+34-32768(A5),D0	         VFLX
000022A4 4A80			 TST.L	   D0
000022A6 6606			 BNE.S	   X.1.173(PC)
000022A8 4EB900000000		 JSR	   E.PTR
000022AE 2040	      X.1.173	 MOVEA.L   D0,A0
000022B0 7000			 MOVEQ	   #0,D0			         $0
000022B2 30280002		 MOVE.W	   2(A0),D0			         $2
000022B6 90BC00000167		 SUB.L	   #359,D0			         $167
000022BC 0C800000000A		 CMPI.L	   #10,D0			         $A
000022C2 6C06			 BGE.S	   X.1.175(PC)
000022C4 4EB900000000 X.1.174	 JSR	   E.SUBSTR
000022CA 486EFF08     X.1.175	 PEA	   -248(A6)			         $FFFFFF08
000022CE 700A			 MOVEQ	   #10,D0			         $A
000022D0 3F00			 MOVE.W	   D0,-(A7)
000022D2 4868016B		 PEA	   363(A0)			         $16B
000022D6 700A			 MOVEQ	   #10,D0			         $A
000022D8 3F00			 MOVE.W	   D0,-(A7)
000022DA 4EB900000000		 JSR	   C.MVFFU
000022E0 487AE42C		 PEA	   K.68(PC)			         CODE.+$70E
000022E4 700A			 MOVEQ	   #10,D0			         $A
000022E6 3F00			 MOVE.W	   D0,-(A7)
000022E8 486EFF08		 PEA	   -248(A6)			         $FFFFFF08
000022EC 700A			 MOVEQ	   #10,D0			         $A
000022EE 3F00			 MOVE.W	   D0,-(A7)
000022F0 4EB900000000		 JSR	   C.CPFF
000022F6 670C			 BEQ.S	   L.1.130(PC)
		      *							       LINE 237
000022F8 2D7C0000003D L.1.129	 MOVE.L	   #61,-76(A6)			         $3D  $FFFFFFB4
	 FFB4
00002300 6100DD10		 BSR.L	   B.3(PC)			         ERROR = CODE.+$12
		      *							       LINE 239
00002304 3D7C001AFEF4 L.1.130	 MOVE.W	   #26,-268(A6)			         $1A  $FFFFFEF4
0000230A 486EFEF6		 PEA	   -266(A6)			         $FFFFFEF6
0000230E 3F2EFEF4		 MOVE.W	   -268(A6),-(A7)		         $FFFFFEF4
00002312 487AE404		 PEA	   K.69(PC)			         CODE.+$71800002316 701A			 MOVEQ	   #26,D0			         $1A
00002318 3F00			 MOVE.W	   D0,-(A7)
0000231A 4EB900000000		 JSR	   C.MVFF
00002320 41EEFEF4		 LEA	   -268(A6),A0			         $FFFFFEF4
00002324 2D48FFDA		 MOVE.L	   A0,-38(A6)			         $FFFFFFDA
00002328 41EEFF10		 LEA	   -240(A6),A0			         $FFFFFF10
0000232C 2D48FFD6		 MOVE.L	   A0,-42(A6)			         $FFFFFFD6
00002330 6100DE84		 BSR.L	   B.7(PC)			         CASE_PASSED = CODE.+$
00002334 4A2EFF10		 TST.B	   -240(A6)			         $FFFFFF10
00002338 660C			 BNE.S	   L.1.132(PC)
		      *							       LINE 240
0000233A 2D7C0000003E L.1.131	 MOVE.L	   #62,-76(A6)			         $3E  $FFFFFFB4
	 FFB4
00002342 6100DCCE		 BSR.L	   B.3(PC)			         ERROR = CODE.+$12
		      *							       LINE 242
00002346 486D8018     L.1.132	 PEA	   STATIC.+42-32768(A5)		         AFLX
0000234A 701A			 MOVEQ	   #26,D0			         $1A
0000234C 3F00			 MOVE.W	   D0,-(A7)
0000234E 487AE3E2		 PEA	   K.70(PC)			         CODE.+$732
00002352 701A			 MOVEQ	   #26,D0			         $1A
00002354 3F00			 MOVE.W	   D0,-(A7)
00002356 4EB900000000		 JSR	   C.MVFFP
		      *							       LINE 243
0000235C 486D8097		 PEA	   STATIC.+42-32641(A5)		         AFLX
00002360 701A			 MOVEQ	   #26,D0			         $1A
00002362 3F00			 MOVE.W	   D0,-(A7)
00002364 486D8018		 PEA	   STATIC.+42-32768(A5)		         AFLX
00002368 701A			 MOVEQ	   #26,D0			         $1A
0000236A 3F00			 MOVE.W	   D0,-(A7)
0000236C 4EB900000000		 JSR	   C.MVFFP
		      *							       LINE 244
00002372 486D8143		 PEA	   STATIC.+42-32469(A5)		         AFLX
00002376 700A			 MOVEQ	   #10,D0			         $A
00002378 3F00			 MOVE.W	   D0,-(A7)
0000237A 487AE3D0		 PEA	   K.71(PC)			         CODE.+$74C
0000237E 700A			 MOVEQ	   #10,D0			         $A
00002380 3F00			 MOVE.W	   D0,-(A7)
00002382 4EB900000000		 JSR	   C.MVFFP
		      *							       LINE 245
00002388 3D7C0190FD7E		 MOVE.W	   #400,-642(A6)		         $190  $FFFFFD7E
0000238E 486EFD80		 PEA	   -640(A6)			         $FFFFFD80
00002392 3F2EFD7E		 MOVE.W	   -642(A6),-(A7)		         $FFFFFD7E
00002396 486D8018		 PEA	   STATIC.+42-32768(A5)		         AFLX
0000239A 3F3C0190		 MOVE.W	   #400,-(A7)			         $190
0000239E 4EB900000000		 JSR	   C.MVFF000023A4 41EEFD7E		 LEA	   -642(A6),A0			         $FFFFFD7E
000023A8 2D48FFDA		 MOVE.L	   A0,-38(A6)			         $FFFFFFDA
000023AC 41EEFF10		 LEA	   -240(A6),A0			         $FFFFFF10
000023B0 2D48FFD6		 MOVE.L	   A0,-42(A6)			         $FFFFFFD6
000023B4 6100DE00		 BSR.L	   B.7(PC)			         CASE_PASSED = CODE.+$
000023B8 4A2EFF10		 TST.B	   -240(A6)			         $FFFFFF10
000023BC 660C			 BNE.S	   L.1.134(PC)
		      *							       LINE 246
000023BE 2D7C0000003F L.1.133	 MOVE.L	   #63,-76(A6)			         $3F  $FFFFFFB4
	 FFB4
000023C6 6100DC4A		 BSR.L	   B.3(PC)			         ERROR = CODE.+$12
		      *							       LINE 248
000023CA 3B7C001A81A8 L.1.134	 MOVE.W	   #26,STATIC.+442-32768(A5)	         $1A  BIGSTR
000023D0 486D81AA		 PEA	   STATIC.+442-32766(A5)	         BIGSTR
000023D4 3F3C0190		 MOVE.W	   #400,-(A7)			         $190
000023D8 486D8018		 PEA	   STATIC.+42-32768(A5)		         AFLX
000023DC 701A			 MOVEQ	   #26,D0			         $1A
000023DE 3F00			 MOVE.W	   D0,-(A7)
000023E0 4EB900000000		 JSR	   C.MVFF
		      *							       LINE 249
000023E6 302D81A8		 MOVE.W	   STATIC.+442-32768(A5),D0	         BIGSTR
000023EA D06D81A8		 ADD.W	   STATIC.+442-32768(A5),D0	         BIGSTR
000023EE D06D81A8		 ADD.W	   STATIC.+442-32768(A5),D0	         BIGSTR
000023F2 D06D81A8		 ADD.W	   STATIC.+442-32768(A5),D0	         BIGSTR
000023F6 D06D81A8		 ADD.W	   STATIC.+442-32768(A5),D0	         BIGSTR
000023FA D06D81A8		 ADD.W	   STATIC.+442-32768(A5),D0	         BIGSTR
000023FE 486EFD82		 PEA	   -638(A6)			         $FFFFFD82
00002402 3F3C0190		 MOVE.W	   #400,-(A7)			         $190
00002406 486D81AA		 PEA	   STATIC.+442-32766(A5)	         BIGSTR
0000240A 3F2D81A8		 MOVE.W	   STATIC.+442-32768(A5),-(A7)	         BIGSTR
0000240E 4EB900000000		 JSR	   C.MVFF
00002414 486D81AA		 PEA	   STATIC.+442-32766(A5)	         BIGSTR
00002418 3F2D81A8		 MOVE.W	   STATIC.+442-32768(A5),-(A7)	         BIGSTR
0000241C 4EB900000000		 JSR	   C.MVFR
00002422 486D81AA		 PEA	   STATIC.+442-32766(A5)	         BIGSTR
00002426 3F2D81A8		 MOVE.W	   STATIC.+442-32768(A5),-(A7)	         BIGSTR
0000242A 4EB900000000		 JSR	   C.MVFR
00002430 486D81AA		 PEA	   STATIC.+442-32766(A5)	         BIGSTR
00002434 3F2D81A8		 MOVE.W	   STATIC.+442-32768(A5),-(A7)	         BIGSTR
00002438 4EB900000000		 JSR	   C.MVFR
0000243E 486D81AA		 PEA	   STATIC.+442-32766(A5)	         BIGSTR
00002442 3F2D81A8		 MOVE.W	   STATIC.+442-32768(A5),-(A7)	         BIGSTR
00002446 4EB900000000		 JSR	   C.MVFR
0000244C 486D81AA		 PEA	   STATIC.+442-32766(A5)	         BIGSTR
00002450 3F2D81A8		 MOVE.W	   STATIC.+442-32768(A5),-(A7)	         BIGSTR00002454 4EB900000000		 JSR	   C.MVFR
0000245A 3200			 MOVE.W	   D0,D1
0000245C 0C410190		 CMPI.W	   #400,D1			         $190
00002460 6F04			 BLE.S	   X.1.176(PC)
00002462 323C0190		 MOVE.W	   #400,D1			         $190
00002466 3B4181A8     X.1.176	 MOVE.W	   D1,STATIC.+442-32768(A5)	         BIGSTR
0000246A 486D81AA		 PEA	   STATIC.+442-32766(A5)	         BIGSTR
0000246E 3F3C0190		 MOVE.W	   #400,-(A7)			         $190
00002472 486EFD82		 PEA	   -638(A6)			         $FFFFFD82
00002476 3F00			 MOVE.W	   D0,-(A7)
00002478 4EB900000000		 JSR	   C.MVFF
		      *							       LINE 250
0000247E 7000			 MOVEQ	   #0,D0			         $0
00002480 302D81A8		 MOVE.W	   STATIC.+442-32768(A5),D0	         BIGSTR
00002484 90BC00000000		 SUB.L	   #0,D0			         $0
0000248A 0C800000007F		 CMPI.L	   #127,D0			         $7F
00002490 6C06			 BGE.S	   X.1.178(PC)
00002492 4EB900000000 X.1.177	 JSR	   E.SUBSTR
00002498 3B7C007F81A8 X.1.178	 MOVE.W	   #127,STATIC.+442-32768(A5)	         $7F  BIGSTR
0000249E 486D81AA		 PEA	   STATIC.+442-32766(A5)	         BIGSTR
000024A2 3F3C0190		 MOVE.W	   #400,-(A7)			         $190
000024A6 486D81AA		 PEA	   STATIC.+442-32766(A5)	         BIGSTR
000024AA 707F			 MOVEQ	   #127,D0			         $7F
000024AC 3F00			 MOVE.W	   D0,-(A7)
000024AE 4EB900000000		 JSR	   C.MVFF
		      *							       LINE 251
000024B4 302D81A8		 MOVE.W	   STATIC.+442-32768(A5),D0	         BIGSTR
000024B8 7200			 MOVEQ	   #0,D1			         $0
000024BA 322D81A8		 MOVE.W	   STATIC.+442-32768(A5),D1	         BIGSTR
000024BE 92BC00000000		 SUB.L	   #0,D1			         $0
000024C4 0C810000001A		 CMPI.L	   #26,D1			         $1A
000024CA 6C06			 BGE.S	   X.1.180(PC)
000024CC 4EB900000000 X.1.179	 JSR	   E.SUBSTR
000024D2 D06D81A8     X.1.180	 ADD.W	   STATIC.+442-32768(A5),D0	         BIGSTR
000024D6 D06D81A8		 ADD.W	   STATIC.+442-32768(A5),D0	         BIGSTR
000024DA D07C001A		 ADD.W	   #26,D0			         $1A
000024DE 486EFD82		 PEA	   -638(A6)			         $FFFFFD82
000024E2 3F3C0190		 MOVE.W	   #400,-(A7)			         $190
000024E6 486D81AA		 PEA	   STATIC.+442-32766(A5)	         BIGSTR
000024EA 3F2D81A8		 MOVE.W	   STATIC.+442-32768(A5),-(A7)	         BIGSTR
000024EE 4EB900000000		 JSR	   C.MVFF
000024F4 486D81AA		 PEA	   STATIC.+442-32766(A5)	         BIGSTR
000024F8 721A			 MOVEQ	   #26,D1			         $1A
000024FA 3F01			 MOVE.W	   D1,-(A7)
000024FC 4EB900000000		 JSR	   C.MVFR00002502 486D81AA		 PEA	   STATIC.+442-32766(A5)	         BIGSTR
00002506 3F2D81A8		 MOVE.W	   STATIC.+442-32768(A5),-(A7)	         BIGSTR
0000250A 4EB900000000		 JSR	   C.MVFR
00002510 486D81AA		 PEA	   STATIC.+442-32766(A5)	         BIGSTR
00002514 3F2D81A8		 MOVE.W	   STATIC.+442-32768(A5),-(A7)	         BIGSTR
00002518 4EB900000000		 JSR	   C.MVFR
0000251E 3200			 MOVE.W	   D0,D1
00002520 0C410190		 CMPI.W	   #400,D1			         $190
00002524 6F04			 BLE.S	   X.1.181(PC)
00002526 323C0190		 MOVE.W	   #400,D1			         $190
0000252A 3B4181A8     X.1.181	 MOVE.W	   D1,STATIC.+442-32768(A5)	         BIGSTR
0000252E 486D81AA		 PEA	   STATIC.+442-32766(A5)	         BIGSTR
00002532 3F3C0190		 MOVE.W	   #400,-(A7)			         $190
00002536 486EFD82		 PEA	   -638(A6)			         $FFFFFD82
0000253A 3F00			 MOVE.W	   D0,-(A7)
0000253C 4EB900000000		 JSR	   C.MVFF
		      *							       LINE 252
00002542 7000			 MOVEQ	   #0,D0			         $0
00002544 302D81A8		 MOVE.W	   STATIC.+442-32768(A5),D0	         BIGSTR
00002548 90BC00000000		 SUB.L	   #0,D0			         $0
0000254E 0C800000012B		 CMPI.L	   #299,D0			         $12B
00002554 6C06			 BGE.S	   X.1.183(PC)
00002556 4EB900000000 X.1.182	 JSR	   E.SUBSTR
0000255C 486EFDDC     X.1.183	 PEA	   -548(A6)			         $FFFFFDDC
00002560 3F3C0135		 MOVE.W	   #309,-(A7)			         $135
00002564 486D81AA		 PEA	   STATIC.+442-32766(A5)	         BIGSTR
00002568 3F3C012B		 MOVE.W	   #299,-(A7)			         $12B
0000256C 4EB900000000		 JSR	   C.MVFF
00002572 487AE1E2		 PEA	   K.72(PC)			         CODE.+$756
00002576 700A			 MOVEQ	   #10,D0			         $A
00002578 3F00			 MOVE.W	   D0,-(A7)
0000257A 4EB900000000		 JSR	   C.MVFR
00002580 3B7C013581A8		 MOVE.W	   #309,STATIC.+442-32768(A5)	         $135  BIGSTR
00002586 486D81AA		 PEA	   STATIC.+442-32766(A5)	         BIGSTR
0000258A 3F3C0190		 MOVE.W	   #400,-(A7)			         $190
0000258E 486EFDDC		 PEA	   -548(A6)			         $FFFFFDDC
00002592 3F3C0135		 MOVE.W	   #309,-(A7)			         $135
00002596 4EB900000000		 JSR	   C.MVFF
		      *							       LINE 253
0000259C 41ED81A8		 LEA	   STATIC.+442-32768(A5),A0	         BIGSTR
000025A0 2D48FFDA		 MOVE.L	   A0,-38(A6)			         $FFFFFFDA
000025A4 41EEFF10		 LEA	   -240(A6),A0			         $FFFFFF10
000025A8 2D48FFD6		 MOVE.L	   A0,-42(A6)			         $FFFFFFD6
000025AC 6100DC08		 BSR.L	   B.7(PC)			         CASE_PASSED = CODE.+$
000025B0 4A2EFF10		 TST.B	   -240(A6)			         $FFFFFF10000025B4 660C			 BNE.S	   L.1.136(PC)
		      *							       LINE 254
000025B6 2D7C00000040 L.1.135	 MOVE.L	   #64,-76(A6)			         $40  $FFFFFFB4
	 FFB4
000025BE 6100DA52		 BSR.L	   B.3(PC)			         ERROR = CODE.+$12
		      *							       LINE 256
000025C2 41ED8346     L.1.136	 LEA	   STATIC.+856-32768(A5),A0	         VS1
000025C6 20FC000A7374		 MOVE.L	   #684916,(A0)+		         $A7374
000025CC 20FC72696E67		 MOVE.L	   #1919512167,(A0)+		         $72696E67
000025D2 20FC31302E2E		 MOVE.L	   #825241134,(A0)+		         $31302E2E
		      *							       LINE 257
000025D8 7063			 MOVEQ	   #99,D0			         $63
000025DA 1B408365		 MOVE.B	   D0,STATIC.+887-32768(A5)	         CH1
		      *							       LINE 258
000025DE 3B7C002781A8		 MOVE.W	   #39,STATIC.+442-32768(A5)	         $27  BIGSTR
000025E4 486D81AA		 PEA	   STATIC.+442-32766(A5)	         BIGSTR
000025E8 3F3C0190		 MOVE.W	   #400,-(A7)			         $190
000025EC 487AE172		 PEA	   K.73(PC)			         CODE.+$760
000025F0 7027			 MOVEQ	   #39,D0			         $27
000025F2 3F00			 MOVE.W	   D0,-(A7)
000025F4 4EB900000000		 JSR	   C.MVFF
		      *							       LINE 259
000025FA 707B			 MOVEQ	   #123,D0			         $7B
000025FC 2B40833A		 MOVE.L	   D0,STATIC.+844-32768(A5)	         I
		      *							       LINE 260
00002600 41ED8358		 LEA	   STATIC.+874-32768(A5),A0	         VS2
00002604 20FC000A5354		 MOVE.L	   #676692,(A0)+		         $A5354
0000260A 20FC52494E47		 MOVE.L	   #1380535879,(A0)+		         $52494E47
00002610 20FC2E31302E		 MOVE.L	   #774975534,(A0)+		         $2E31302E
		      *							       LINE 261
00002616 7000			 MOVEQ	   #0,D0			         $0
00002618 1B408364		 MOVE.B	   D0,STATIC.+886-32768(A5)	         BOOL
		      *							       LINE 262
0000261C 1D6D8364FFD0		 MOVE.B	   STATIC.+886-32768(A5),-48(A6)         BOOL  $FFFFFFD0
00002622 41ED8358		 LEA	   STATIC.+874-32768(A5),A0	         VS2
00002626 2D48FFCC		 MOVE.L	   A0,-52(A6)			         $FFFFFFCC
0000262A 2D6D833AFFC8		 MOVE.L	   STATIC.+844-32768(A5),-56(A6)         I  $FFFFFFC8
00002630 41ED81A8		 LEA	   STATIC.+442-32768(A5),A0	         BIGSTR
00002634 2D48FFC4		 MOVE.L	   A0,-60(A6)			         $FFFFFFC4
00002638 1D6D8365FFC2		 MOVE.B	   STATIC.+887-32768(A5),-62(A6)         CH1  $FFFFFFC2
0000263E 302D8346		 MOVE.W	   STATIC.+856-32768(A5),D0	         VS1
00002642 0C40000A		 CMPI.W	   #10,D0			         $A
00002646 6F04			 BLE.S	   X.1.184(PC)
00002648 303C000A		 MOVE.W	   #10,D0			         $A
0000264C 3D40FF06     X.1.184	 MOVE.W	   D0,-250(A6)			         $FFFFFF0600002650 486EFF08		 PEA	   -248(A6)			         $FFFFFF08
00002654 3F2EFF06		 MOVE.W	   -250(A6),-(A7)		         $FFFFFF06
00002658 486D8348		 PEA	   STATIC.+856-32766(A5)	         VS1
0000265C 3F2D8346		 MOVE.W	   STATIC.+856-32768(A5),-(A7)	         VS1
00002660 4EB900000000		 JSR	   C.MVFF
00002666 41EEFF06		 LEA	   -250(A6),A0			         $FFFFFF06
0000266A 2D48FFBE		 MOVE.L	   A0,-66(A6)			         $FFFFFFBE
0000266E 6100DA38		 BSR.L	   B.5(PC)			         MANY_PARAMS = CODE.+$
		      *							       LINE 263
00002672 3B7C000F8346		 MOVE.W	   #15,STATIC.+856-32768(A5)	         $F  VS1
00002678 486D8348		 PEA	   STATIC.+856-32766(A5)	         VS1
0000267C 700F			 MOVEQ	   #15,D0			         $F
0000267E 3F00			 MOVE.W	   D0,-(A7)
00002680 487AE106		 PEA	   K.74(PC)			         CODE.+$788
00002684 700F			 MOVEQ	   #15,D0			         $F
00002686 3F00			 MOVE.W	   D0,-(A7)
00002688 4EB900000000		 JSR	   C.MVFF
		      *							       LINE 264
0000268E 7000			 MOVEQ	   #0,D0			         $0
00002690 302D8346		 MOVE.W	   STATIC.+856-32768(A5),D0	         VS1
00002694 5780			 SUBQ.L	   #3,D0			         $3
00002696 0C800000000A		 CMPI.L	   #10,D0			         $A
0000269C 6C06			 BGE.S	   X.1.186(PC)
0000269E 4EB900000000 X.1.185	 JSR	   E.SUBSTR
000026A4 486EFF08     X.1.186	 PEA	   -248(A6)			         $FFFFFF08
000026A8 700A			 MOVEQ	   #10,D0			         $A
000026AA 3F00			 MOVE.W	   D0,-(A7)
000026AC 486D834B		 PEA	   STATIC.+856-32763(A5)	         VS1
000026B0 700A			 MOVEQ	   #10,D0			         $A
000026B2 3F00			 MOVE.W	   D0,-(A7)
000026B4 4EB900000000		 JSR	   C.MVFFP
000026BA 41EEFF08		 LEA	   -248(A6),A0			         $FFFFFF08
000026BE 2D48FFD2		 MOVE.L	   A0,-46(A6)			         $FFFFFFD2
000026C2 6100DA9C		 BSR.L	   B.6(PC)			         SUBSTR_AS_PARAM = COD
		      *							       LINE 266
000026C6 2D7C00000008		 MOVE.L	   #8,-4(A6)			         $8  $FFFFFFFC
	 FFFC
000026CE 3D7C0003FF0C		 MOVE.W	   #3,-244(A6)			         $3  $FFFFFF0C
000026D4 486EFF0E		 PEA	   -242(A6)			         $FFFFFF0E
000026D8 3F2EFF0C		 MOVE.W	   -244(A6),-(A7)		         $FFFFFF0C
000026DC 487AE0BA		 PEA	   K.75(PC)			         CODE.+$798
000026E0 7003			 MOVEQ	   #3,D0			         $3
000026E2 3F00			 MOVE.W	   D0,-(A7)
000026E4 4EB900000000		 JSR	   C.MVFF
000026EA 41EEFF0C		 LEA	   -244(A6),A0			         $FFFFFF0C000026EE 2D48FFF8		 MOVE.L	   A0,-8(A6)			         $FFFFFFF8
000026F2 3D7C0003FFF6		 MOVE.W	   #3,-10(A6)			         $3  $FFFFFFF6
000026F8 3D7C0005FF04		 MOVE.W	   #5,-252(A6)			         $5  $FFFFFF04
000026FE 486EFF06		 PEA	   -250(A6)			         $FFFFFF06
00002702 3F2EFF04		 MOVE.W	   -252(A6),-(A7)		         $FFFFFF04
00002706 487AE094		 PEA	   K.76(PC)			         CODE.+$79C
0000270A 7005			 MOVEQ	   #5,D0			         $5
0000270C 3F00			 MOVE.W	   D0,-(A7)
0000270E 4EB900000000		 JSR	   C.MVFF
00002714 41EEFF04		 LEA	   -252(A6),A0			         $FFFFFF04
00002718 2D48FFF2		 MOVE.L	   A0,-14(A6)			         $FFFFFFF2
0000271C 3D7C0005FFF0		 MOVE.W	   #5,-16(A6)			         $5  $FFFFFFF0
00002722 3D7C0005FEFC		 MOVE.W	   #5,-260(A6)			         $5  $FFFFFEFC
00002728 486EFEFE		 PEA	   -258(A6)			         $FFFFFEFE
0000272C 3F2EFEFC		 MOVE.W	   -260(A6),-(A7)		         $FFFFFEFC
00002730 487AE070		 PEA	   K.77(PC)			         CODE.+$7A2
00002734 7005			 MOVEQ	   #5,D0			         $5
00002736 3F00			 MOVE.W	   D0,-(A7)
00002738 4EB900000000		 JSR	   C.MVFF
0000273E 41EEFEFC		 LEA	   -260(A6),A0			         $FFFFFEFC
00002742 2D48FFEC		 MOVE.L	   A0,-20(A6)			         $FFFFFFEC
00002746 3D7C0005FFEA		 MOVE.W	   #5,-22(A6)			         $5  $FFFFFFEA
0000274C 3D7C0007FEF2		 MOVE.W	   #7,-270(A6)			         $7  $FFFFFEF2
00002752 486EFEF4		 PEA	   -268(A6)			         $FFFFFEF4
00002756 3F2EFEF2		 MOVE.W	   -270(A6),-(A7)		         $FFFFFEF2
0000275A 487AE04C		 PEA	   K.78(PC)			         CODE.+$7A8
0000275E 7007			 MOVEQ	   #7,D0			         $7
00002760 3F00			 MOVE.W	   D0,-(A7)
00002762 4EB900000000		 JSR	   C.MVFF
00002768 41EEFEF2		 LEA	   -270(A6),A0			         $FFFFFEF2
0000276C 2D48FFE6		 MOVE.L	   A0,-26(A6)			         $FFFFFFE6
00002770 3D7C0007FFE4		 MOVE.W	   #7,-28(A6)			         $7  $FFFFFFE4
00002776 3D7C0003FEEC		 MOVE.W	   #3,-276(A6)			         $3  $FFFFFEEC
0000277C 486EFEEE		 PEA	   -274(A6)			         $FFFFFEEE
00002780 3F2EFEEC		 MOVE.W	   -276(A6),-(A7)		         $FFFFFEEC
00002784 487AE02A		 PEA	   K.79(PC)			         CODE.+$7B0
00002788 7003			 MOVEQ	   #3,D0			         $3
0000278A 3F00			 MOVE.W	   D0,-(A7)
0000278C 4EB900000000		 JSR	   C.MVFF
00002792 41EEFEEC		 LEA	   -276(A6),A0			         $FFFFFEEC
00002796 2D48FFE0		 MOVE.L	   A0,-32(A6)			         $FFFFFFE0
0000279A 3D7C0003FFDE		 MOVE.W	   #3,-34(A6)			         $3  $FFFFFFDE
000027A0 6100DB2E		 BSR.L	   B.8(PC)			         GORY = CODE.+$2D0
		      *							       LINE 268
000027A4 7015			 MOVEQ	   #21,D0			         $15000027A6 2B40833A		 MOVE.L	   D0,STATIC.+844-32768(A5)	         I
		      *							       LINE 269
000027AA 7013			 MOVEQ	   #19,D0			         $13
000027AC 2B40833E		 MOVE.L	   D0,STATIC.+848-32768(A5)	         J
		      *							       LINE 270
000027B0 202D833A		 MOVE.L	   STATIC.+844-32768(A5),D0	         I
000027B4 D0AD833E		 ADD.L	   STATIC.+848-32768(A5),D0	         J
000027B8 4A80			 TST.L	   D0
000027BA 6C06			 BGE.S	   X.1.187(PC)
000027BC 4EB900000000 X.1.188	 JSR	   E.VALUE
000027C2 727F	      X.1.187	 MOVEQ	   #127,D1			         $7F
000027C4 B081			 CMP.L	   D1,D0
000027C6 6EF4			 BGT.S	   X.1.188(PC)
000027C8 486D8000		 PEA	   STATIC.+18-32768(A5)		         T
000027CC 7210			 MOVEQ	   #16,D1			         $10
000027CE 3F01			 MOVE.W	   D1,-(A7)
000027D0 1F00			 MOVE.B	   D0,-(A7)
000027D2 4EB900000000		 JSR	   C.MVCFP
		      *							       LINE 271
000027D8 7028			 MOVEQ	   #40,D0			         $28
000027DA 1F00			 MOVE.B	   D0,-(A7)
000027DC 486D8000		 PEA	   STATIC.+18-32768(A5)		         T
000027E0 7010			 MOVEQ	   #16,D0			         $10
000027E2 3F00			 MOVE.W	   D0,-(A7)
000027E4 4EB900000000		 JSR	   C.CPFC
000027EA 670C			 BEQ.S	   L.1.138(PC)
		      *							       LINE 271 (2)
000027EC 2D7C00000041 L.1.137	 MOVE.L	   #65,-76(A6)			         $41  $FFFFFFB4
	 FFB4
000027F4 6100D81C		 BSR.L	   B.3(PC)			         ERROR = CODE.+$12
		      *							       LINE 272
000027F8 202D0000     L.1.138	 MOVE.L	   TTYOUTPUT-32768(A5),D0	         TTYOUTPUT
000027FC 4A80			 TST.L	   D0
000027FE 6606			 BNE.S	   X.1.189(PC)
00002800 4EB900000000		 JSR	   E.FILE
00002806 720A	      X.1.189	 MOVEQ	   #10,D1			         $A
00002808 3F01			 MOVE.W	   D1,-(A7)
0000280A 7204			 MOVEQ	   #4,D1			         $4
0000280C 3F01			 MOVE.W	   D1,-(A7)
0000280E 487ADFA4		 PEA	   K.80(PC)			         CODE.+$7B4
00002812 2F00			 MOVE.L	   D0,-(A7)
00002814 4EB900000000		 JSR	   T.WRITE
0000281A 2F00			 MOVE.L	   D0,-(A7)
0000281C 4EB900000000		 JSR	   T.WRTLN
		      *							       LINE 27300002822 4EB900000000		 JSR	   M.STOP
				 XREF	   TTYOUTPU
				 XREF	   E.FILE
				 XREF	   T.WRITE
				 XREF	   T.WRTLN
				 XREF	   T.BREAK
				 XREF	   C.CPFF
				 XREF	   E.SUBSTR
				 XREF	   M.DYNTMB
				 XREF	   C.MVFF
				 XREF	   C.MVFR
				 XREF	   M.ENTRY
				 XREF	   T.REWRIT
				 XREF	   H.NEW
				 XREF	   E.PTR
				 XREF	   C.MVFFP
				 XREF	   C.MVFFU
				 XREF	   C.MVCRL
				 XREF	   C.MVFFPU
				 XREF	   E.INDEX
				 XREF	   E.VALUE
				 XREF	   C.MVCR
				 XREF	   C.MVFRL
				 XREF	   C.MVCFP
				 XREF	   C.CPFC
				 XREF	   C.MVFFL
				 XREF	   C.MVFRU
				 XREF	   M.STOP
		      *
		      *		 Code area:      000024C6 bytes (9414 decimal)
		      *		 Constant area:  00000362 bytes (866 decimal)
		      *		 Static area:    0000037A bytes (890 decimal)
		      *
	 00000000		 END
@~