       File DSK:EXE012.PAS[31024,274425]   Compiled 10-Aug-82 10:53   Pascal, Version 2A(440)-1

       File DSK:EXE012.PAS[31024,274425]   Compiled 10-Aug-82 10:53   Pascal, Version 2A(440)-1

       File DSK:EXE012.PAS[31024,274425]   Compiled 10-Aug-82 10:53   Pascal, Version 2A(440)-1

       File DSK:EXE012.PAS[31024,274425]   Compiled 10-Aug-82 10:53   Pascal, Version 2A(440)-1





			    $$$$$   $   $   $$$$$     $$      $      $$$ 
			    $       $   $   $        $  $    $$     $   $
			    $        $ $    $        $  $     $         $
			    $$$       $     $$$      $  $     $      $$$ 
			    $        $ $    $        $  $     $     $    
			    $       $   $   $        $  $     $     $    
			    $$$$$   $   $   $$$$$     $$     $$$    $$$$$


				    DSK:EXE012.PAS[31024,274425]


Options in effect: 

	CHECK, NOSPECIAL, NOMAP, NOSYMBOLS, NOCALLS, ASSEMBLY, NOXREF, TRACE, QBLOCKS, NOOPTIMIZE, 
	CODE, NODEBUG, FINISH, NOGLOBAL, NOMAINSEG, NOOVERLAY, AUTOQUICK, SOURCE, NOSTANDARD, 
	LENGTH (45), WIDTH (102), NOEXTLENGTH, STORAGE (2048), ALLOC (0), ENABLE(M68)




       File DSK:EXE012.PAS[31024,274425]   Compiled 10-Aug-82 10:53   Pascal, Version 2A(440)-1

       File DSK:EXE012.PAS[31024,274425]   Compiled 10-Aug-82 10:53   Pascal, Version 2A(440)-1

       File DSK:EXE012.PAS[31024,274425]   Compiled 10-Aug-82 10:53   Pascal, Version 2A(440)-1

       File DSK:EXE012.PAS[31024,274425]   Compiled 10-Aug-82 10:53   Pascal, Version 2A(440)-1
       File DSK:EXE012.PAS[31024,274425]   Compiled 10-Aug-82 10:53   Pascal, Version 2A(440)-1

       File DSK:EXE012.PAS[31024,274425]   Compiled 10-Aug-82 10:53   Pascal, Version 2A(440)-1

       File DSK:EXE012.PAS[31024,274425]   Compiled 10-Aug-82 10:53   Pascal, Version 2A(440)-1

       File DSK:EXE012.PAS[31024,274425]   Compiled 10-Aug-82 10:53   Pascal, Version 2A(440)-1





			    $$$$$   $   $   $$$$$     $$      $      $$$ 
			    $       $   $   $        $  $    $$     $   $
			    $        $ $    $        $  $     $         $
			    $$$       $     $$$      $  $     $      $$$ 
			    $        $ $    $        $  $     $     $    
			    $       $   $   $        $  $     $     $    
			    $$$$$   $   $   $$$$$     $$     $$$    $$$$$


				    DSK:EXE012.PAS[31024,274425]


Options in effect: 

	CHECK, NOSPECIAL, NOMAP, NOSYMBOLS, NOCALLS, ASSEMBLY, NOXREF, TRACE, QBLOCKS, NOOPTIMIZE, 
	CODE, NODEBUG, FINISH, NOGLOBAL, NOMAINSEG, NOOVERLAY, AUTOQUICK, SOURCE, NOSTANDARD, 
	LENGTH (45), WIDTH (102), NOEXTLENGTH, STORAGE (2048), ALLOC (0), ENABLE(M68)




       File DSK:EXE012.PAS[31024,274425]   Compiled 10-Aug-82 10:53   Pascal, Version 2A(440)-1

       File DSK:EXE012.PAS[31024,274425]   Compiled 10-Aug-82 10:53   Pascal, Version 2A(440)-1

       File DSK:EXE012.PAS[31024,274425]   Compiled 10-Aug-82 10:53   Pascal, Version 2A(440)-1

       File DSK:EXE012.PAS[31024,274425]   Compiled 10-Aug-82 10:53   Pascal, Version 2A(440)-1
MODULE  EXE012       DSK:EXE012.PAS[31024,274425]                                      10-Aug-82 10:53
SECTION 0                                                                                       PAGE 1

    1	program EXE012;
    2	
    3	$TITLE Test typed I/O.
    4	
    5	(* This program is intended to be a test of typed I/O.  For each of several
    6	   types, this program tests whether values placed in a file of that type
    7	   can be retrieved from the file.  For this part of the test,
    8	   the following general method is used:  one value is placed into a
    9	   file by "put", and two by "write".  The first value is retrieved from the
   10	   file by "reset", the second by "get", the third by "read".
   11	 
   12	   It is important to note that this program will not find any pair of errors
   13	   which are each other's inverses, and that this program does not leave a
   14	   file on disk and test whether it is correctly read back by another 
   15	   program. 
   16	
   17	   In the next part of the test, random file access is tested by writing, to
   18	   each item of a file of type integer, for 100 items, its item number,
   19	   and reading back these items in random order to see whether the value of
   20	   each item is its item number.
   21	
   22	   This part of the test also tests the functions 'extent' and 'cursor', and
   23	   checks whether 'eof' behaves properly on a file which has been opened
   24	   for random access.
   25	   The program then tests other aspects of random access, and the 'empty'
   26	   and 'scratch' functions. *)
   27	
   28	type
   29	   recordtype = record
   30	      realfield : real;
   31	      integerfield : integer;
   32	      boolfield : boolean;
   33	      charfield : char;
   34	      end; (* record *)
   35	
   36	public var
   37	   realfile : file of real;
   38	   realvariable : real;
   39	   integerfile : file of integer;
   40	   integervariable : integer;
   41	   booleanfile : file of boolean;
   42	   booleanvariable : boolean;MODULE  EXE012       Test typed I/O.                                                   10-Aug-82 10:53
SECTION 0                                                                                       PAGE 2

   43	   stringfile : file of string [10];
   44	   stringvariable : string [10];
   45	   charfile : file of char;
   46	   charvariable : char;
   47	   arrayfile : file of array [1..10] of integer;
   48	   arrayvariable : array [1..10] of integer;
   49	   index : 1..100;
   50	   recordfile : file of recordtype;
   51	   recordvariable : recordtype;
   52	   seekset : set of 1..100;
   53	   real_filename : file_name;
   54	   filestatus : io_status;MODULE  EXE012       Test typed I/O.                                                   10-Aug-82 10:53
SECTION 1            Error.                                                                     PAGE 3

    2	   procedure error (error_number : integer);
    3	
    4	   begin
    5	   writeln (tty, 'Error ', error_number);
    6	   break (tty);
    7	   end;MODULE  EXE012       Test typed I/O.                                                   10-Aug-82 10:53
SECTION 2            Test file of reals.                                                        PAGE 4

    2	procedure testrealfile;
    3	 
    4	   begin
    5	   rewrite (realfile, 'test.tmp');
    6	   real_filename := filename (realfile);
    7	   realfile^ := 123.456e12;
    8	   put (realfile);
    9	   write (realfile, 987.654e3);
   10	   write (realfile, 56.789e2);
   11	   close (realfile);
   12	   reset (realfile, real_filename);
   13	   if realfile^ <> 123.456e12 then
   14	      begin
   15	      error (101);
   16	      writeln (tty, 'Wrong value in realfile: expected: ', 123.456e12,
   17	              ' got: ', realfile^);
   18	      writeln (tty, 'Value placed in file by "put", retrieved by "reset"');
   19	      end;
   20	   get (realfile);
   21	   if realfile^ <> 987.654e3 then
   22	      begin
   23	      error (102);
   24	      writeln (tty, 'Wrong value in realfile: expected: ', 987.654e3,
   25	             ' got: ', realfile^);
   26	      writeln (tty, 'Value placed in file by "write", retrieved by "get"');
   27	      end;
   28	   read (realfile, realvariable);
   29	   read (realfile, realvariable);
   30	   if realvariable <> 56.789e2 then
   31	      begin
   32	      error (103);
   33	      writeln (tty, 'Wrong value in realfile: expected: ', 56.789e2,
   34	             ' got: ', realvariable);
   35	      writeln (tty, 'Value placed in file by "write", retrieved by "read"');
   36	      end;
   37	   if not eof (realfile) then
   38	      begin
   39	      error (104);
   40	      writeln (tty, 'Didn''t get end of file on realfile.');
   41	      end;
   42	   close (realfile);
   43	   end;MODULE  EXE012       Test typed I/O.                                                   10-Aug-82 10:53
SECTION 3            Test file of integers.                                                     PAGE 5

    2	procedure testintegerfile;
    3	
    4	   begin
    5	   rewrite (integerfile, real_filename);
    6	   integerfile^ := 123456;
    7	   put (integerfile);
    8	   write (integerfile, 987654);
    9	   write (integerfile, 56789);
   10	   close (integerfile);
   11	   reset (integerfile, real_filename);
   12	   if integerfile^ <> 123456 then
   13	      begin
   14	      error (201);
   15	      writeln (tty, 'Wrong value in integerfile: expected: ', 123456,
   16	                    ' got: ', integerfile^);
   17	      writeln (tty, 'Value placed in file by "put", retrieved by "reset"');
   18	      end;
   19	   get (integerfile);
   20	   if integerfile^ <> 987654 then
   21	      begin
   22	      error (202);
   23	      writeln (tty, 'Wrong value in integerfile: expected: ', 987654,
   24	                 ' got: ', integerfile^);
   25	      writeln (tty, 'Value placed in file by "write", retrieved by "get"');
   26	      end;
   27	   read (integerfile, integervariable);
   28	   read (integerfile, integervariable);
   29	   if integervariable <> 56789 then
   30	      begin
   31	      error (203);
   32	      writeln (tty, 'Wrong value in integerfile: expected: ', 56789,
   33	                ' got: ', integervariable);
   34	      writeln (tty, 'Value placed in file by "write", retrieved by "read"');
   35	      end;
   36	   if not eof (integerfile) then
   37	      begin
   38	      error (204);
   39	      writeln (tty, 'Didn''t get end of file on integerfile.');
   40	      end;
   41	   close (integerfile);
   42	   end;MODULE  EXE012       Test typed I/O.                                                   10-Aug-82 10:53
SECTION 4            Test file of booleans.                                                     PAGE 6

    2	procedure testbooleanfile;
    3	
    4	   begin
    5	   rewrite (booleanfile, real_filename);
    6	   booleanfile^ := true;
    7	   put (booleanfile);
    8	   write (booleanfile, false);
    9	   write (booleanfile, true);
   10	   close (booleanfile);
   11	   reset (booleanfile, real_filename);
   12	   if booleanfile^ <> true then
   13	      begin
   14	      error (301);
   15	      writeln (tty, 'Wrong value in booleanfile: expected: ', true,
   16	                ' got: ', booleanfile^);
   17	      writeln (tty, 'Value placed in file by "put", retrieved by "reset"');
   18	      end;
   19	   get (booleanfile);
   20	   if booleanfile^ <> false then
   21	      begin
   22	      error (302);
   23	      writeln (tty, 'Wrong value in booleanfile: expected: ', false,
   24	           ' got: ', booleanfile^);
   25	      writeln (tty, 'Value placed in file by "write", retrieved by "get"');
   26	      end;
   27	   read (booleanfile, booleanvariable);
   28	   read (booleanfile, booleanvariable);
   29	   if booleanvariable <> true then
   30	      begin
   31	      error (303);
   32	      writeln (tty, 'Wrong value in booleanfile: expected: ', true,
   33	                  ' got: ', booleanvariable);
   34	      writeln (tty, 'Value placed in file by "write", retrieved by "read"');
   35	      end;
   36	   if not eof (booleanfile) then
   37	      begin
   38	      error (304);
   39	      writeln (tty, 'Didn''t get end of file on booleanfile.');
   40	      end;
   41	   close (booleanfile);
   42	   end;MODULE  EXE012       Test typed I/O.                                                   10-Aug-82 10:53
SECTION 5            Test file of strings.                                                      PAGE 7

    2	procedure teststringfile;
    3	
    4	   begin
    5	   rewrite (stringfile, real_filename);
    6	   stringfile^ := 'the quick ';
    7	   put (stringfile);
    8	   write (stringfile, 'brown fox ');
    9	   write (stringfile, 'jumped ove');
   10	   close (stringfile);
   11	   reset (stringfile, real_filename);
   12	   if stringfile^ <> 'the quick ' then
   13	      begin
   14	      error (401);
   15	      writeln (tty, 'Wrong value in stringfile: expected: ', 'the quick ',
   16	                    ' got: ', stringfile^);
   17	      writeln (tty, 'Value placed in file by "put", retrieved by "reset"');
   18	      end;
   19	   get (stringfile);
   20	   if stringfile^ <> 'brown fox ' then
   21	      begin
   22	      error (402);
   23	      writeln (tty, 'Wrong value in stringfile: expected: ', 'brown fox ',
   24	                 ' got: ', stringfile^);
   25	      writeln (tty, 'Value placed in file by "write", retrieved by "get"');
   26	      end;
   27	   read (stringfile, stringvariable);
   28	   read (stringfile, stringvariable);
   29	   if stringvariable <> 'jumped ove' then
   30	      begin
   31	      error (403);
   32	      writeln (tty, 'Wrong value in stringfile: expected: ', 'jumped ove',
   33	                 ' got: ', stringvariable);
   34	      writeln (tty, 'Value placed in file by "write", retrieved by "read"');
   35	      end;
   36	   if not eof (stringfile) then
   37	      begin
   38	      error (404);
   39	      writeln (tty, 'Didn''t get end of file on stringfile.');
   40	      end;
   41	   close (stringfile);
   42	   end;MODULE  EXE012       Test typed I/O.                                                   10-Aug-82 10:53
SECTION 6            Test file of characters.                                                   PAGE 8

    2	procedure testcharfile;
    3	
    4	   begin
    5	   rewrite (charfile, real_filename);
    6	   charfile^ := 'a';
    7	   put (charfile);
    8	   write (charfile, 'b');
    9	   write (charfile, 'c');
   10	   close (charfile);
   11	   reset (charfile, real_filename);
   12	   if charfile^ <> 'a' then
   13	      begin
   14	      error (501);
   15	      writeln (tty, 'Wrong value in charfile: expected: ', 'a',
   16	              ' got: ', charfile^);
   17	      writeln (tty, 'Value placed in file by "put", retrieved by "reset"');
   18	      end;
   19	   get (charfile);
   20	   if charfile^ <> 'b' then
   21	      begin
   22	      error (502);
   23	      writeln (tty, 'Wrong value in charfile: expected: ', 'b',
   24	           ' got: ', charfile^);
   25	      writeln (tty, 'Value placed in file by "write", retrieved by "get"');
   26	      end;
   27	   read (charfile, charvariable);
   28	   read (charfile, charvariable);
   29	   if charvariable <> 'c' then
   30	      begin
   31	      error (503);
   32	      writeln (tty, 'Wrong value in charfile: expected: ', 'c',
   33	                 ' got: ', charvariable);
   34	      writeln (tty, 'Value placed in file by "write", retrieved by "read"');
   35	      end;
   36	   if not eof (charfile) then
   37	      begin
   38	      error (504);
   39	      writeln (tty, 'Didn''t get end of file on charfile.');
   40	      end;
   41	   close (charfile);
   42	   end;MODULE  EXE012       Test typed I/O.                                                   10-Aug-82 10:53
SECTION 7            Test file of arrays.                                                       PAGE 9

    2	procedure testarrayfile;
    3	
    4	   begin
    5	   rewrite (arrayfile, real_filename);
    6	   for index := 1 to 10 do
    7	      arrayfile^ [index] := index;
    8	   put (arrayfile);
    9	   for index := 1 to 10 do
   10	      arrayvariable [index] := 10 - index;
   11	   write (arrayfile, arrayvariable);
   12	   for index := 10 downto 1 do
   13	      arrayvariable [index] := index + 26;
   14	   write (arrayfile, arrayvariable);
   15	   close (arrayfile);
   16	   reset (arrayfile, real_filename);
   17	   for index := 1 to 10 do
   18	      begin
   19	      if arrayfile^ [index] <> index    then
   20	      begin
   21	         error (601);
   22	  writeln (tty, 'Wrong value in arrayfile: expected: ',
   23	                     index,
   24	                ' got: ', arrayfile^ [index]);
   25	    writeln (tty, 'Value placed in file by "put" ',
   26	                     'retrieved by "reset"');
   27	        end;
   28	      end; (* for *)MODULE  EXE012       Test typed I/O.                                                   10-Aug-82 10:53
SECTION 8            Test second and third arrays in file.                                     PAGE 10

    2	   get (arrayfile);
    3	   for index := 1 to 10 do
    4	      begin
    5	      if arrayfile^ [index] <> 10 - index    then
    6	      begin
    7	         error (602);
    8	  writeln (tty, 'Wrong value in arrayfile: expected: ',
    9	                     10 - index,
   10	                   ' got: ', arrayfile^ [index]);
   11	    writeln (tty, 'Value placed in file by "write" ',
   12	                   'retrieved by "get"');
   13	  end;
   14	      end; (* for *)
   15	   read (arrayfile, arrayvariable);
   16	   read (arrayfile, arrayvariable);
   17	   for index := 1 to 10 do
   18	      begin
   19	      if arrayvariable [index] <> index + 26    then
   20	   begin
   21	         error (603);
   22	  writeln (tty, 'Wrong value in arrayfile: expected: ',
   23	                     index + 26,
   24	                   ' got: ', arrayvariable [index]);
   25	         writeln (tty, 'Value placed in file by "write" ',
   26	                   'retrieved by "read"');
   27	         end;
   28	      end; (* for *)
   29	   if not eof (arrayfile) then
   30	      begin
   31	      error (604);
   32	      writeln (tty, 'Didn''t get end of file on arrayfile.');
   33	      end;
   34	   close (arrayfile);
   35	   end;MODULE  EXE012       Test typed I/O.                                                   10-Aug-82 10:53
SECTION 9            Test file of records.                                                     PAGE 11

    2	procedure testrecordfile;
    3	
    4	   begin;
    5	   rewrite (recordfile, real_filename);
    6	   recordfile^.realfield := 123.456e12;
    7	   recordfile^.integerfield := 123456;
    8	   recordfile^.boolfield := true;
    9	   recordfile^.charfield ';
   10	   put (recordfile);
   11	   recordvariable.realfield := 987.654e3;
   12	   recordvariable.integerfield := 987654;
   13	   recordvariable.boolfield := false;
   14	   recordvariable.charfield := 'b';
   15	   write (recordfile, recordvariable);
   16	   recordvariable.realfield := 56.789e2;
   17	   recordvariable.integerfield := 56789;
   18	   recordvariable.boolfield := true;
   19	   recordvariable.charfield := 'c';
   20	   write (recordfile, recordvariable);MODULE  EXE012       Test typed I/O.                                                   10-Aug-82 10:53
SECTION 10           Test first record in recordfile.                                          PAGE 12

    2	   close (recordfile);
    3	   reset (recordfile, real_filename);
    4	   if recordfile^.realfield <> 123.456e12 then
    5	      begin
    6	      error (701);
    7	      writeln (tty, 'Wrong value in recordfile: expected: ', 123.456e12,
    8	                    ' got: ', recordfile^.realfield);
    9	      writeln (tty, 'Value placed in file by "put", retrieved by "reset"');
   10	      end;
   11	   if recordfile^.integerfield <> 123456 then
   12	      begin
   13	      error (702);
   14	      writeln (tty, 'Wrong value in recordfile: expected: ', 123456,
   15	              ' got: ', recordfile^.integerfield);
   16	      writeln (tty, 'Value placed in file by "put", retrieved by "reset"');
   17	      end;
   18	   if recordfile^.boolfield <> true then
   19	      begin
   20	      error (703);
   21	      writeln (tty, 'Wrong value in recordfile: expected: ', true,
   22	                  ' got: ', recordfile^.boolfield);
   23	      writeln (tty, 'Value placed in file by "put", retrieved by "reset"');
   24	      end;
   25	   if recordfile^.charfield <> 'a' then
   26	      begin
   27	      error (704);
   28	      writeln (tty, 'Wrong value in recordfile: expected: ', 'a',
   29	               ' got: ', recordfile^.charfield);
   30	      writeln (tty, 'Value placed in file by "put", retrieved by "reset"');
   31	      end;MODULE  EXE012       Test typed I/O.                                                   10-Aug-82 10:53
SECTION 11           Test second record in recordfile.                                         PAGE 13

    2	   get (recordfile);
    3	   if recordfile^.realfield <> 987.654e3 then
    4	      begin
    5	      error (705);
    6	      writeln (tty, 'Wrong value in recordfile: expected: ', 987.654e3,
    7	                  ' got: ', recordfile^.realfield);
    8	      writeln (tty, 'Value placed in file by "write", retrieved by "get"');
    9	      end;
   10	   if recordfile^.integerfield <> 987654 then
   11	      begin
   12	      error (706);
   13	      writeln (tty, 'Wrong value in recordfile: expected: ', 987654,
   14	              ' got: ', recordfile^.integerfield);
   15	      writeln (tty, 'Value placed in file by "write", retrieved by "get"');
   16	      end;
   17	   if recordfile^.boolfield <> false then
   18	      begin
   19	      error (707);
   20	      writeln (tty, 'Wrong value in recordfile: expected: ', false,
   21	                ' got: ', recordfile^.boolfield);
   22	      writeln (tty, 'Value placed in file by "write", retrieved by "get"');
   23	      end;
   24	   if recordfile^.charfield <> 'b' then
   25	      begin
   26	      error (708);
   27	      writeln (tty, 'Wrong value in recordfile: expected: ', 'b',
   28	               ' got: ', recordfile^.charfield);
   29	      writeln (tty, 'Value placed in file by "write", retrieved by "get"');
   30	      end;MODULE  EXE012       Test typed I/O.                                                   10-Aug-82 10:53
SECTION 12           Test final record in recordfile.                                          PAGE 14

    2	   read (recordfile, recordvariable);
    3	   read (recordfile, recordvariable);
    4	   if recordvariable.realfield <> 56.789e2 then
    5	      begin
    6	      error (709);
    7	      writeln (tty, 'Wrong value in recordfile: expected: ', 56.789e2,
    8	                  ' got: ', recordvariable.realfield);
    9	      writeln (tty, 'Value placed in file by "write", retrieved by "read"');
   10	      end;
   11	   if recordvariable.integerfield <> 56789 then
   12	      begin
   13	      error (710);
   14	      writeln (tty, 'Wrong value in recordfile: expected: ', 56789,
   15	                 ' got: ', recordvariable.integerfield);
   16	      writeln (tty, 'Value placed in file by "write", retrieved by "read"');
   17	      end;
   18	   if recordvariable.boolfield <> true then
   19	      begin
   20	      error (711);
   21	      writeln (tty, 'Wrong value in recordfile: expected: ', true,
   22	                   ' got: ', recordvariable.boolfield);
   23	      writeln (tty, 'Value placed in file by "write", retrieved by "read"');
   24	      end;
   25	   if recordvariable.charfield <> 'c' then
   26	      begin
   27	      error (712);
   28	      writeln (tty, 'Wrong value in recordfile: expected: ', 'c',
   29	                ' got: ', recordvariable.charfield);
   30	      writeln (tty, 'Value placed in file by "write", retrieved by "read"');
   31	      end;
   32	   if not eof (recordfile) then
   33	      begin
   34	      error (713);
   35	      writeln (tty, 'Didn''t get end of file on recordfile.');
   36	      end;
   37	   close (recordfile);
   38	   end;MODULE  EXE012       Test typed I/O.                                                   10-Aug-82 10:53
SECTION 13           Test random file access                                                   PAGE 15

    2	procedure testrandomaccess;
    3	
    4	   begin
    5	   rewrite (integerfile, real_filename);
    6	   if extent (integerfile) <> 0 then
    7	      begin
    8	      error (801);
    9	      writeln (tty, 'File after ''rewrite''  has extent ',
   10	             extent (integerfile));
   11	      end;
   12	   if not eof (integerfile) then
   13	      begin
   14	      error (802);
   15	      writeln (tty, 'File after ''rewrite'' does not have ''eof''.');
   16	      end;
   17	   if cursor (integerfile) <> 1 then
   18	      begin
   19	      error (803);
   20	      writeln (tty, 'File after ''rewrite'' has cursor ', cursor (integerfile));
   21	      end;
   22	
   23	   for index := 1 to 100 do
   24	      write (integerfile, index);
   25	   if not eof (integerfile) then
   26	      begin
   27	      error (804);
   28	      writeln (tty, 'File at end of file does not have ''eof''.');
   29	      end;
   30	   if extent (integerfile) <> 100 then 
   31	      begin
   32	      error (805);
   33	      writeln (tty, 'File on which there have been 100 ''write''s has extent ', 
   34	                    extent (integerfile));
   35	      end;
   36	   close (integerfile);
   37	
   38	   update (integerfile, real_filename, [retry]);
   39	   if extent (integerfile) <> 100 then
   40	      begin
   41	      error (806);
   42	      writeln (tty, 'File with 100 elements has extent ', 
   43	               extent (integerfile));MODULE  EXE012       Test typed I/O.                                                   10-Aug-82 10:53
SECTION 13           Test random file access                                                   PAGE 16

   44	      end;
   45	   if eof (integerfile) then
   46	      begin
   47	      error (807);
   48	      writeln (tty, 'File with 100 elements has ''eof'' after ''update''.');
   49	      end;
   50	   if cursor (integerfile) <> 1 then
   51	      begin
   52	      error (808);
   53	      writeln (tty, 'File after ''update'' has cursor ', cursor (integerfile));
   54	
   55	      end;
   56	   seekset := [];
   57	   repeat
   58	      repeat
   59	         index := trunc (random () * 100) + 1;
   60	      until not (index in seekset);
   61	      seekset := seekset + [index];
   62	      seek (integerfile, index);
   63	      if integerfile^ <> index then
   64	         begin
   65	         error (809);
   66	         writeln (tty, 'Seek on element', index,
   67	                  'cursor', cursor(integerfile),
   68	                  'value', integerfile^);
   69	         end;
   70	   until seekset = [1..100];
   71	
   72	
   73	   seek (integerfile, 101);
   74	   if not eof (integerfile) then
   75	      begin
   76	      error (810);
   77	      writeln (tty, 'File of 100 items does not have eof after seek item 101');
   78	      end;
   79	
   80	
   81	   get (integerfile);
   82	   filestatus := iostatus (integerfile);
   83	   if filestatus <> io_eof then
   84	      begin
   85	      error (811);MODULE  EXE012       Test typed I/O.                                                   10-Aug-82 10:53
SECTION 13           Test random file access                                                   PAGE 17

   86	      writeln (tty, 'Attempt to read after end of file does not produce io_eof.');
   87	      writeln (tty, 'Cursor =', cursor (integerfile),
   88	                    ', extent =', extent (integerfile));
   89	      writeln (tty, 'IO status was', ord (filestatus));
   90	      end;
   91	 
   92	
   93	   seek (integerfile, 110);
   94	   put (integerfile);
   95	   if extent (integerfile) <> 110 then
   96	      begin
   97	      error (812);
   98	      writeln (tty, 'File after ''seek (integerfile, 110); put (integerfile)'' ',
   99	                'has extent:', extent (integerfile));
  100	      end;
  101	
  102	
  103	   for index := 55 downto 50 do
  104	      writern (integerfile, index, index - 50);
  105	   readrn (integerfile, 49, integervariable);
  106	   if integervariable <> 49 then
  107	      begin
  108	      error (813);
  109	      writeln (tty, 'Random writes in middle of file destroyed value of ',
  110	                   'preceding data entry.');
  111	      writeln (tty, 'Item 49 now has value', integerfile^);
  112	      end;
  113	   readrn (integerfile, 56, integervariable);
  114	   if integervariable <> 56 then
  115	      begin
  116	      error (814);
  117	      writeln (tty, 'Random writes in middle of file destroyed value of ',
  118	                  'following data entry.');
  119	      writeln (tty, 'Item 56 now has value', integerfile^);
  120	      end;
  121	
  122	
  123	   close (integerfile);
  124	   rewrite (integerfile, real_filename, [preserve]);
  125	   if (extent (integerfile) <> 110) or (cursor (integerfile) <> 111) then
  126	      begin
  127	      error (815);MODULE  EXE012       Test typed I/O.                                                   10-Aug-82 10:53
SECTION 13           Test random file access                                                   PAGE 18

  128	      writeln (tty, 'File of 110 elements on which "rewrite" with "preserve"',
  129	                 ' has been done has extent ', extent (integerfile),
  130	                 ', cursor', cursor (integerfile));
  131	      end;
  132	
  133	
  134	   close (integerfile);
  135	   rewrite (integerfile, real_filename, [retry]);
  136	   for index := 1 to 100 do
  137	   write (integerfile, index);
  138	   empty (integerfile);
  139	   filestatus := iostatus (integerfile);
  140	   if (extent (integerfile) <> 0) or (filestatus <> IO_OK) then
  141	      begin
  142	      error (816);
  143	      writeln (tty, 'File which has been ''empty''ed has extent:',
  144	               extent (integerfile));
  145	      writeln (tty, 'IO status was', ord (filestatus));
  146	      end;
  147	
  148	
  149	   scratch (integerfile);
  150	   filestatus := iostatus ();
  151	   if filestatus <> IO_OK then
  152	      begin
  153	      error (817);
  154	      writeln (tty, 'After ''scratch'', IO status was', ord (filestatus));
  155	     end;
  156	   end;MODULE  EXE012       Test typed I/O.                                                   10-Aug-82 10:53
SECTION 14           Main line.                                                                PAGE 19

    2	   begin
    3	   rewrite (tty);
    4	   writeln (tty, 'Begin EXE012');
    5	   break (tty);
    6	   testrealfile;
    7	   testintegerfile;
    8	   testbooleanfile;
    9	   teststringfile;
   10	   testcharfile;
   11	   testarrayfile;
   12	   testrecordfile;
   13	   testrandomaccess;
   14	   writeln (tty, 'End EXE012');
   15	   break (tty);
   16	   end.
   17	  

File   level   on page     name

  0	 0	    1	DSK:EXE012.PAS[31024,274425]



Section   in file   on page     title

     1	      0	         3    Error.
    14	      0	        19    Main line.
     7	      0	         9    Test file of arrays.
     4	      0	         6    Test file of booleans.
     6	      0	         8    Test file of characters.
     3	      0	         5    Test file of integers.
     2	      0	         4    Test file of reals.
     9	      0	        11    Test file of records.
     5	      0	         7    Test file of strings.
    12	      0	        14    Test final record in recordfile.
    10	      0	        12    Test first record in recordfile.
    13	      0	        15    Test random file access
     8	      0	        10    Test second and third arrays in file.
    11	      0	        13    Test second record in recordfile.
                                                                                                       		      EXE012     IDNT	   0,0
		      *
		      *		 MC68000 Checkout Code Generator,  Aug 10, 1982  10:53:57 am
		      *
	 00000002		 SECTION   2
	 00000000     STATIC.	 EQU	   *
	 0000000A		 SECTION   10
	 00000000     CODE.	 EQU	   *
00000000 C21DD0B0     C.1	 DC.L	   $C21DD0B0			       Date-time
00000004 0000			 DC.W	   0				         $0
00000006 455845303132		 DC.B	   'EXE012'
	 00000002		 SECTION   2
		      *
		      *		 Unitialized static area
		      *
00000000 000000A0		 DS.B	   160
				 XDEF	   REALFILE
		      REALFILE	 EQU	   STATIC.+0
				 XDEF	   REALVARI
		      REALVARI	 EQU	   STATIC.+4
				 XDEF	   INTEGERF
		      INTEGERF	 EQU	   STATIC.+8
				 XDEF	   INTEGERV
		      INTEGERV	 EQU	   STATIC.+12
				 XDEF	   BOOLEANF
		      BOOLEANF	 EQU	   STATIC.+16
				 XDEF	   BOOLEANV
		      BOOLEANV	 EQU	   STATIC.+20
				 XDEF	   STRINGFI
		      STRINGFI	 EQU	   STATIC.+22
				 XDEF	   STRINGVA
		      STRINGVA	 EQU	   STATIC.+26
				 XDEF	   CHARFILE
		      CHARFILE	 EQU	   STATIC.+38
				 XDEF	   CHARVARI
		      CHARVARI	 EQU	   STATIC.+42
				 XDEF	   ARRAYFIL
		      ARRAYFIL	 EQU	   STATIC.+44
				 XDEF	   ARRAYVAR
		      ARRAYVAR	 EQU	   STATIC.+48
				 XDEF	   INDEX   
		      INDEX   	 EQU	   STATIC.+88
				 XDEF	   RECORDFI
		      RECORDFI	 EQU	   STATIC.+92
				 XDEF	   RECORDVA		      RECORDVA	 EQU	   STATIC.+96
				 XDEF	   SEEKSET 
		      SEEKSET 	 EQU	   STATIC.+106
				 XDEF	   REAL_FIL
		      REAL_FIL	 EQU	   STATIC.+120
				 XDEF	   FILESTAT
		      FILESTAT	 EQU	   STATIC.+158
	 0000000A		 SECTION   10
		      *
		      *		 Constant area for subroutine ERROR
		      *
0000000C 4572726F7220 K.1	 DC.B	   'Error '
		      *
		      *		 Begin subroutine ERROR
		      *
00000012	      B.3
		      *							       LINE 1/4
		      *							       LINE 1/5
00000012 202D0000     L.3.1	 MOVE.L	   TTYOUTPUT-32768(A5),D0	         TTYOUTPUT
00000016 4A80			 TST.L	   D0
00000018 6606			 BNE.S	   X.3.1(PC)
0000001A 4EB900000000		 JSR	   E.FILE
00000020 7206	      X.3.1	 MOVEQ	   #6,D1			         $6
00000022 3F01			 MOVE.W	   D1,-(A7)
00000024 7204			 MOVEQ	   #4,D1			         $4
00000026 3F01			 MOVE.W	   D1,-(A7)
00000028 487AFFE2		 PEA	   K.1(PC)			         CODE.+$C
0000002C 2F00			 MOVE.L	   D0,-(A7)
0000002E 4EB900000000		 JSR	   T.WRITE
00000034 4267			 CLR.W	   -(A7)
00000036 486EFFFC		 PEA	   -4(A6)			         ERROR_NUMBER
0000003A 2F00			 MOVE.L	   D0,-(A7)
0000003C 4EB900000000		 JSR	   T.WRITE
00000042 2F00			 MOVE.L	   D0,-(A7)
00000044 4EB900000000		 JSR	   T.WRTLN
		      *							       LINE 1/6
0000004A 202D0000		 MOVE.L	   TTYOUTPUT-32768(A5),D0	         TTYOUTPUT
0000004E 4A80			 TST.L	   D0
00000050 6606			 BNE.S	   X.3.2(PC)
00000052 4EB900000000		 JSR	   E.FILE
00000058 2F00	      X.3.2	 MOVE.L	   D0,-(A7)
0000005A 4EB900000000		 JSR	   T.BREAK
		      *							       LINE 1/7
00000060 4E75			 RTS	   
		      *		      *		 Constant area for subroutine TESTREALFILE
		      *
00000062 746573742E74 K.2	 DC.B	   'test.tmp'
0000006A E090AE6F     K.3	 DC.L	   $E090AE6F				 123456000000000.00000
0000006E F1206054     K.4	 DC.L	   $F1206054				 987654.
00000072 B177334D     K.5	 DC.L	   $B177334D				 5678.9000000000000004
00000076 E090AE6F     K.6	 DC.L	   $E090AE6F				 123456000000000.00000
0000007A 57726F6E6720 K.7	 DC.B	   'Wrong value in realfile: expected: '
0000009D 00000001		 DS.B	   1
0000009E E090AE6F     K.8	 DC.L	   $E090AE6F				 123456000000000.00000
000000A2 20676F743A20 K.9	 DC.B	   ' got: '
000000A8 56616C756520 K.10	 DC.B	   'Value placed in file by "put", retrieved by "reset"'
000000DB 00000001		 DS.B	   1
000000DC F1206054     K.11	 DC.L	   $F1206054				 987654.
000000E0 57726F6E6720 K.12	 DC.B	   'Wrong value in realfile: expected: '
00000103 00000001		 DS.B	   1
00000104 F1206054     K.13	 DC.L	   $F1206054				 987654.
00000108 20676F743A20 K.14	 DC.B	   ' got: '
0000010E 56616C756520 K.15	 DC.B	   'Value placed in file by "write", retrieved by "get"'
00000141 00000001		 DS.B	   1
00000142 B177334D     K.16	 DC.L	   $B177334D				 5678.9000000000000004
00000146 57726F6E6720 K.17	 DC.B	   'Wrong value in realfile: expected: '
00000169 00000001		 DS.B	   1
0000016A B177334D     K.18	 DC.L	   $B177334D				 5678.9000000000000004
0000016E 20676F743A20 K.19	 DC.B	   ' got: '
00000174 56616C756520 K.20	 DC.B	   'Value placed in file by "write", retrieved by "read"'
000001A8 4469646E2774 K.21	 DC.B	   'Didn't get end of file on realfile.'
000001CB 00000001		 DS.B	   1
		      *
		      *		 Begin subroutine TESTREALFILE
		      *
000001CC	      B.4
		      *							       LINE 2/4
		      *							       LINE 2/5
000001CC 7004	      L.4.1	 MOVEQ	   #4,D0			         $4
000001CE 3F00			 MOVE.W	   D0,-(A7)
000001D0 487AFE90		 PEA	   K.2(PC)			         CODE.+$62
000001D4 7008			 MOVEQ	   #8,D0			         $8
000001D6 3F00			 MOVE.W	   D0,-(A7)
000001D8 702A			 MOVEQ	   #42,D0			         $2A
000001DA 3F00			 MOVE.W	   D0,-(A7)
000001DC 4EB900000000		 JSR	   Y.INIT
000001E2 2B5F8000		 MOVE.L	   (A7)+,STATIC.+0-32768(A5)	         REALFILE
		      *							       LINE 2/6
000001E6 2F2D8000		 MOVE.L	   STATIC.+0-32768(A5),-(A7)	         REALFILE000001EA 486EFFD6		 PEA	   -42(A6)			         $FFFFFFD6
000001EE 4EB900000000		 JSR	   I.FILNAM			         FILENAME
000001F4 302EFFD6		 MOVE.W	   -42(A6),D0			         $FFFFFFD6
000001F8 41EEFFD6		 LEA	   -42(A6),A0			         $FFFFFFD6
000001FC 43ED8078		 LEA	   STATIC.+120-32768(A5),A1	         REAL_FILENAME
00000200 5240			 ADDQ.W	   #1,D0			         $1
00000202 E248			 LSR.W	   #1,D0			         $1
00000204 32D8	      X.4.1	 MOVE.W	   (A0)+,(A1)+
00000206 51C8FFFC		 DBF	   D0,X.4.1(PC)
		      *							       LINE 2/7
0000020A 202D8000		 MOVE.L	   STATIC.+0-32768(A5),D0	         REALFILE
0000020E 4A80			 TST.L	   D0
00000210 6606			 BNE.S	   X.4.2(PC)
00000212 4EB900000000		 JSR	   E.FILE
00000218 2040	      X.4.2	 MOVEA.L   D0,A0
0000021A 2050			 MOVEA.L   (A0),A0
0000021C 20BAFE4C		 MOVE.L	   K.3(PC),(A0)			         CODE.+$6A
		      *							       LINE 2/8
00000220 202D8000		 MOVE.L	   STATIC.+0-32768(A5),D0	         REALFILE
00000224 4A80			 TST.L	   D0
00000226 6606			 BNE.S	   X.4.3(PC)
00000228 4EB900000000		 JSR	   E.FILE
0000022E 2F00	      X.4.3	 MOVE.L	   D0,-(A7)
00000230 4EB900000000		 JSR	   Y.PUT
		      *							       LINE 2/9
00000236 202D8000		 MOVE.L	   STATIC.+0-32768(A5),D0	         REALFILE
0000023A 4A80			 TST.L	   D0
0000023C 6606			 BNE.S	   X.4.4(PC)
0000023E 4EB900000000		 JSR	   E.FILE
00000244 2040	      X.4.4	 MOVEA.L   D0,A0
00000246 2050			 MOVEA.L   (A0),A0
00000248 20BAFE24		 MOVE.L	   K.4(PC),(A0)			         CODE.+$6E
0000024C 2F00			 MOVE.L	   D0,-(A7)
0000024E 4EB900000000		 JSR	   Y.PUT
		      *							       LINE 2/10
00000254 202D8000		 MOVE.L	   STATIC.+0-32768(A5),D0	         REALFILE
00000258 4A80			 TST.L	   D0
0000025A 6606			 BNE.S	   X.4.5(PC)
0000025C 4EB900000000		 JSR	   E.FILE
00000262 2040	      X.4.5	 MOVEA.L   D0,A0
00000264 2050			 MOVEA.L   (A0),A0
00000266 20BAFE0A		 MOVE.L	   K.5(PC),(A0)			         CODE.+$72
0000026A 2F00			 MOVE.L	   D0,-(A7)
0000026C 4EB900000000		 JSR	   Y.PUT
		      *							       LINE 2/1100000272 202D8000		 MOVE.L	   STATIC.+0-32768(A5),D0	         REALFILE
00000276 4A80			 TST.L	   D0
00000278 6606			 BNE.S	   X.4.6(PC)
0000027A 4EB900000000		 JSR	   E.FILE
00000280 2F00	      X.4.6	 MOVE.L	   D0,-(A7)
00000282 4EB900000000		 JSR	   I.CLOSE
		      *							       LINE 2/12
00000288 7004			 MOVEQ	   #4,D0			         $4
0000028A 3F00			 MOVE.W	   D0,-(A7)
0000028C 486D807A		 PEA	   STATIC.+120-32766(A5)	         REAL_FILENAME
00000290 3F2D8078		 MOVE.W	   STATIC.+120-32768(A5),-(A7)	         REAL_FILENAME
00000294 7029			 MOVEQ	   #41,D0			         $29
00000296 3F00			 MOVE.W	   D0,-(A7)
00000298 4EB900000000		 JSR	   Y.INIT
0000029E 2B5F8000		 MOVE.L	   (A7)+,STATIC.+0-32768(A5)	         REALFILE
		      *							       LINE 2/13
000002A2 202D8000		 MOVE.L	   STATIC.+0-32768(A5),D0	         REALFILE
000002A6 4A80			 TST.L	   D0
000002A8 6606			 BNE.S	   X.4.7(PC)
000002AA 4EB900000000		 JSR	   E.FILE
000002B0 2040	      X.4.7	 MOVEA.L   D0,A0
000002B2 2050			 MOVEA.L   (A0),A0
000002B4 2F10			 MOVE.L	   (A0),-(A7)
000002B6 2F3AFDBE		 MOVE.L	   K.6(PC),-(A7)		         CODE.+$76
000002BA 4EB900000000		 JSR	   F.CMP
000002C0 670000AE		 BEQ.L	   L.4.3(PC)
		      *							       LINE 2/14
		      *							       LINE 2/15
000002C4 2D7C00000065 L.4.2	 MOVE.L	   #101,-4(A6)			         $65  $FFFFFFFC
	 FFFC
000002CC 6100FD44		 BSR.L	   B.3(PC)			         ERROR = CODE.+$12
		      *							       LINE 2/16
000002D0 202D0000		 MOVE.L	   TTYOUTPUT-32768(A5),D0	         TTYOUTPUT
000002D4 4A80			 TST.L	   D0
000002D6 6606			 BNE.S	   X.4.8(PC)
000002D8 4EB900000000		 JSR	   E.FILE
000002DE 7223	      X.4.8	 MOVEQ	   #35,D1			         $23
000002E0 3F01			 MOVE.W	   D1,-(A7)
000002E2 7204			 MOVEQ	   #4,D1			         $4
000002E4 3F01			 MOVE.W	   D1,-(A7)
000002E6 487AFD92		 PEA	   K.7(PC)			         CODE.+$7A
000002EA 2F00			 MOVE.L	   D0,-(A7)
000002EC 4EB900000000		 JSR	   T.WRITE
000002F2 7206			 MOVEQ	   #6,D1			         $6
000002F4 2F01			 MOVE.L	   D1,-(A7)000002F6 7201			 MOVEQ	   #1,D1			         $1
000002F8 3F01			 MOVE.W	   D1,-(A7)
000002FA 487AFDA2		 PEA	   K.8(PC)			         CODE.+$9E
000002FE 2F00			 MOVE.L	   D0,-(A7)
00000300 4EB900000000		 JSR	   T.WRITE
00000306 7206			 MOVEQ	   #6,D1			         $6
00000308 3F01			 MOVE.W	   D1,-(A7)
0000030A 7204			 MOVEQ	   #4,D1			         $4
0000030C 3F01			 MOVE.W	   D1,-(A7)
0000030E 487AFD92		 PEA	   K.9(PC)			         CODE.+$A2
00000312 2F00			 MOVE.L	   D0,-(A7)
00000314 4EB900000000		 JSR	   T.WRITE
0000031A 222D8000		 MOVE.L	   STATIC.+0-32768(A5),D1	         REALFILE
0000031E 4A81			 TST.L	   D1
00000320 6606			 BNE.S	   X.4.9(PC)
00000322 4EB900000000		 JSR	   E.FILE
00000328 2041	      X.4.9	 MOVEA.L   D1,A0
0000032A 2050			 MOVEA.L   (A0),A0
0000032C 7206			 MOVEQ	   #6,D1			         $6
0000032E 2F01			 MOVE.L	   D1,-(A7)
00000330 7201			 MOVEQ	   #1,D1			         $1
00000332 3F01			 MOVE.W	   D1,-(A7)
00000334 4850			 PEA	   (A0)
00000336 2F00			 MOVE.L	   D0,-(A7)
00000338 4EB900000000		 JSR	   T.WRITE
0000033E 2F00			 MOVE.L	   D0,-(A7)
00000340 4EB900000000		 JSR	   T.WRTLN
		      *							       LINE 2/18
00000346 202D0000		 MOVE.L	   TTYOUTPUT-32768(A5),D0	         TTYOUTPUT
0000034A 4A80			 TST.L	   D0
0000034C 6606			 BNE.S	   X.4.10(PC)
0000034E 4EB900000000		 JSR	   E.FILE
00000354 7233	      X.4.10	 MOVEQ	   #51,D1			         $33
00000356 3F01			 MOVE.W	   D1,-(A7)
00000358 7204			 MOVEQ	   #4,D1			         $4
0000035A 3F01			 MOVE.W	   D1,-(A7)
0000035C 487AFD4A		 PEA	   K.10(PC)			         CODE.+$A8
00000360 2F00			 MOVE.L	   D0,-(A7)
00000362 4EB900000000		 JSR	   T.WRITE
00000368 2F00			 MOVE.L	   D0,-(A7)
0000036A 4EB900000000		 JSR	   T.WRTLN
		      *							       LINE 2/19
		      *							       LINE 2/20
00000370 202D8000     L.4.3	 MOVE.L	   STATIC.+0-32768(A5),D0	         REALFILE
00000374 4A80			 TST.L	   D000000376 6606			 BNE.S	   X.4.11(PC)
00000378 4EB900000000		 JSR	   E.FILE
0000037E 2F00	      X.4.11	 MOVE.L	   D0,-(A7)
00000380 4EB900000000		 JSR	   Y.GET
		      *							       LINE 2/21
00000386 202D8000		 MOVE.L	   STATIC.+0-32768(A5),D0	         REALFILE
0000038A 4A80			 TST.L	   D0
0000038C 6606			 BNE.S	   X.4.12(PC)
0000038E 4EB900000000		 JSR	   E.FILE
00000394 2040	      X.4.12	 MOVEA.L   D0,A0
00000396 2050			 MOVEA.L   (A0),A0
00000398 2F10			 MOVE.L	   (A0),-(A7)
0000039A 2F3AFD40		 MOVE.L	   K.11(PC),-(A7)		         CODE.+$DC
0000039E 4EB900000000		 JSR	   F.CMP
000003A4 670000AE		 BEQ.L	   L.4.5(PC)
		      *							       LINE 2/22
		      *							       LINE 2/23
000003A8 2D7C00000066 L.4.4	 MOVE.L	   #102,-4(A6)			         $66  $FFFFFFFC
	 FFFC
000003B0 6100FC60		 BSR.L	   B.3(PC)			         ERROR = CODE.+$12
		      *							       LINE 2/24
000003B4 202D0000		 MOVE.L	   TTYOUTPUT-32768(A5),D0	         TTYOUTPUT
000003B8 4A80			 TST.L	   D0
000003BA 6606			 BNE.S	   X.4.13(PC)
000003BC 4EB900000000		 JSR	   E.FILE
000003C2 7223	      X.4.13	 MOVEQ	   #35,D1			         $23
000003C4 3F01			 MOVE.W	   D1,-(A7)
000003C6 7204			 MOVEQ	   #4,D1			         $4
000003C8 3F01			 MOVE.W	   D1,-(A7)
000003CA 487AFD14		 PEA	   K.12(PC)			         CODE.+$E0
000003CE 2F00			 MOVE.L	   D0,-(A7)
000003D0 4EB900000000		 JSR	   T.WRITE
000003D6 7206			 MOVEQ	   #6,D1			         $6
000003D8 2F01			 MOVE.L	   D1,-(A7)
000003DA 7201			 MOVEQ	   #1,D1			         $1
000003DC 3F01			 MOVE.W	   D1,-(A7)
000003DE 487AFD24		 PEA	   K.13(PC)			         CODE.+$104
000003E2 2F00			 MOVE.L	   D0,-(A7)
000003E4 4EB900000000		 JSR	   T.WRITE
000003EA 7206			 MOVEQ	   #6,D1			         $6
000003EC 3F01			 MOVE.W	   D1,-(A7)
000003EE 7204			 MOVEQ	   #4,D1			         $4
000003F0 3F01			 MOVE.W	   D1,-(A7)
000003F2 487AFD14		 PEA	   K.14(PC)			         CODE.+$108
000003F6 2F00			 MOVE.L	   D0,-(A7)000003F8 4EB900000000		 JSR	   T.WRITE
000003FE 222D8000		 MOVE.L	   STATIC.+0-32768(A5),D1	         REALFILE
00000402 4A81			 TST.L	   D1
00000404 6606			 BNE.S	   X.4.14(PC)
00000406 4EB900000000		 JSR	   E.FILE
0000040C 2041	      X.4.14	 MOVEA.L   D1,A0
0000040E 2050			 MOVEA.L   (A0),A0
00000410 7206			 MOVEQ	   #6,D1			         $6
00000412 2F01			 MOVE.L	   D1,-(A7)
00000414 7201			 MOVEQ	   #1,D1			         $1
00000416 3F01			 MOVE.W	   D1,-(A7)
00000418 4850			 PEA	   (A0)
0000041A 2F00			 MOVE.L	   D0,-(A7)
0000041C 4EB900000000		 JSR	   T.WRITE
00000422 2F00			 MOVE.L	   D0,-(A7)
00000424 4EB900000000		 JSR	   T.WRTLN
		      *							       LINE 2/26
0000042A 202D0000		 MOVE.L	   TTYOUTPUT-32768(A5),D0	         TTYOUTPUT
0000042E 4A80			 TST.L	   D0
00000430 6606			 BNE.S	   X.4.15(PC)
00000432 4EB900000000		 JSR	   E.FILE
00000438 7233	      X.4.15	 MOVEQ	   #51,D1			         $33
0000043A 3F01			 MOVE.W	   D1,-(A7)
0000043C 7204			 MOVEQ	   #4,D1			         $4
0000043E 3F01			 MOVE.W	   D1,-(A7)
00000440 487AFCCC		 PEA	   K.15(PC)			         CODE.+$10E
00000444 2F00			 MOVE.L	   D0,-(A7)
00000446 4EB900000000		 JSR	   T.WRITE
0000044C 2F00			 MOVE.L	   D0,-(A7)
0000044E 4EB900000000		 JSR	   T.WRTLN
		      *							       LINE 2/27
		      *							       LINE 2/28
00000454 202D8000     L.4.5	 MOVE.L	   STATIC.+0-32768(A5),D0	         REALFILE
00000458 4A80			 TST.L	   D0
0000045A 6606			 BNE.S	   X.4.16(PC)
0000045C 4EB900000000		 JSR	   E.FILE
00000462 2040	      X.4.16	 MOVEA.L   D0,A0
00000464 2050			 MOVEA.L   (A0),A0
00000466 2B508004		 MOVE.L	   (A0),STATIC.+4-32768(A5)	         REALVARIABLE
0000046A 2F00			 MOVE.L	   D0,-(A7)
0000046C 4EB900000000		 JSR	   Y.GET
		      *							       LINE 2/29
00000472 202D8000		 MOVE.L	   STATIC.+0-32768(A5),D0	         REALFILE
00000476 4A80			 TST.L	   D0
00000478 6606			 BNE.S	   X.4.17(PC)0000047A 4EB900000000		 JSR	   E.FILE
00000480 2040	      X.4.17	 MOVEA.L   D0,A0
00000482 2050			 MOVEA.L   (A0),A0
00000484 2B508004		 MOVE.L	   (A0),STATIC.+4-32768(A5)	         REALVARIABLE
00000488 2F00			 MOVE.L	   D0,-(A7)
0000048A 4EB900000000		 JSR	   Y.GET
		      *							       LINE 2/30
00000490 2F2D8004		 MOVE.L	   STATIC.+4-32768(A5),-(A7)	         REALVARIABLE
00000494 2F3AFCAC		 MOVE.L	   K.16(PC),-(A7)		         CODE.+$142
00000498 4EB900000000		 JSR	   F.CMP
0000049E 6700009E		 BEQ.L	   L.4.7(PC)
		      *							       LINE 2/31
		      *							       LINE 2/32
000004A2 2D7C00000067 L.4.6	 MOVE.L	   #103,-4(A6)			         $67  $FFFFFFFC
	 FFFC
000004AA 6100FB66		 BSR.L	   B.3(PC)			         ERROR = CODE.+$12
		      *							       LINE 2/33
000004AE 202D0000		 MOVE.L	   TTYOUTPUT-32768(A5),D0	         TTYOUTPUT
000004B2 4A80			 TST.L	   D0
000004B4 6606			 BNE.S	   X.4.18(PC)
000004B6 4EB900000000		 JSR	   E.FILE
000004BC 7223	      X.4.18	 MOVEQ	   #35,D1			         $23
000004BE 3F01			 MOVE.W	   D1,-(A7)
000004C0 7204			 MOVEQ	   #4,D1			         $4
000004C2 3F01			 MOVE.W	   D1,-(A7)
000004C4 487AFC80		 PEA	   K.17(PC)			         CODE.+$146
000004C8 2F00			 MOVE.L	   D0,-(A7)
000004CA 4EB900000000		 JSR	   T.WRITE
000004D0 7206			 MOVEQ	   #6,D1			         $6
000004D2 2F01			 MOVE.L	   D1,-(A7)
000004D4 7201			 MOVEQ	   #1,D1			         $1
000004D6 3F01			 MOVE.W	   D1,-(A7)
000004D8 487AFC90		 PEA	   K.18(PC)			         CODE.+$16A
000004DC 2F00			 MOVE.L	   D0,-(A7)
000004DE 4EB900000000		 JSR	   T.WRITE
000004E4 7206			 MOVEQ	   #6,D1			         $6
000004E6 3F01			 MOVE.W	   D1,-(A7)
000004E8 7204			 MOVEQ	   #4,D1			         $4
000004EA 3F01			 MOVE.W	   D1,-(A7)
000004EC 487AFC80		 PEA	   K.19(PC)			         CODE.+$16E
000004F0 2F00			 MOVE.L	   D0,-(A7)
000004F2 4EB900000000		 JSR	   T.WRITE
000004F8 7206			 MOVEQ	   #6,D1			         $6
000004FA 2F01			 MOVE.L	   D1,-(A7)
000004FC 7201			 MOVEQ	   #1,D1			         $1000004FE 3F01			 MOVE.W	   D1,-(A7)
00000500 486D8004		 PEA	   STATIC.+4-32768(A5)		         REALVARIABLE
00000504 2F00			 MOVE.L	   D0,-(A7)
00000506 4EB900000000		 JSR	   T.WRITE
0000050C 2F00			 MOVE.L	   D0,-(A7)
0000050E 4EB900000000		 JSR	   T.WRTLN
		      *							       LINE 2/35
00000514 202D0000		 MOVE.L	   TTYOUTPUT-32768(A5),D0	         TTYOUTPUT
00000518 4A80			 TST.L	   D0
0000051A 6606			 BNE.S	   X.4.19(PC)
0000051C 4EB900000000		 JSR	   E.FILE
00000522 7234	      X.4.19	 MOVEQ	   #52,D1			         $34
00000524 3F01			 MOVE.W	   D1,-(A7)
00000526 7204			 MOVEQ	   #4,D1			         $4
00000528 3F01			 MOVE.W	   D1,-(A7)
0000052A 487AFC48		 PEA	   K.20(PC)			         CODE.+$174
0000052E 2F00			 MOVE.L	   D0,-(A7)
00000530 4EB900000000		 JSR	   T.WRITE
00000536 2F00			 MOVE.L	   D0,-(A7)
00000538 4EB900000000		 JSR	   T.WRTLN
		      *							       LINE 2/36
		      *							       LINE 2/37
0000053E 202D8000     L.4.7	 MOVE.L	   STATIC.+0-32768(A5),D0	         REALFILE
00000542 4A80			 TST.L	   D0
00000544 6606			 BNE.S	   X.4.20(PC)
00000546 4EB900000000		 JSR	   E.FILE
0000054C 2F00	      X.4.20	 MOVE.L	   D0,-(A7)
0000054E 4EB900000000		 JSR	   I.EOF
00000554 4A1F			 TST.B	   (A7)+
00000556 6636			 BNE.S	   L.4.9(PC)
		      *							       LINE 2/38
		      *							       LINE 2/39
00000558 2D7C00000068 L.4.8	 MOVE.L	   #104,-4(A6)			         $68  $FFFFFFFC
	 FFFC
00000560 6100FAB0		 BSR.L	   B.3(PC)			         ERROR = CODE.+$12
		      *							       LINE 2/40
00000564 202D0000		 MOVE.L	   TTYOUTPUT-32768(A5),D0	         TTYOUTPUT
00000568 4A80			 TST.L	   D0
0000056A 6606			 BNE.S	   X.4.21(PC)
0000056C 4EB900000000		 JSR	   E.FILE
00000572 7223	      X.4.21	 MOVEQ	   #35,D1			         $23
00000574 3F01			 MOVE.W	   D1,-(A7)
00000576 7204			 MOVEQ	   #4,D1			         $4
00000578 3F01			 MOVE.W	   D1,-(A7)
0000057A 487AFC2C		 PEA	   K.21(PC)			         CODE.+$1A80000057E 2F00			 MOVE.L	   D0,-(A7)
00000580 4EB900000000		 JSR	   T.WRITE
00000586 2F00			 MOVE.L	   D0,-(A7)
00000588 4EB900000000		 JSR	   T.WRTLN
		      *							       LINE 2/41
		      *							       LINE 2/42
0000058E 202D8000     L.4.9	 MOVE.L	   STATIC.+0-32768(A5),D0	         REALFILE
00000592 4A80			 TST.L	   D0
00000594 6606			 BNE.S	   X.4.22(PC)
00000596 4EB900000000		 JSR	   E.FILE
0000059C 2F00	      X.4.22	 MOVE.L	   D0,-(A7)
0000059E 4EB900000000		 JSR	   I.CLOSE
		      *							       LINE 2/43
000005A4 4E75			 RTS	   
		      *
		      *		 Constant area for subroutine TESTINTEGERFILE
		      *
000005A6 57726F6E6720 K.22	 DC.B	   'Wrong value in integerfile: expected: '
000005CC 0001E240     K.23	 DC.L	   123456			         $1E240
000005D0 20676F743A20 K.24	 DC.B	   ' got: '
000005D6 56616C756520 K.25	 DC.B	   'Value placed in file by "put", retrieved by "reset"'
00000609 00000001		 DS.B	   1
0000060A 57726F6E6720 K.26	 DC.B	   'Wrong value in integerfile: expected: '
00000630 000F1206     K.27	 DC.L	   987654			         $F1206
00000634 20676F743A20 K.28	 DC.B	   ' got: '
0000063A 56616C756520 K.29	 DC.B	   'Value placed in file by "write", retrieved by "get"'
0000066D 00000001		 DS.B	   1
0000066E 57726F6E6720 K.30	 DC.B	   'Wrong value in integerfile: expected: '
00000694 0000DDD5     K.31	 DC.L	   56789			         $DDD5
00000698 20676F743A20 K.32	 DC.B	   ' got: '
0000069E 56616C756520 K.33	 DC.B	   'Value placed in file by "write", retrieved by "read"'
000006D2 4469646E2774 K.34	 DC.B	   'Didn't get end of file on integerfile.'
		      *
		      *		 Begin subroutine TESTINTEGERFILE
		      *
000006F8	      B.5
		      *							       LINE 3/4
		      *							       LINE 3/5
000006F8 7004	      L.5.1	 MOVEQ	   #4,D0			         $4
000006FA 3F00			 MOVE.W	   D0,-(A7)
000006FC 486D807A		 PEA	   STATIC.+120-32766(A5)	         REAL_FILENAME
00000700 3F2D8078		 MOVE.W	   STATIC.+120-32768(A5),-(A7)	         REAL_FILENAME
00000704 702A			 MOVEQ	   #42,D0			         $2A
00000706 3F00			 MOVE.W	   D0,-(A7)
00000708 4EB900000000		 JSR	   Y.INIT0000070E 2B5F8008		 MOVE.L	   (A7)+,STATIC.+8-32768(A5)	         INTEGERFILE
		      *							       LINE 3/6
00000712 202D8008		 MOVE.L	   STATIC.+8-32768(A5),D0	         INTEGERFILE
00000716 4A80			 TST.L	   D0
00000718 6606			 BNE.S	   X.5.1(PC)
0000071A 4EB900000000		 JSR	   E.FILE
00000720 2040	      X.5.1	 MOVEA.L   D0,A0
00000722 2050			 MOVEA.L   (A0),A0
00000724 20BC0001E240		 MOVE.L	   #123456,(A0)			         $1E240
		      *							       LINE 3/7
0000072A 202D8008		 MOVE.L	   STATIC.+8-32768(A5),D0	         INTEGERFILE
0000072E 4A80			 TST.L	   D0
00000730 6606			 BNE.S	   X.5.2(PC)
00000732 4EB900000000		 JSR	   E.FILE
00000738 2F00	      X.5.2	 MOVE.L	   D0,-(A7)
0000073A 4EB900000000		 JSR	   Y.PUT
		      *							       LINE 3/8
00000740 202D8008		 MOVE.L	   STATIC.+8-32768(A5),D0	         INTEGERFILE
00000744 4A80			 TST.L	   D0
00000746 6606			 BNE.S	   X.5.3(PC)
00000748 4EB900000000		 JSR	   E.FILE
0000074E 2040	      X.5.3	 MOVEA.L   D0,A0
00000750 2050			 MOVEA.L   (A0),A0
00000752 20BC000F1206		 MOVE.L	   #987654,(A0)			         $F1206
00000758 2F00			 MOVE.L	   D0,-(A7)
0000075A 4EB900000000		 JSR	   Y.PUT
		      *							       LINE 3/9
00000760 202D8008		 MOVE.L	   STATIC.+8-32768(A5),D0	         INTEGERFILE
00000764 4A80			 TST.L	   D0
00000766 6606			 BNE.S	   X.5.4(PC)
00000768 4EB900000000		 JSR	   E.FILE
0000076E 2040	      X.5.4	 MOVEA.L   D0,A0
00000770 2050			 MOVEA.L   (A0),A0
00000772 20BC0000DDD5		 MOVE.L	   #56789,(A0)			         $DDD5
00000778 2F00			 MOVE.L	   D0,-(A7)
0000077A 4EB900000000		 JSR	   Y.PUT
		      *							       LINE 3/10
00000780 202D8008		 MOVE.L	   STATIC.+8-32768(A5),D0	         INTEGERFILE
00000784 4A80			 TST.L	   D0
00000786 6606			 BNE.S	   X.5.5(PC)
00000788 4EB900000000		 JSR	   E.FILE
0000078E 2F00	      X.5.5	 MOVE.L	   D0,-(A7)
00000790 4EB900000000		 JSR	   I.CLOSE
		      *							       LINE 3/11
00000796 7004			 MOVEQ	   #4,D0			         $400000798 3F00			 MOVE.W	   D0,-(A7)
0000079A 486D807A		 PEA	   STATIC.+120-32766(A5)	         REAL_FILENAME
0000079E 3F2D8078		 MOVE.W	   STATIC.+120-32768(A5),-(A7)	         REAL_FILENAME
000007A2 7029			 MOVEQ	   #41,D0			         $29
000007A4 3F00			 MOVE.W	   D0,-(A7)
000007A6 4EB900000000		 JSR	   Y.INIT
000007AC 2B5F8008		 MOVE.L	   (A7)+,STATIC.+8-32768(A5)	         INTEGERFILE
		      *							       LINE 3/12
000007B0 202D8008		 MOVE.L	   STATIC.+8-32768(A5),D0	         INTEGERFILE
000007B4 4A80			 TST.L	   D0
000007B6 6606			 BNE.S	   X.5.6(PC)
000007B8 4EB900000000		 JSR	   E.FILE
000007BE 2040	      X.5.6	 MOVEA.L   D0,A0
000007C0 2050			 MOVEA.L   (A0),A0
000007C2 0C900001E240		 CMPI.L	   #123456,(A0)			         $1E240
000007C8 670000A2		 BEQ.L	   L.5.3(PC)
		      *							       LINE 3/13
		      *							       LINE 3/14
000007CC 2D7C000000C9 L.5.2	 MOVE.L	   #201,-4(A6)			         $C9  $FFFFFFFC
	 FFFC
000007D4 6100F83C		 BSR.L	   B.3(PC)			         ERROR = CODE.+$12
		      *							       LINE 3/15
000007D8 202D0000		 MOVE.L	   TTYOUTPUT-32768(A5),D0	         TTYOUTPUT
000007DC 4A80			 TST.L	   D0
000007DE 6606			 BNE.S	   X.5.7(PC)
000007E0 4EB900000000		 JSR	   E.FILE
000007E6 7226	      X.5.7	 MOVEQ	   #38,D1			         $26
000007E8 3F01			 MOVE.W	   D1,-(A7)
000007EA 7204			 MOVEQ	   #4,D1			         $4
000007EC 3F01			 MOVE.W	   D1,-(A7)
000007EE 487AFDB6		 PEA	   K.22(PC)			         CODE.+$5A6
000007F2 2F00			 MOVE.L	   D0,-(A7)
000007F4 4EB900000000		 JSR	   T.WRITE
000007FA 4267			 CLR.W	   -(A7)
000007FC 487AFDCE		 PEA	   K.23(PC)			         CODE.+$5CC
00000800 2F00			 MOVE.L	   D0,-(A7)
00000802 4EB900000000		 JSR	   T.WRITE
00000808 7206			 MOVEQ	   #6,D1			         $6
0000080A 3F01			 MOVE.W	   D1,-(A7)
0000080C 7204			 MOVEQ	   #4,D1			         $4
0000080E 3F01			 MOVE.W	   D1,-(A7)
00000810 487AFDBE		 PEA	   K.24(PC)			         CODE.+$5D0
00000814 2F00			 MOVE.L	   D0,-(A7)
00000816 4EB900000000		 JSR	   T.WRITE
0000081C 222D8008		 MOVE.L	   STATIC.+8-32768(A5),D1	         INTEGERFILE00000820 4A81			 TST.L	   D1
00000822 6606			 BNE.S	   X.5.8(PC)
00000824 4EB900000000		 JSR	   E.FILE
0000082A 2041	      X.5.8	 MOVEA.L   D1,A0
0000082C 2050			 MOVEA.L   (A0),A0
0000082E 4267			 CLR.W	   -(A7)
00000830 4850			 PEA	   (A0)
00000832 2F00			 MOVE.L	   D0,-(A7)
00000834 4EB900000000		 JSR	   T.WRITE
0000083A 2F00			 MOVE.L	   D0,-(A7)
0000083C 4EB900000000		 JSR	   T.WRTLN
		      *							       LINE 3/17
00000842 202D0000		 MOVE.L	   TTYOUTPUT-32768(A5),D0	         TTYOUTPUT
00000846 4A80			 TST.L	   D0
00000848 6606			 BNE.S	   X.5.9(PC)
0000084A 4EB900000000		 JSR	   E.FILE
00000850 7233	      X.5.9	 MOVEQ	   #51,D1			         $33
00000852 3F01			 MOVE.W	   D1,-(A7)
00000854 7204			 MOVEQ	   #4,D1			         $4
00000856 3F01			 MOVE.W	   D1,-(A7)
00000858 487AFD7C		 PEA	   K.25(PC)			         CODE.+$5D6
0000085C 2F00			 MOVE.L	   D0,-(A7)
0000085E 4EB900000000		 JSR	   T.WRITE
00000864 2F00			 MOVE.L	   D0,-(A7)
00000866 4EB900000000		 JSR	   T.WRTLN
		      *							       LINE 3/18
		      *							       LINE 3/19
0000086C 202D8008     L.5.3	 MOVE.L	   STATIC.+8-32768(A5),D0	         INTEGERFILE
00000870 4A80			 TST.L	   D0
00000872 6606			 BNE.S	   X.5.10(PC)
00000874 4EB900000000		 JSR	   E.FILE
0000087A 2F00	      X.5.10	 MOVE.L	   D0,-(A7)
0000087C 4EB900000000		 JSR	   Y.GET
		      *							       LINE 3/20
00000882 202D8008		 MOVE.L	   STATIC.+8-32768(A5),D0	         INTEGERFILE
00000886 4A80			 TST.L	   D0
00000888 6606			 BNE.S	   X.5.11(PC)
0000088A 4EB900000000		 JSR	   E.FILE
00000890 2040	      X.5.11	 MOVEA.L   D0,A0
00000892 2050			 MOVEA.L   (A0),A0
00000894 0C90000F1206		 CMPI.L	   #987654,(A0)			         $F1206
0000089A 670000A2		 BEQ.L	   L.5.5(PC)
		      *							       LINE 3/21
		      *							       LINE 3/22
0000089E 2D7C000000CA L.5.4	 MOVE.L	   #202,-4(A6)			         $CA  $FFFFFFFC	 FFFC
000008A6 6100F76A		 BSR.L	   B.3(PC)			         ERROR = CODE.+$12
		      *							       LINE 3/23
000008AA 202D0000		 MOVE.L	   TTYOUTPUT-32768(A5),D0	         TTYOUTPUT
000008AE 4A80			 TST.L	   D0
000008B0 6606			 BNE.S	   X.5.12(PC)
000008B2 4EB900000000		 JSR	   E.FILE
000008B8 7226	      X.5.12	 MOVEQ	   #38,D1			         $26
000008BA 3F01			 MOVE.W	   D1,-(A7)
000008BC 7204			 MOVEQ	   #4,D1			         $4
000008BE 3F01			 MOVE.W	   D1,-(A7)
000008C0 487AFD48		 PEA	   K.26(PC)			         CODE.+$60A
000008C4 2F00			 MOVE.L	   D0,-(A7)
000008C6 4EB900000000		 JSR	   T.WRITE
000008CC 4267			 CLR.W	   -(A7)
000008CE 487AFD60		 PEA	   K.27(PC)			         CODE.+$630
000008D2 2F00			 MOVE.L	   D0,-(A7)
000008D4 4EB900000000		 JSR	   T.WRITE
000008DA 7206			 MOVEQ	   #6,D1			         $6
000008DC 3F01			 MOVE.W	   D1,-(A7)
000008DE 7204			 MOVEQ	   #4,D1			         $4
000008E0 3F01			 MOVE.W	   D1,-(A7)
000008E2 487AFD50		 PEA	   K.28(PC)			         CODE.+$634
000008E6 2F00			 MOVE.L	   D0,-(A7)
000008E8 4EB900000000		 JSR	   T.WRITE
000008EE 222D8008		 MOVE.L	   STATIC.+8-32768(A5),D1	         INTEGERFILE
000008F2 4A81			 TST.L	   D1
000008F4 6606			 BNE.S	   X.5.13(PC)
000008F6 4EB900000000		 JSR	   E.FILE
000008FC 2041	      X.5.13	 MOVEA.L   D1,A0
000008FE 2050			 MOVEA.L   (A0),A0
00000900 4267			 CLR.W	   -(A7)
00000902 4850			 PEA	   (A0)
00000904 2F00			 MOVE.L	   D0,-(A7)
00000906 4EB900000000		 JSR	   T.WRITE
0000090C 2F00			 MOVE.L	   D0,-(A7)
0000090E 4EB900000000		 JSR	   T.WRTLN
		      *							       LINE 3/25
00000914 202D0000		 MOVE.L	   TTYOUTPUT-32768(A5),D0	         TTYOUTPUT
00000918 4A80			 TST.L	   D0
0000091A 6606			 BNE.S	   X.5.14(PC)
0000091C 4EB900000000		 JSR	   E.FILE
00000922 7233	      X.5.14	 MOVEQ	   #51,D1			         $33
00000924 3F01			 MOVE.W	   D1,-(A7)
00000926 7204			 MOVEQ	   #4,D1			         $400000928 3F01			 MOVE.W	   D1,-(A7)
0000092A 487AFD0E		 PEA	   K.29(PC)			         CODE.+$63A
0000092E 2F00			 MOVE.L	   D0,-(A7)
00000930 4EB900000000		 JSR	   T.WRITE
00000936 2F00			 MOVE.L	   D0,-(A7)
00000938 4EB900000000		 JSR	   T.WRTLN
		      *							       LINE 3/26
		      *							       LINE 3/27
0000093E 202D8008     L.5.5	 MOVE.L	   STATIC.+8-32768(A5),D0	         INTEGERFILE
00000942 4A80			 TST.L	   D0
00000944 6606			 BNE.S	   X.5.15(PC)
00000946 4EB900000000		 JSR	   E.FILE
0000094C 2040	      X.5.15	 MOVEA.L   D0,A0
0000094E 2050			 MOVEA.L   (A0),A0
00000950 2B50800C		 MOVE.L	   (A0),STATIC.+12-32768(A5)	         INTEGERVARIABLE
00000954 2F00			 MOVE.L	   D0,-(A7)
00000956 4EB900000000		 JSR	   Y.GET
		      *							       LINE 3/28
0000095C 202D8008		 MOVE.L	   STATIC.+8-32768(A5),D0	         INTEGERFILE
00000960 4A80			 TST.L	   D0
00000962 6606			 BNE.S	   X.5.16(PC)
00000964 4EB900000000		 JSR	   E.FILE
0000096A 2040	      X.5.16	 MOVEA.L   D0,A0
0000096C 2050			 MOVEA.L   (A0),A0
0000096E 2B50800C		 MOVE.L	   (A0),STATIC.+12-32768(A5)	         INTEGERVARIABLE
00000972 2F00			 MOVE.L	   D0,-(A7)
00000974 4EB900000000		 JSR	   Y.GET
		      *							       LINE 3/29
0000097A 0CAD0000DDD5		 CMPI.L	   #56789,STATIC.+12-32768(A5)	         $DDD5  INTEGERVARIABL
	 800C
00000982 67000092		 BEQ.L	   L.5.7(PC)
		      *							       LINE 3/30
		      *							       LINE 3/31
00000986 2D7C000000CB L.5.6	 MOVE.L	   #203,-4(A6)			         $CB  $FFFFFFFC
	 FFFC
0000098E 6100F682		 BSR.L	   B.3(PC)			         ERROR = CODE.+$12
		      *							       LINE 3/32
00000992 202D0000		 MOVE.L	   TTYOUTPUT-32768(A5),D0	         TTYOUTPUT
00000996 4A80			 TST.L	   D0
00000998 6606			 BNE.S	   X.5.17(PC)
0000099A 4EB900000000		 JSR	   E.FILE
000009A0 7226	      X.5.17	 MOVEQ	   #38,D1			         $26
000009A2 3F01			 MOVE.W	   D1,-(A7)
000009A4 7204			 MOVEQ	   #4,D1			         $4
000009A6 3F01			 MOVE.W	   D1,-(A7)000009A8 487AFCC4		 PEA	   K.30(PC)			         CODE.+$66E
000009AC 2F00			 MOVE.L	   D0,-(A7)
000009AE 4EB900000000		 JSR	   T.WRITE
000009B4 4267			 CLR.W	   -(A7)
000009B6 487AFCDC		 PEA	   K.31(PC)			         CODE.+$694
000009BA 2F00			 MOVE.L	   D0,-(A7)
000009BC 4EB900000000		 JSR	   T.WRITE
000009C2 7206			 MOVEQ	   #6,D1			         $6
000009C4 3F01			 MOVE.W	   D1,-(A7)
000009C6 7204			 MOVEQ	   #4,D1			         $4
000009C8 3F01			 MOVE.W	   D1,-(A7)
000009CA 487AFCCC		 PEA	   K.32(PC)			         CODE.+$698
000009CE 2F00			 MOVE.L	   D0,-(A7)
000009D0 4EB900000000		 JSR	   T.WRITE
000009D6 4267			 CLR.W	   -(A7)
000009D8 486D800C		 PEA	   STATIC.+12-32768(A5)		         INTEGERVARIABLE
000009DC 2F00			 MOVE.L	   D0,-(A7)
000009DE 4EB900000000		 JSR	   T.WRITE
000009E4 2F00			 MOVE.L	   D0,-(A7)
000009E6 4EB900000000		 JSR	   T.WRTLN
		      *							       LINE 3/34
000009EC 202D0000		 MOVE.L	   TTYOUTPUT-32768(A5),D0	         TTYOUTPUT
000009F0 4A80			 TST.L	   D0
000009F2 6606			 BNE.S	   X.5.18(PC)
000009F4 4EB900000000		 JSR	   E.FILE
000009FA 7234	      X.5.18	 MOVEQ	   #52,D1			         $34
000009FC 3F01			 MOVE.W	   D1,-(A7)
000009FE 7204			 MOVEQ	   #4,D1			         $4
00000A00 3F01			 MOVE.W	   D1,-(A7)
00000A02 487AFC9A		 PEA	   K.33(PC)			         CODE.+$69E
00000A06 2F00			 MOVE.L	   D0,-(A7)
00000A08 4EB900000000		 JSR	   T.WRITE
00000A0E 2F00			 MOVE.L	   D0,-(A7)
00000A10 4EB900000000		 JSR	   T.WRTLN
		      *							       LINE 3/35
		      *							       LINE 3/36
00000A16 202D8008     L.5.7	 MOVE.L	   STATIC.+8-32768(A5),D0	         INTEGERFILE
00000A1A 4A80			 TST.L	   D0
00000A1C 6606			 BNE.S	   X.5.19(PC)
00000A1E 4EB900000000		 JSR	   E.FILE
00000A24 2F00	      X.5.19	 MOVE.L	   D0,-(A7)
00000A26 4EB900000000		 JSR	   I.EOF
00000A2C 4A1F			 TST.B	   (A7)+
00000A2E 6636			 BNE.S	   L.5.9(PC)
		      *							       LINE 3/37		      *							       LINE 3/38
00000A30 2D7C000000CC L.5.8	 MOVE.L	   #204,-4(A6)			         $CC  $FFFFFFFC
	 FFFC
00000A38 6100F5D8		 BSR.L	   B.3(PC)			         ERROR = CODE.+$12
		      *							       LINE 3/39
00000A3C 202D0000		 MOVE.L	   TTYOUTPUT-32768(A5),D0	         TTYOUTPUT
00000A40 4A80			 TST.L	   D0
00000A42 6606			 BNE.S	   X.5.20(PC)
00000A44 4EB900000000		 JSR	   E.FILE
00000A4A 7226	      X.5.20	 MOVEQ	   #38,D1			         $26
00000A4C 3F01			 MOVE.W	   D1,-(A7)
00000A4E 7204			 MOVEQ	   #4,D1			         $4
00000A50 3F01			 MOVE.W	   D1,-(A7)
00000A52 487AFC7E		 PEA	   K.34(PC)			         CODE.+$6D2
00000A56 2F00			 MOVE.L	   D0,-(A7)
00000A58 4EB900000000		 JSR	   T.WRITE
00000A5E 2F00			 MOVE.L	   D0,-(A7)
00000A60 4EB900000000		 JSR	   T.WRTLN
		      *							       LINE 3/40
		      *							       LINE 3/41
00000A66 202D8008     L.5.9	 MOVE.L	   STATIC.+8-32768(A5),D0	         INTEGERFILE
00000A6A 4A80			 TST.L	   D0
00000A6C 6606			 BNE.S	   X.5.21(PC)
00000A6E 4EB900000000		 JSR	   E.FILE
00000A74 2F00	      X.5.21	 MOVE.L	   D0,-(A7)
00000A76 4EB900000000		 JSR	   I.CLOSE
		      *							       LINE 3/42
00000A7C 4E75			 RTS	   
		      *
		      *		 Constant area for subroutine TESTBOOLEANFILE
		      *
00000A7E 57726F6E6720 K.35	 DC.B	   'Wrong value in booleanfile: expected: '
00000AA4 01	      K.36	 DC.B	   1				         $1
00000AA5 00000001		 DS.B	   1				       Fill byte
00000AA6 20676F743A20 K.37	 DC.B	   ' got: '
00000AAC 56616C756520 K.38	 DC.B	   'Value placed in file by "put", retrieved by "reset"'
00000ADF 00000001		 DS.B	   1
00000AE0 57726F6E6720 K.39	 DC.B	   'Wrong value in booleanfile: expected: '
00000B06 00	      K.40	 DC.B	   0				         $0
00000B07 00000001		 DS.B	   1				       Fill byte
00000B08 20676F743A20 K.41	 DC.B	   ' got: '
00000B0E 56616C756520 K.42	 DC.B	   'Value placed in file by "write", retrieved by "get"'
00000B41 00000001		 DS.B	   1
00000B42 57726F6E6720 K.43	 DC.B	   'Wrong value in booleanfile: expected: '
00000B68 01	      K.44	 DC.B	   1				         $100000B69 00000001		 DS.B	   1				       Fill byte
00000B6A 20676F743A20 K.45	 DC.B	   ' got: '
00000B70 56616C756520 K.46	 DC.B	   'Value placed in file by "write", retrieved by "read"'
00000BA4 4469646E2774 K.47	 DC.B	   'Didn't get end of file on booleanfile.'
		      *
		      *		 Begin subroutine TESTBOOLEANFILE
		      *
00000BCA	      B.6
		      *							       LINE 4/4
		      *							       LINE 4/5
00000BCA 7001	      L.6.1	 MOVEQ	   #1,D0			         $1
00000BCC 3F00			 MOVE.W	   D0,-(A7)
00000BCE 486D807A		 PEA	   STATIC.+120-32766(A5)	         REAL_FILENAME
00000BD2 3F2D8078		 MOVE.W	   STATIC.+120-32768(A5),-(A7)	         REAL_FILENAME
00000BD6 702A			 MOVEQ	   #42,D0			         $2A
00000BD8 3F00			 MOVE.W	   D0,-(A7)
00000BDA 4EB900000000		 JSR	   Y.INIT
00000BE0 2B5F8010		 MOVE.L	   (A7)+,STATIC.+16-32768(A5)	         BOOLEANFILE
		      *							       LINE 4/6
00000BE4 202D8010		 MOVE.L	   STATIC.+16-32768(A5),D0	         BOOLEANFILE
00000BE8 4A80			 TST.L	   D0
00000BEA 6606			 BNE.S	   X.6.1(PC)
00000BEC 4EB900000000		 JSR	   E.FILE
00000BF2 2040	      X.6.1	 MOVEA.L   D0,A0
00000BF4 2050			 MOVEA.L   (A0),A0
00000BF6 7001			 MOVEQ	   #1,D0			         $1
00000BF8 1080			 MOVE.B	   D0,(A0)
		      *							       LINE 4/7
00000BFA 202D8010		 MOVE.L	   STATIC.+16-32768(A5),D0	         BOOLEANFILE
00000BFE 4A80			 TST.L	   D0
00000C00 6606			 BNE.S	   X.6.2(PC)
00000C02 4EB900000000		 JSR	   E.FILE
00000C08 2F00	      X.6.2	 MOVE.L	   D0,-(A7)
00000C0A 4EB900000000		 JSR	   Y.PUT
		      *							       LINE 4/8
00000C10 202D8010		 MOVE.L	   STATIC.+16-32768(A5),D0	         BOOLEANFILE
00000C14 4A80			 TST.L	   D0
00000C16 6606			 BNE.S	   X.6.3(PC)
00000C18 4EB900000000		 JSR	   E.FILE
00000C1E 2040	      X.6.3	 MOVEA.L   D0,A0
00000C20 2050			 MOVEA.L   (A0),A0
00000C22 7200			 MOVEQ	   #0,D1			         $0
00000C24 1081			 MOVE.B	   D1,(A0)
00000C26 2F00			 MOVE.L	   D0,-(A7)
00000C28 4EB900000000		 JSR	   Y.PUT		      *							       LINE 4/9
00000C2E 202D8010		 MOVE.L	   STATIC.+16-32768(A5),D0	         BOOLEANFILE
00000C32 4A80			 TST.L	   D0
00000C34 6606			 BNE.S	   X.6.4(PC)
00000C36 4EB900000000		 JSR	   E.FILE
00000C3C 2040	      X.6.4	 MOVEA.L   D0,A0
00000C3E 2050			 MOVEA.L   (A0),A0
00000C40 7201			 MOVEQ	   #1,D1			         $1
00000C42 1081			 MOVE.B	   D1,(A0)
00000C44 2F00			 MOVE.L	   D0,-(A7)
00000C46 4EB900000000		 JSR	   Y.PUT
		      *							       LINE 4/10
00000C4C 202D8010		 MOVE.L	   STATIC.+16-32768(A5),D0	         BOOLEANFILE
00000C50 4A80			 TST.L	   D0
00000C52 6606			 BNE.S	   X.6.5(PC)
00000C54 4EB900000000		 JSR	   E.FILE
00000C5A 2F00	      X.6.5	 MOVE.L	   D0,-(A7)
00000C5C 4EB900000000		 JSR	   I.CLOSE
		      *							       LINE 4/11
00000C62 7001			 MOVEQ	   #1,D0			         $1
00000C64 3F00			 MOVE.W	   D0,-(A7)
00000C66 486D807A		 PEA	   STATIC.+120-32766(A5)	         REAL_FILENAME
00000C6A 3F2D8078		 MOVE.W	   STATIC.+120-32768(A5),-(A7)	         REAL_FILENAME
00000C6E 7029			 MOVEQ	   #41,D0			         $29
00000C70 3F00			 MOVE.W	   D0,-(A7)
00000C72 4EB900000000		 JSR	   Y.INIT
00000C78 2B5F8010		 MOVE.L	   (A7)+,STATIC.+16-32768(A5)	         BOOLEANFILE
		      *							       LINE 4/12
00000C7C 202D8010		 MOVE.L	   STATIC.+16-32768(A5),D0	         BOOLEANFILE
00000C80 4A80			 TST.L	   D0
00000C82 6606			 BNE.S	   X.6.6(PC)
00000C84 4EB900000000		 JSR	   E.FILE
00000C8A 2040	      X.6.6	 MOVEA.L   D0,A0
00000C8C 2050			 MOVEA.L   (A0),A0
00000C8E 7001			 MOVEQ	   #1,D0			         $1
00000C90 B010			 CMP.B	   (A0),D0
00000C92 670000A6		 BEQ.L	   L.6.3(PC)
		      *							       LINE 4/13
		      *							       LINE 4/14
00000C96 2D7C0000012D L.6.2	 MOVE.L	   #301,-4(A6)			         $12D  $FFFFFFFC
	 FFFC
00000C9E 6100F372		 BSR.L	   B.3(PC)			         ERROR = CODE.+$12
		      *							       LINE 4/15
00000CA2 202D0000		 MOVE.L	   TTYOUTPUT-32768(A5),D0	         TTYOUTPUT
00000CA6 4A80			 TST.L	   D000000CA8 6606			 BNE.S	   X.6.7(PC)
00000CAA 4EB900000000		 JSR	   E.FILE
00000CB0 7226	      X.6.7	 MOVEQ	   #38,D1			         $26
00000CB2 3F01			 MOVE.W	   D1,-(A7)
00000CB4 7204			 MOVEQ	   #4,D1			         $4
00000CB6 3F01			 MOVE.W	   D1,-(A7)
00000CB8 487AFDC4		 PEA	   K.35(PC)			         CODE.+$A7E
00000CBC 2F00			 MOVE.L	   D0,-(A7)
00000CBE 4EB900000000		 JSR	   T.WRITE
00000CC4 7205			 MOVEQ	   #5,D1			         $5
00000CC6 3F01			 MOVE.W	   D1,-(A7)
00000CC8 487AFDDA		 PEA	   K.36(PC)			         CODE.+$AA4
00000CCC 2F00			 MOVE.L	   D0,-(A7)
00000CCE 4EB900000000		 JSR	   T.WRITE
00000CD4 7206			 MOVEQ	   #6,D1			         $6
00000CD6 3F01			 MOVE.W	   D1,-(A7)
00000CD8 7204			 MOVEQ	   #4,D1			         $4
00000CDA 3F01			 MOVE.W	   D1,-(A7)
00000CDC 487AFDC8		 PEA	   K.37(PC)			         CODE.+$AA6
00000CE0 2F00			 MOVE.L	   D0,-(A7)
00000CE2 4EB900000000		 JSR	   T.WRITE
00000CE8 222D8010		 MOVE.L	   STATIC.+16-32768(A5),D1	         BOOLEANFILE
00000CEC 4A81			 TST.L	   D1
00000CEE 6606			 BNE.S	   X.6.8(PC)
00000CF0 4EB900000000		 JSR	   E.FILE
00000CF6 2041	      X.6.8	 MOVEA.L   D1,A0
00000CF8 2050			 MOVEA.L   (A0),A0
00000CFA 7205			 MOVEQ	   #5,D1			         $5
00000CFC 3F01			 MOVE.W	   D1,-(A7)
00000CFE 4850			 PEA	   (A0)
00000D00 2F00			 MOVE.L	   D0,-(A7)
00000D02 4EB900000000		 JSR	   T.WRITE
00000D08 2F00			 MOVE.L	   D0,-(A7)
00000D0A 4EB900000000		 JSR	   T.WRTLN
		      *							       LINE 4/17
00000D10 202D0000		 MOVE.L	   TTYOUTPUT-32768(A5),D0	         TTYOUTPUT
00000D14 4A80			 TST.L	   D0
00000D16 6606			 BNE.S	   X.6.9(PC)
00000D18 4EB900000000		 JSR	   E.FILE
00000D1E 7233	      X.6.9	 MOVEQ	   #51,D1			         $33
00000D20 3F01			 MOVE.W	   D1,-(A7)
00000D22 7204			 MOVEQ	   #4,D1			         $4
00000D24 3F01			 MOVE.W	   D1,-(A7)
00000D26 487AFD84		 PEA	   K.38(PC)			         CODE.+$AAC
00000D2A 2F00			 MOVE.L	   D0,-(A7)00000D2C 4EB900000000		 JSR	   T.WRITE
00000D32 2F00			 MOVE.L	   D0,-(A7)
00000D34 4EB900000000		 JSR	   T.WRTLN
		      *							       LINE 4/18
		      *							       LINE 4/19
00000D3A 202D8010     L.6.3	 MOVE.L	   STATIC.+16-32768(A5),D0	         BOOLEANFILE
00000D3E 4A80			 TST.L	   D0
00000D40 6606			 BNE.S	   X.6.10(PC)
00000D42 4EB900000000		 JSR	   E.FILE
00000D48 2F00	      X.6.10	 MOVE.L	   D0,-(A7)
00000D4A 4EB900000000		 JSR	   Y.GET
		      *							       LINE 4/20
00000D50 202D8010		 MOVE.L	   STATIC.+16-32768(A5),D0	         BOOLEANFILE
00000D54 4A80			 TST.L	   D0
00000D56 6606			 BNE.S	   X.6.11(PC)
00000D58 4EB900000000		 JSR	   E.FILE
00000D5E 2040	      X.6.11	 MOVEA.L   D0,A0
00000D60 2050			 MOVEA.L   (A0),A0
00000D62 4A10			 TST.B	   (A0)
00000D64 670000A6		 BEQ.L	   L.6.5(PC)
		      *							       LINE 4/21
		      *							       LINE 4/22
00000D68 2D7C0000012E L.6.4	 MOVE.L	   #302,-4(A6)			         $12E  $FFFFFFFC
	 FFFC
00000D70 6100F2A0		 BSR.L	   B.3(PC)			         ERROR = CODE.+$12
		      *							       LINE 4/23
00000D74 202D0000		 MOVE.L	   TTYOUTPUT-32768(A5),D0	         TTYOUTPUT
00000D78 4A80			 TST.L	   D0
00000D7A 6606			 BNE.S	   X.6.12(PC)
00000D7C 4EB900000000		 JSR	   E.FILE
00000D82 7226	      X.6.12	 MOVEQ	   #38,D1			         $26
00000D84 3F01			 MOVE.W	   D1,-(A7)
00000D86 7204			 MOVEQ	   #4,D1			         $4
00000D88 3F01			 MOVE.W	   D1,-(A7)
00000D8A 487AFD54		 PEA	   K.39(PC)			         CODE.+$AE0
00000D8E 2F00			 MOVE.L	   D0,-(A7)
00000D90 4EB900000000		 JSR	   T.WRITE
00000D96 7205			 MOVEQ	   #5,D1			         $5
00000D98 3F01			 MOVE.W	   D1,-(A7)
00000D9A 487AFD6A		 PEA	   K.40(PC)			         CODE.+$B06
00000D9E 2F00			 MOVE.L	   D0,-(A7)
00000DA0 4EB900000000		 JSR	   T.WRITE
00000DA6 7206			 MOVEQ	   #6,D1			         $6
00000DA8 3F01			 MOVE.W	   D1,-(A7)
00000DAA 7204			 MOVEQ	   #4,D1			         $400000DAC 3F01			 MOVE.W	   D1,-(A7)
00000DAE 487AFD58		 PEA	   K.41(PC)			         CODE.+$B08
00000DB2 2F00			 MOVE.L	   D0,-(A7)
00000DB4 4EB900000000		 JSR	   T.WRITE
00000DBA 222D8010		 MOVE.L	   STATIC.+16-32768(A5),D1	         BOOLEANFILE
00000DBE 4A81			 TST.L	   D1
00000DC0 6606			 BNE.S	   X.6.13(PC)
00000DC2 4EB900000000		 JSR	   E.FILE
00000DC8 2041	      X.6.13	 MOVEA.L   D1,A0
00000DCA 2050			 MOVEA.L   (A0),A0
00000DCC 7205			 MOVEQ	   #5,D1			         $5
00000DCE 3F01			 MOVE.W	   D1,-(A7)
00000DD0 4850			 PEA	   (A0)
00000DD2 2F00			 MOVE.L	   D0,-(A7)
00000DD4 4EB900000000		 JSR	   T.WRITE
00000DDA 2F00			 MOVE.L	   D0,-(A7)
00000DDC 4EB900000000		 JSR	   T.WRTLN
		      *							       LINE 4/25
00000DE2 202D0000		 MOVE.L	   TTYOUTPUT-32768(A5),D0	         TTYOUTPUT
00000DE6 4A80			 TST.L	   D0
00000DE8 6606			 BNE.S	   X.6.14(PC)
00000DEA 4EB900000000		 JSR	   E.FILE
00000DF0 7233	      X.6.14	 MOVEQ	   #51,D1			         $33
00000DF2 3F01			 MOVE.W	   D1,-(A7)
00000DF4 7204			 MOVEQ	   #4,D1			         $4
00000DF6 3F01			 MOVE.W	   D1,-(A7)
00000DF8 487AFD14		 PEA	   K.42(PC)			         CODE.+$B0E
00000DFC 2F00			 MOVE.L	   D0,-(A7)
00000DFE 4EB900000000		 JSR	   T.WRITE
00000E04 2F00			 MOVE.L	   D0,-(A7)
00000E06 4EB900000000		 JSR	   T.WRTLN
		      *							       LINE 4/26
		      *							       LINE 4/27
00000E0C 202D8010     L.6.5	 MOVE.L	   STATIC.+16-32768(A5),D0	         BOOLEANFILE
00000E10 4A80			 TST.L	   D0
00000E12 6606			 BNE.S	   X.6.15(PC)
00000E14 4EB900000000		 JSR	   E.FILE
00000E1A 2040	      X.6.15	 MOVEA.L   D0,A0
00000E1C 2050			 MOVEA.L   (A0),A0
00000E1E 1B508014		 MOVE.B	   (A0),STATIC.+20-32768(A5)	         BOOLEANVARIABLE
00000E22 2F00			 MOVE.L	   D0,-(A7)
00000E24 4EB900000000		 JSR	   Y.GET
		      *							       LINE 4/28
00000E2A 202D8010		 MOVE.L	   STATIC.+16-32768(A5),D0	         BOOLEANFILE
00000E2E 4A80			 TST.L	   D000000E30 6606			 BNE.S	   X.6.16(PC)
00000E32 4EB900000000		 JSR	   E.FILE
00000E38 2040	      X.6.16	 MOVEA.L   D0,A0
00000E3A 2050			 MOVEA.L   (A0),A0
00000E3C 1B508014		 MOVE.B	   (A0),STATIC.+20-32768(A5)	         BOOLEANVARIABLE
00000E40 2F00			 MOVE.L	   D0,-(A7)
00000E42 4EB900000000		 JSR	   Y.GET
		      *							       LINE 4/29
00000E48 7001			 MOVEQ	   #1,D0			         $1
00000E4A B02D8014		 CMP.B	   STATIC.+20-32768(A5),D0	         BOOLEANVARIABLE
00000E4E 67000096		 BEQ.L	   L.6.7(PC)
		      *							       LINE 4/30
		      *							       LINE 4/31
00000E52 2D7C0000012F L.6.6	 MOVE.L	   #303,-4(A6)			         $12F  $FFFFFFFC
	 FFFC
00000E5A 6100F1B6		 BSR.L	   B.3(PC)			         ERROR = CODE.+$12
		      *							       LINE 4/32
00000E5E 202D0000		 MOVE.L	   TTYOUTPUT-32768(A5),D0	         TTYOUTPUT
00000E62 4A80			 TST.L	   D0
00000E64 6606			 BNE.S	   X.6.17(PC)
00000E66 4EB900000000		 JSR	   E.FILE
00000E6C 7226	      X.6.17	 MOVEQ	   #38,D1			         $26
00000E6E 3F01			 MOVE.W	   D1,-(A7)
00000E70 7204			 MOVEQ	   #4,D1			         $4
00000E72 3F01			 MOVE.W	   D1,-(A7)
00000E74 487AFCCC		 PEA	   K.43(PC)			         CODE.+$B42
00000E78 2F00			 MOVE.L	   D0,-(A7)
00000E7A 4EB900000000		 JSR	   T.WRITE
00000E80 7205			 MOVEQ	   #5,D1			         $5
00000E82 3F01			 MOVE.W	   D1,-(A7)
00000E84 487AFCE2		 PEA	   K.44(PC)			         CODE.+$B68
00000E88 2F00			 MOVE.L	   D0,-(A7)
00000E8A 4EB900000000		 JSR	   T.WRITE
00000E90 7206			 MOVEQ	   #6,D1			         $6
00000E92 3F01			 MOVE.W	   D1,-(A7)
00000E94 7204			 MOVEQ	   #4,D1			         $4
00000E96 3F01			 MOVE.W	   D1,-(A7)
00000E98 487AFCD0		 PEA	   K.45(PC)			         CODE.+$B6A
00000E9C 2F00			 MOVE.L	   D0,-(A7)
00000E9E 4EB900000000		 JSR	   T.WRITE
00000EA4 7205			 MOVEQ	   #5,D1			         $5
00000EA6 3F01			 MOVE.W	   D1,-(A7)
00000EA8 486D8014		 PEA	   STATIC.+20-32768(A5)		         BOOLEANVARIABLE
00000EAC 2F00			 MOVE.L	   D0,-(A7)
00000EAE 4EB900000000		 JSR	   T.WRITE00000EB4 2F00			 MOVE.L	   D0,-(A7)
00000EB6 4EB900000000		 JSR	   T.WRTLN
		      *							       LINE 4/34
00000EBC 202D0000		 MOVE.L	   TTYOUTPUT-32768(A5),D0	         TTYOUTPUT
00000EC0 4A80			 TST.L	   D0
00000EC2 6606			 BNE.S	   X.6.18(PC)
00000EC4 4EB900000000		 JSR	   E.FILE
00000ECA 7234	      X.6.18	 MOVEQ	   #52,D1			         $34
00000ECC 3F01			 MOVE.W	   D1,-(A7)
00000ECE 7204			 MOVEQ	   #4,D1			         $4
00000ED0 3F01			 MOVE.W	   D1,-(A7)
00000ED2 487AFC9C		 PEA	   K.46(PC)			         CODE.+$B70
00000ED6 2F00			 MOVE.L	   D0,-(A7)
00000ED8 4EB900000000		 JSR	   T.WRITE
00000EDE 2F00			 MOVE.L	   D0,-(A7)
00000EE0 4EB900000000		 JSR	   T.WRTLN
		      *							       LINE 4/35
		      *							       LINE 4/36
00000EE6 202D8010     L.6.7	 MOVE.L	   STATIC.+16-32768(A5),D0	         BOOLEANFILE
00000EEA 4A80			 TST.L	   D0
00000EEC 6606			 BNE.S	   X.6.19(PC)
00000EEE 4EB900000000		 JSR	   E.FILE
00000EF4 2F00	      X.6.19	 MOVE.L	   D0,-(A7)
00000EF6 4EB900000000		 JSR	   I.EOF
00000EFC 4A1F			 TST.B	   (A7)+
00000EFE 6636			 BNE.S	   L.6.9(PC)
		      *							       LINE 4/37
		      *							       LINE 4/38
00000F00 2D7C00000130 L.6.8	 MOVE.L	   #304,-4(A6)			         $130  $FFFFFFFC
	 FFFC
00000F08 6100F108		 BSR.L	   B.3(PC)			         ERROR = CODE.+$12
		      *							       LINE 4/39
00000F0C 202D0000		 MOVE.L	   TTYOUTPUT-32768(A5),D0	         TTYOUTPUT
00000F10 4A80			 TST.L	   D0
00000F12 6606			 BNE.S	   X.6.20(PC)
00000F14 4EB900000000		 JSR	   E.FILE
00000F1A 7226	      X.6.20	 MOVEQ	   #38,D1			         $26
00000F1C 3F01			 MOVE.W	   D1,-(A7)
00000F1E 7204			 MOVEQ	   #4,D1			         $4
00000F20 3F01			 MOVE.W	   D1,-(A7)
00000F22 487AFC80		 PEA	   K.47(PC)			         CODE.+$BA4
00000F26 2F00			 MOVE.L	   D0,-(A7)
00000F28 4EB900000000		 JSR	   T.WRITE
00000F2E 2F00			 MOVE.L	   D0,-(A7)
00000F30 4EB900000000		 JSR	   T.WRTLN		      *							       LINE 4/40
		      *							       LINE 4/41
00000F36 202D8010     L.6.9	 MOVE.L	   STATIC.+16-32768(A5),D0	         BOOLEANFILE
00000F3A 4A80			 TST.L	   D0
00000F3C 6606			 BNE.S	   X.6.21(PC)
00000F3E 4EB900000000		 JSR	   E.FILE
00000F44 2F00	      X.6.21	 MOVE.L	   D0,-(A7)
00000F46 4EB900000000		 JSR	   I.CLOSE
		      *							       LINE 4/42
00000F4C 4E75			 RTS	   
		      *
		      *		 Constant area for subroutine TESTSTRINGFILE
		      *
00000F4E 746865207175 K.48	 DC.B	   'the quick '
00000F58 57726F6E6720 K.49	 DC.B	   'Wrong value in stringfile: expected: '
00000F7D 00000001		 DS.B	   1
00000F7E 746865207175 K.50	 DC.B	   'the quick '
00000F88 20676F743A20 K.51	 DC.B	   ' got: '
00000F8E 56616C756520 K.52	 DC.B	   'Value placed in file by "put", retrieved by "reset"'
00000FC1 00000001		 DS.B	   1
00000FC2 62726F776E20 K.53	 DC.B	   'brown fox '
00000FCC 57726F6E6720 K.54	 DC.B	   'Wrong value in stringfile: expected: '
00000FF1 00000001		 DS.B	   1
00000FF2 62726F776E20 K.55	 DC.B	   'brown fox '
00000FFC 20676F743A20 K.56	 DC.B	   ' got: '
00001002 56616C756520 K.57	 DC.B	   'Value placed in file by "write", retrieved by "get"'
00001035 00000001		 DS.B	   1
00001036 6A756D706564 K.58	 DC.B	   'jumped ove'
00001040 57726F6E6720 K.59	 DC.B	   'Wrong value in stringfile: expected: '
00001065 00000001		 DS.B	   1
00001066 6A756D706564 K.60	 DC.B	   'jumped ove'
00001070 20676F743A20 K.61	 DC.B	   ' got: '
00001076 56616C756520 K.62	 DC.B	   'Value placed in file by "write", retrieved by "read"'
000010AA 4469646E2774 K.63	 DC.B	   'Didn't get end of file on stringfile.'
000010CF 00000001		 DS.B	   1
		      *
		      *		 Begin subroutine TESTSTRINGFILE
		      *
000010D0	      B.7
		      *							       LINE 5/4
		      *							       LINE 5/5
000010D0 700C	      L.7.1	 MOVEQ	   #12,D0			         $C
000010D2 3F00			 MOVE.W	   D0,-(A7)
000010D4 486D807A		 PEA	   STATIC.+120-32766(A5)	         REAL_FILENAME
000010D8 3F2D8078		 MOVE.W	   STATIC.+120-32768(A5),-(A7)	         REAL_FILENAME000010DC 702A			 MOVEQ	   #42,D0			         $2A
000010DE 3F00			 MOVE.W	   D0,-(A7)
000010E0 4EB900000000		 JSR	   Y.INIT
000010E6 2B5F8016		 MOVE.L	   (A7)+,STATIC.+22-32768(A5)	         STRINGFILE
		      *							       LINE 5/6
000010EA 202D8016		 MOVE.L	   STATIC.+22-32768(A5),D0	         STRINGFILE
000010EE 4A80			 TST.L	   D0
000010F0 6606			 BNE.S	   X.7.1(PC)
000010F2 4EB900000000		 JSR	   E.FILE
000010F8 2040	      X.7.1	 MOVEA.L   D0,A0
000010FA 2050			 MOVEA.L   (A0),A0
000010FC 43D0			 LEA	   (A0),A1
000010FE 22FC000A7468		 MOVE.L	   #685160,(A1)+		         $A7468
00001104 22FC65207175		 MOVE.L	   #1696625013,(A1)+		         $65207175
0000110A 22FC69636B20		 MOVE.L	   #1768123168,(A1)+		         $69636B20
		      *							       LINE 5/7
00001110 202D8016		 MOVE.L	   STATIC.+22-32768(A5),D0	         STRINGFILE
00001114 4A80			 TST.L	   D0
00001116 6606			 BNE.S	   X.7.2(PC)
00001118 4EB900000000		 JSR	   E.FILE
0000111E 2F00	      X.7.2	 MOVE.L	   D0,-(A7)
00001120 4EB900000000		 JSR	   Y.PUT
		      *							       LINE 5/8
00001126 202D8016		 MOVE.L	   STATIC.+22-32768(A5),D0	         STRINGFILE
0000112A 4A80			 TST.L	   D0
0000112C 6606			 BNE.S	   X.7.3(PC)
0000112E 4EB900000000		 JSR	   E.FILE
00001134 2040	      X.7.3	 MOVEA.L   D0,A0
00001136 2050			 MOVEA.L   (A0),A0
00001138 43D0			 LEA	   (A0),A1
0000113A 22FC000A6272		 MOVE.L	   #680562,(A1)+		         $A6272
00001140 22FC6F776E20		 MOVE.L	   #1870097952,(A1)+		         $6F776E20
00001146 22FC666F7820		 MOVE.L	   #1718581280,(A1)+		         $666F7820
0000114C 2F00			 MOVE.L	   D0,-(A7)
0000114E 4EB900000000		 JSR	   Y.PUT
		      *							       LINE 5/9
00001154 202D8016		 MOVE.L	   STATIC.+22-32768(A5),D0	         STRINGFILE
00001158 4A80			 TST.L	   D0
0000115A 6606			 BNE.S	   X.7.4(PC)
0000115C 4EB900000000		 JSR	   E.FILE
00001162 2040	      X.7.4	 MOVEA.L   D0,A0
00001164 2050			 MOVEA.L   (A0),A0
00001166 43D0			 LEA	   (A0),A1
00001168 22FC000A6A75		 MOVE.L	   #682613,(A1)+		         $A6A75
0000116E 22FC6D706564		 MOVE.L	   #1836082532,(A1)+		         $6D70656400001174 22FC206F7665		 MOVE.L	   #544175717,(A1)+		         $206F7665
0000117A 2F00			 MOVE.L	   D0,-(A7)
0000117C 4EB900000000		 JSR	   Y.PUT
		      *							       LINE 5/10
00001182 202D8016		 MOVE.L	   STATIC.+22-32768(A5),D0	         STRINGFILE
00001186 4A80			 TST.L	   D0
00001188 6606			 BNE.S	   X.7.5(PC)
0000118A 4EB900000000		 JSR	   E.FILE
00001190 2F00	      X.7.5	 MOVE.L	   D0,-(A7)
00001192 4EB900000000		 JSR	   I.CLOSE
		      *							       LINE 5/11
00001198 700C			 MOVEQ	   #12,D0			         $C
0000119A 3F00			 MOVE.W	   D0,-(A7)
0000119C 486D807A		 PEA	   STATIC.+120-32766(A5)	         REAL_FILENAME
000011A0 3F2D8078		 MOVE.W	   STATIC.+120-32768(A5),-(A7)	         REAL_FILENAME
000011A4 7029			 MOVEQ	   #41,D0			         $29
000011A6 3F00			 MOVE.W	   D0,-(A7)
000011A8 4EB900000000		 JSR	   Y.INIT
000011AE 2B5F8016		 MOVE.L	   (A7)+,STATIC.+22-32768(A5)	         STRINGFILE
		      *							       LINE 5/12
000011B2 202D8016		 MOVE.L	   STATIC.+22-32768(A5),D0	         STRINGFILE
000011B6 4A80			 TST.L	   D0
000011B8 6606			 BNE.S	   X.7.6(PC)
000011BA 4EB900000000		 JSR	   E.FILE
000011C0 2040	      X.7.6	 MOVEA.L   D0,A0
000011C2 2050			 MOVEA.L   (A0),A0
000011C4 487AFD88		 PEA	   K.48(PC)			         CODE.+$F4E
000011C8 700A			 MOVEQ	   #10,D0			         $A
000011CA 3F00			 MOVE.W	   D0,-(A7)
000011CC 48680002		 PEA	   2(A0)			         $2
000011D0 3F10			 MOVE.W	   (A0),-(A7)
000011D2 4EB900000000		 JSR	   C.CPFF
000011D8 670000AE		 BEQ.L	   L.7.3(PC)
		      *							       LINE 5/13
		      *							       LINE 5/14
000011DC 2D7C00000191 L.7.2	 MOVE.L	   #401,-4(A6)			         $191  $FFFFFFFC
	 FFFC
000011E4 6100EE2C		 BSR.L	   B.3(PC)			         ERROR = CODE.+$12
		      *							       LINE 5/15
000011E8 202D0000		 MOVE.L	   TTYOUTPUT-32768(A5),D0	         TTYOUTPUT
000011EC 4A80			 TST.L	   D0
000011EE 6606			 BNE.S	   X.7.7(PC)
000011F0 4EB900000000		 JSR	   E.FILE
000011F6 7225	      X.7.7	 MOVEQ	   #37,D1			         $25
000011F8 3F01			 MOVE.W	   D1,-(A7)000011FA 7204			 MOVEQ	   #4,D1			         $4
000011FC 3F01			 MOVE.W	   D1,-(A7)
000011FE 487AFD58		 PEA	   K.49(PC)			         CODE.+$F58
00001202 2F00			 MOVE.L	   D0,-(A7)
00001204 4EB900000000		 JSR	   T.WRITE
0000120A 720A			 MOVEQ	   #10,D1			         $A
0000120C 3F01			 MOVE.W	   D1,-(A7)
0000120E 7204			 MOVEQ	   #4,D1			         $4
00001210 3F01			 MOVE.W	   D1,-(A7)
00001212 487AFD6A		 PEA	   K.50(PC)			         CODE.+$F7E
00001216 2F00			 MOVE.L	   D0,-(A7)
00001218 4EB900000000		 JSR	   T.WRITE
0000121E 7206			 MOVEQ	   #6,D1			         $6
00001220 3F01			 MOVE.W	   D1,-(A7)
00001222 7204			 MOVEQ	   #4,D1			         $4
00001224 3F01			 MOVE.W	   D1,-(A7)
00001226 487AFD60		 PEA	   K.51(PC)			         CODE.+$F88
0000122A 2F00			 MOVE.L	   D0,-(A7)
0000122C 4EB900000000		 JSR	   T.WRITE
00001232 222D8016		 MOVE.L	   STATIC.+22-32768(A5),D1	         STRINGFILE
00001236 4A81			 TST.L	   D1
00001238 6606			 BNE.S	   X.7.8(PC)
0000123A 4EB900000000		 JSR	   E.FILE
00001240 2041	      X.7.8	 MOVEA.L   D1,A0
00001242 2050			 MOVEA.L   (A0),A0
00001244 3F10			 MOVE.W	   (A0),-(A7)
00001246 7203			 MOVEQ	   #3,D1			         $3
00001248 3F01			 MOVE.W	   D1,-(A7)
0000124A 48680002		 PEA	   2(A0)			         $2
0000124E 2F00			 MOVE.L	   D0,-(A7)
00001250 4EB900000000		 JSR	   T.WRITE
00001256 2F00			 MOVE.L	   D0,-(A7)
00001258 4EB900000000		 JSR	   T.WRTLN
		      *							       LINE 5/17
0000125E 202D0000		 MOVE.L	   TTYOUTPUT-32768(A5),D0	         TTYOUTPUT
00001262 4A80			 TST.L	   D0
00001264 6606			 BNE.S	   X.7.9(PC)
00001266 4EB900000000		 JSR	   E.FILE
0000126C 7233	      X.7.9	 MOVEQ	   #51,D1			         $33
0000126E 3F01			 MOVE.W	   D1,-(A7)
00001270 7204			 MOVEQ	   #4,D1			         $4
00001272 3F01			 MOVE.W	   D1,-(A7)
00001274 487AFD18		 PEA	   K.52(PC)			         CODE.+$F8E
00001278 2F00			 MOVE.L	   D0,-(A7)
0000127A 4EB900000000		 JSR	   T.WRITE00001280 2F00			 MOVE.L	   D0,-(A7)
00001282 4EB900000000		 JSR	   T.WRTLN
		      *							       LINE 5/18
		      *							       LINE 5/19
00001288 202D8016     L.7.3	 MOVE.L	   STATIC.+22-32768(A5),D0	         STRINGFILE
0000128C 4A80			 TST.L	   D0
0000128E 6606			 BNE.S	   X.7.10(PC)
00001290 4EB900000000		 JSR	   E.FILE
00001296 2F00	      X.7.10	 MOVE.L	   D0,-(A7)
00001298 4EB900000000		 JSR	   Y.GET
		      *							       LINE 5/20
0000129E 202D8016		 MOVE.L	   STATIC.+22-32768(A5),D0	         STRINGFILE
000012A2 4A80			 TST.L	   D0
000012A4 6606			 BNE.S	   X.7.11(PC)
000012A6 4EB900000000		 JSR	   E.FILE
000012AC 2040	      X.7.11	 MOVEA.L   D0,A0
000012AE 2050			 MOVEA.L   (A0),A0
000012B0 487AFD10		 PEA	   K.53(PC)			         CODE.+$FC2
000012B4 700A			 MOVEQ	   #10,D0			         $A
000012B6 3F00			 MOVE.W	   D0,-(A7)
000012B8 48680002		 PEA	   2(A0)			         $2
000012BC 3F10			 MOVE.W	   (A0),-(A7)
000012BE 4EB900000000		 JSR	   C.CPFF
000012C4 670000AE		 BEQ.L	   L.7.5(PC)
		      *							       LINE 5/21
		      *							       LINE 5/22
000012C8 2D7C00000192 L.7.4	 MOVE.L	   #402,-4(A6)			         $192  $FFFFFFFC
	 FFFC
000012D0 6100ED40		 BSR.L	   B.3(PC)			         ERROR = CODE.+$12
		      *							       LINE 5/23
000012D4 202D0000		 MOVE.L	   TTYOUTPUT-32768(A5),D0	         TTYOUTPUT
000012D8 4A80			 TST.L	   D0
000012DA 6606			 BNE.S	   X.7.12(PC)
000012DC 4EB900000000		 JSR	   E.FILE
000012E2 7225	      X.7.12	 MOVEQ	   #37,D1			         $25
000012E4 3F01			 MOVE.W	   D1,-(A7)
000012E6 7204			 MOVEQ	   #4,D1			         $4
000012E8 3F01			 MOVE.W	   D1,-(A7)
000012EA 487AFCE0		 PEA	   K.54(PC)			         CODE.+$FCC
000012EE 2F00			 MOVE.L	   D0,-(A7)
000012F0 4EB900000000		 JSR	   T.WRITE
000012F6 720A			 MOVEQ	   #10,D1			         $A
000012F8 3F01			 MOVE.W	   D1,-(A7)
000012FA 7204			 MOVEQ	   #4,D1			         $4
000012FC 3F01			 MOVE.W	   D1,-(A7)000012FE 487AFCF2		 PEA	   K.55(PC)			         CODE.+$FF2
00001302 2F00			 MOVE.L	   D0,-(A7)
00001304 4EB900000000		 JSR	   T.WRITE
0000130A 7206			 MOVEQ	   #6,D1			         $6
0000130C 3F01			 MOVE.W	   D1,-(A7)
0000130E 7204			 MOVEQ	   #4,D1			         $4
00001310 3F01			 MOVE.W	   D1,-(A7)
00001312 487AFCE8		 PEA	   K.56(PC)			         CODE.+$FFC
00001316 2F00			 MOVE.L	   D0,-(A7)
00001318 4EB900000000		 JSR	   T.WRITE
0000131E 222D8016		 MOVE.L	   STATIC.+22-32768(A5),D1	         STRINGFILE
00001322 4A81			 TST.L	   D1
00001324 6606			 BNE.S	   X.7.13(PC)
00001326 4EB900000000		 JSR	   E.FILE
0000132C 2041	      X.7.13	 MOVEA.L   D1,A0
0000132E 2050			 MOVEA.L   (A0),A0
00001330 3F10			 MOVE.W	   (A0),-(A7)
00001332 7203			 MOVEQ	   #3,D1			         $3
00001334 3F01			 MOVE.W	   D1,-(A7)
00001336 48680002		 PEA	   2(A0)			         $2
0000133A 2F00			 MOVE.L	   D0,-(A7)
0000133C 4EB900000000		 JSR	   T.WRITE
00001342 2F00			 MOVE.L	   D0,-(A7)
00001344 4EB900000000		 JSR	   T.WRTLN
		      *							       LINE 5/25
0000134A 202D0000		 MOVE.L	   TTYOUTPUT-32768(A5),D0	         TTYOUTPUT
0000134E 4A80			 TST.L	   D0
00001350 6606			 BNE.S	   X.7.14(PC)
00001352 4EB900000000		 JSR	   E.FILE
00001358 7233	      X.7.14	 MOVEQ	   #51,D1			         $33
0000135A 3F01			 MOVE.W	   D1,-(A7)
0000135C 7204			 MOVEQ	   #4,D1			         $4
0000135E 3F01			 MOVE.W	   D1,-(A7)
00001360 487AFCA0		 PEA	   K.57(PC)			         CODE.+$1002
00001364 2F00			 MOVE.L	   D0,-(A7)
00001366 4EB900000000		 JSR	   T.WRITE
0000136C 2F00			 MOVE.L	   D0,-(A7)
0000136E 4EB900000000		 JSR	   T.WRTLN
		      *							       LINE 5/26
		      *							       LINE 5/27
00001374 202D8016     L.7.5	 MOVE.L	   STATIC.+22-32768(A5),D0	         STRINGFILE
00001378 4A80			 TST.L	   D0
0000137A 6606			 BNE.S	   X.7.15(PC)
0000137C 4EB900000000		 JSR	   E.FILE
00001382 2040	      X.7.15	 MOVEA.L   D0,A000001384 2050			 MOVEA.L   (A0),A0
00001386 3210			 MOVE.W	   (A0),D1
00001388 41D0			 LEA	   (A0),A0
0000138A 43ED801A		 LEA	   STATIC.+26-32768(A5),A1	         STRINGVARIABLE
0000138E 5241			 ADDQ.W	   #1,D1			         $1
00001390 E249			 LSR.W	   #1,D1			         $1
00001392 32D8	      X.7.16	 MOVE.W	   (A0)+,(A1)+
00001394 51C9FFFC		 DBF	   D1,X.7.16(PC)
00001398 2F00			 MOVE.L	   D0,-(A7)
0000139A 4EB900000000		 JSR	   Y.GET
		      *							       LINE 5/28
000013A0 202D8016		 MOVE.L	   STATIC.+22-32768(A5),D0	         STRINGFILE
000013A4 4A80			 TST.L	   D0
000013A6 6606			 BNE.S	   X.7.17(PC)
000013A8 4EB900000000		 JSR	   E.FILE
000013AE 2040	      X.7.17	 MOVEA.L   D0,A0
000013B0 2050			 MOVEA.L   (A0),A0
000013B2 3210			 MOVE.W	   (A0),D1
000013B4 41D0			 LEA	   (A0),A0
000013B6 43ED801A		 LEA	   STATIC.+26-32768(A5),A1	         STRINGVARIABLE
000013BA 5241			 ADDQ.W	   #1,D1			         $1
000013BC E249			 LSR.W	   #1,D1			         $1
000013BE 32D8	      X.7.18	 MOVE.W	   (A0)+,(A1)+
000013C0 51C9FFFC		 DBF	   D1,X.7.18(PC)
000013C4 2F00			 MOVE.L	   D0,-(A7)
000013C6 4EB900000000		 JSR	   Y.GET
		      *							       LINE 5/29
000013CC 487AFC68		 PEA	   K.58(PC)			         CODE.+$1036
000013D0 700A			 MOVEQ	   #10,D0			         $A
000013D2 3F00			 MOVE.W	   D0,-(A7)
000013D4 486D801C		 PEA	   STATIC.+26-32766(A5)		         STRINGVARIABLE
000013D8 3F2D801A		 MOVE.W	   STATIC.+26-32768(A5),-(A7)	         STRINGVARIABLE
000013DC 4EB900000000		 JSR	   C.CPFF
000013E2 6700009E		 BEQ.L	   L.7.7(PC)
		      *							       LINE 5/30
		      *							       LINE 5/31
000013E6 2D7C00000193 L.7.6	 MOVE.L	   #403,-4(A6)			         $193  $FFFFFFFC
	 FFFC
000013EE 6100EC22		 BSR.L	   B.3(PC)			         ERROR = CODE.+$12
		      *							       LINE 5/32
000013F2 202D0000		 MOVE.L	   TTYOUTPUT-32768(A5),D0	         TTYOUTPUT
000013F6 4A80			 TST.L	   D0
000013F8 6606			 BNE.S	   X.7.19(PC)
000013FA 4EB900000000		 JSR	   E.FILE
00001400 7225	      X.7.19	 MOVEQ	   #37,D1			         $2500001402 3F01			 MOVE.W	   D1,-(A7)
00001404 7204			 MOVEQ	   #4,D1			         $4
00001406 3F01			 MOVE.W	   D1,-(A7)
00001408 487AFC36		 PEA	   K.59(PC)			         CODE.+$1040
0000140C 2F00			 MOVE.L	   D0,-(A7)
0000140E 4EB900000000		 JSR	   T.WRITE
00001414 720A			 MOVEQ	   #10,D1			         $A
00001416 3F01			 MOVE.W	   D1,-(A7)
00001418 7204			 MOVEQ	   #4,D1			         $4
0000141A 3F01			 MOVE.W	   D1,-(A7)
0000141C 487AFC48		 PEA	   K.60(PC)			         CODE.+$1066
00001420 2F00			 MOVE.L	   D0,-(A7)
00001422 4EB900000000		 JSR	   T.WRITE
00001428 7206			 MOVEQ	   #6,D1			         $6
0000142A 3F01			 MOVE.W	   D1,-(A7)
0000142C 7204			 MOVEQ	   #4,D1			         $4
0000142E 3F01			 MOVE.W	   D1,-(A7)
00001430 487AFC3E		 PEA	   K.61(PC)			         CODE.+$1070
00001434 2F00			 MOVE.L	   D0,-(A7)
00001436 4EB900000000		 JSR	   T.WRITE
0000143C 3F2D801A		 MOVE.W	   STATIC.+26-32768(A5),-(A7)	         STRINGVARIABLE
00001440 7203			 MOVEQ	   #3,D1			         $3
00001442 3F01			 MOVE.W	   D1,-(A7)
00001444 486D801C		 PEA	   STATIC.+26-32766(A5)		         STRINGVARIABLE
00001448 2F00			 MOVE.L	   D0,-(A7)
0000144A 4EB900000000		 JSR	   T.WRITE
00001450 2F00			 MOVE.L	   D0,-(A7)
00001452 4EB900000000		 JSR	   T.WRTLN
		      *							       LINE 5/34
00001458 202D0000		 MOVE.L	   TTYOUTPUT-32768(A5),D0	         TTYOUTPUT
0000145C 4A80			 TST.L	   D0
0000145E 6606			 BNE.S	   X.7.20(PC)
00001460 4EB900000000		 JSR	   E.FILE
00001466 7234	      X.7.20	 MOVEQ	   #52,D1			         $34
00001468 3F01			 MOVE.W	   D1,-(A7)
0000146A 7204			 MOVEQ	   #4,D1			         $4
0000146C 3F01			 MOVE.W	   D1,-(A7)
0000146E 487AFC06		 PEA	   K.62(PC)			         CODE.+$1076
00001472 2F00			 MOVE.L	   D0,-(A7)
00001474 4EB900000000		 JSR	   T.WRITE
0000147A 2F00			 MOVE.L	   D0,-(A7)
0000147C 4EB900000000		 JSR	   T.WRTLN
		      *							       LINE 5/35
		      *							       LINE 5/36
00001482 202D8016     L.7.7	 MOVE.L	   STATIC.+22-32768(A5),D0	         STRINGFILE00001486 4A80			 TST.L	   D0
00001488 6606			 BNE.S	   X.7.21(PC)
0000148A 4EB900000000		 JSR	   E.FILE
00001490 2F00	      X.7.21	 MOVE.L	   D0,-(A7)
00001492 4EB900000000		 JSR	   I.EOF
00001498 4A1F			 TST.B	   (A7)+
0000149A 6636			 BNE.S	   L.7.9(PC)
		      *							       LINE 5/37
		      *							       LINE 5/38
0000149C 2D7C00000194 L.7.8	 MOVE.L	   #404,-4(A6)			         $194  $FFFFFFFC
	 FFFC
000014A4 6100EB6C		 BSR.L	   B.3(PC)			         ERROR = CODE.+$12
		      *							       LINE 5/39
000014A8 202D0000		 MOVE.L	   TTYOUTPUT-32768(A5),D0	         TTYOUTPUT
000014AC 4A80			 TST.L	   D0
000014AE 6606			 BNE.S	   X.7.22(PC)
000014B0 4EB900000000		 JSR	   E.FILE
000014B6 7225	      X.7.22	 MOVEQ	   #37,D1			         $25
000014B8 3F01			 MOVE.W	   D1,-(A7)
000014BA 7204			 MOVEQ	   #4,D1			         $4
000014BC 3F01			 MOVE.W	   D1,-(A7)
000014BE 487AFBEA		 PEA	   K.63(PC)			         CODE.+$10AA
000014C2 2F00			 MOVE.L	   D0,-(A7)
000014C4 4EB900000000		 JSR	   T.WRITE
000014CA 2F00			 MOVE.L	   D0,-(A7)
000014CC 4EB900000000		 JSR	   T.WRTLN
		      *							       LINE 5/40
		      *							       LINE 5/41
000014D2 202D8016     L.7.9	 MOVE.L	   STATIC.+22-32768(A5),D0	         STRINGFILE
000014D6 4A80			 TST.L	   D0
000014D8 6606			 BNE.S	   X.7.23(PC)
000014DA 4EB900000000		 JSR	   E.FILE
000014E0 2F00	      X.7.23	 MOVE.L	   D0,-(A7)
000014E2 4EB900000000		 JSR	   I.CLOSE
		      *							       LINE 5/42
000014E8 4E75			 RTS	   
		      *
		      *		 Constant area for subroutine TESTCHARFILE
		      *
000014EA 57726F6E6720 K.64	 DC.B	   'Wrong value in charfile: expected: '
0000150D 00000001		 DS.B	   1
0000150E 20676F743A20 K.65	 DC.B	   ' got: '
00001514 56616C756520 K.66	 DC.B	   'Value placed in file by "put", retrieved by "reset"'
00001547 00000001		 DS.B	   1
00001548 57726F6E6720 K.67	 DC.B	   'Wrong value in charfile: expected: '0000156B 00000001		 DS.B	   1
0000156C 20676F743A20 K.68	 DC.B	   ' got: '
00001572 56616C756520 K.69	 DC.B	   'Value placed in file by "write", retrieved by "get"'
000015A5 00000001		 DS.B	   1
000015A6 57726F6E6720 K.70	 DC.B	   'Wrong value in charfile: expected: '
000015C9 00000001		 DS.B	   1
000015CA 20676F743A20 K.71	 DC.B	   ' got: '
000015D0 56616C756520 K.72	 DC.B	   'Value placed in file by "write", retrieved by "read"'
00001604 4469646E2774 K.73	 DC.B	   'Didn't get end of file on charfile.'
00001627 00000001		 DS.B	   1
		      *
		      *		 Begin subroutine TESTCHARFILE
		      *
00001628	      B.8
		      *							       LINE 6/4
		      *							       LINE 6/5
00001628 7001	      L.8.1	 MOVEQ	   #1,D0			         $1
0000162A 3F00			 MOVE.W	   D0,-(A7)
0000162C 486D807A		 PEA	   STATIC.+120-32766(A5)	         REAL_FILENAME
00001630 3F2D8078		 MOVE.W	   STATIC.+120-32768(A5),-(A7)	         REAL_FILENAME
00001634 702A			 MOVEQ	   #42,D0			         $2A
00001636 3F00			 MOVE.W	   D0,-(A7)
00001638 4EB900000000		 JSR	   Y.INIT
0000163E 2B5F8026		 MOVE.L	   (A7)+,STATIC.+38-32768(A5)	         CHARFILE
		      *							       LINE 6/6
00001642 202D8026		 MOVE.L	   STATIC.+38-32768(A5),D0	         CHARFILE
00001646 4A80			 TST.L	   D0
00001648 6606			 BNE.S	   X.8.1(PC)
0000164A 4EB900000000		 JSR	   E.FILE
00001650 2040	      X.8.1	 MOVEA.L   D0,A0
00001652 2050			 MOVEA.L   (A0),A0
00001654 7061			 MOVEQ	   #97,D0			         $61
00001656 1080			 MOVE.B	   D0,(A0)
		      *							       LINE 6/7
00001658 202D8026		 MOVE.L	   STATIC.+38-32768(A5),D0	         CHARFILE
0000165C 4A80			 TST.L	   D0
0000165E 6606			 BNE.S	   X.8.2(PC)
00001660 4EB900000000		 JSR	   E.FILE
00001666 2F00	      X.8.2	 MOVE.L	   D0,-(A7)
00001668 4EB900000000		 JSR	   Y.PUT
		      *							       LINE 6/8
0000166E 202D8026		 MOVE.L	   STATIC.+38-32768(A5),D0	         CHARFILE
00001672 4A80			 TST.L	   D0
00001674 6606			 BNE.S	   X.8.3(PC)
00001676 4EB900000000		 JSR	   E.FILE0000167C 2040	      X.8.3	 MOVEA.L   D0,A0
0000167E 2050			 MOVEA.L   (A0),A0
00001680 7262			 MOVEQ	   #98,D1			         $62
00001682 1081			 MOVE.B	   D1,(A0)
00001684 2F00			 MOVE.L	   D0,-(A7)
00001686 4EB900000000		 JSR	   Y.PUT
		      *							       LINE 6/9
0000168C 202D8026		 MOVE.L	   STATIC.+38-32768(A5),D0	         CHARFILE
00001690 4A80			 TST.L	   D0
00001692 6606			 BNE.S	   X.8.4(PC)
00001694 4EB900000000		 JSR	   E.FILE
0000169A 2040	      X.8.4	 MOVEA.L   D0,A0
0000169C 2050			 MOVEA.L   (A0),A0
0000169E 7263			 MOVEQ	   #99,D1			         $63
000016A0 1081			 MOVE.B	   D1,(A0)
000016A2 2F00			 MOVE.L	   D0,-(A7)
000016A4 4EB900000000		 JSR	   Y.PUT
		      *							       LINE 6/10
000016AA 202D8026		 MOVE.L	   STATIC.+38-32768(A5),D0	         CHARFILE
000016AE 4A80			 TST.L	   D0
000016B0 6606			 BNE.S	   X.8.5(PC)
000016B2 4EB900000000		 JSR	   E.FILE
000016B8 2F00	      X.8.5	 MOVE.L	   D0,-(A7)
000016BA 4EB900000000		 JSR	   I.CLOSE
		      *							       LINE 6/11
000016C0 7001			 MOVEQ	   #1,D0			         $1
000016C2 3F00			 MOVE.W	   D0,-(A7)
000016C4 486D807A		 PEA	   STATIC.+120-32766(A5)	         REAL_FILENAME
000016C8 3F2D8078		 MOVE.W	   STATIC.+120-32768(A5),-(A7)	         REAL_FILENAME
000016CC 7029			 MOVEQ	   #41,D0			         $29
000016CE 3F00			 MOVE.W	   D0,-(A7)
000016D0 4EB900000000		 JSR	   Y.INIT
000016D6 2B5F8026		 MOVE.L	   (A7)+,STATIC.+38-32768(A5)	         CHARFILE
		      *							       LINE 6/12
000016DA 202D8026		 MOVE.L	   STATIC.+38-32768(A5),D0	         CHARFILE
000016DE 4A80			 TST.L	   D0
000016E0 6606			 BNE.S	   X.8.6(PC)
000016E2 4EB900000000		 JSR	   E.FILE
000016E8 2040	      X.8.6	 MOVEA.L   D0,A0
000016EA 2050			 MOVEA.L   (A0),A0
000016EC 7061			 MOVEQ	   #97,D0			         $61
000016EE B010			 CMP.B	   (A0),D0
000016F0 670000A6		 BEQ.L	   L.8.3(PC)
		      *							       LINE 6/13
		      *							       LINE 6/14000016F4 2D7C000001F5 L.8.2	 MOVE.L	   #501,-4(A6)			         $1F5  $FFFFFFFC
	 FFFC
000016FC 6100E914		 BSR.L	   B.3(PC)			         ERROR = CODE.+$12
		      *							       LINE 6/15
00001700 202D0000		 MOVE.L	   TTYOUTPUT-32768(A5),D0	         TTYOUTPUT
00001704 4A80			 TST.L	   D0
00001706 6606			 BNE.S	   X.8.7(PC)
00001708 4EB900000000		 JSR	   E.FILE
0000170E 7223	      X.8.7	 MOVEQ	   #35,D1			         $23
00001710 3F01			 MOVE.W	   D1,-(A7)
00001712 7204			 MOVEQ	   #4,D1			         $4
00001714 3F01			 MOVE.W	   D1,-(A7)
00001716 487AFDD2		 PEA	   K.64(PC)			         CODE.+$14EA
0000171A 2F00			 MOVE.L	   D0,-(A7)
0000171C 4EB900000000		 JSR	   T.WRITE
00001722 2040			 MOVEA.L   D0,A0
00001724 2050			 MOVEA.L   (A0),A0
00001726 7261			 MOVEQ	   #97,D1			         $61
00001728 1081			 MOVE.B	   D1,(A0)
0000172A 2F00			 MOVE.L	   D0,-(A7)
0000172C 4EB900000000		 JSR	   T.PUT
00001732 7206			 MOVEQ	   #6,D1			         $6
00001734 3F01			 MOVE.W	   D1,-(A7)
00001736 7204			 MOVEQ	   #4,D1			         $4
00001738 3F01			 MOVE.W	   D1,-(A7)
0000173A 487AFDD2		 PEA	   K.65(PC)			         CODE.+$150E
0000173E 2F00			 MOVE.L	   D0,-(A7)
00001740 4EB900000000		 JSR	   T.WRITE
00001746 2040			 MOVEA.L   D0,A0
00001748 2050			 MOVEA.L   (A0),A0
0000174A 222D8026		 MOVE.L	   STATIC.+38-32768(A5),D1	         CHARFILE
0000174E 4A81			 TST.L	   D1
00001750 6606			 BNE.S	   X.8.8(PC)
00001752 4EB900000000		 JSR	   E.FILE
00001758 2241	      X.8.8	 MOVEA.L   D1,A1
0000175A 2251			 MOVEA.L   (A1),A1
0000175C 1091			 MOVE.B	   (A1),(A0)
0000175E 2F00			 MOVE.L	   D0,-(A7)
00001760 4EB900000000		 JSR	   T.PUT
00001766 2F00			 MOVE.L	   D0,-(A7)
00001768 4EB900000000		 JSR	   T.WRTLN
		      *							       LINE 6/17
0000176E 202D0000		 MOVE.L	   TTYOUTPUT-32768(A5),D0	         TTYOUTPUT
00001772 4A80			 TST.L	   D0
00001774 6606			 BNE.S	   X.8.9(PC)00001776 4EB900000000		 JSR	   E.FILE
0000177C 7233	      X.8.9	 MOVEQ	   #51,D1			         $33
0000177E 3F01			 MOVE.W	   D1,-(A7)
00001780 7204			 MOVEQ	   #4,D1			         $4
00001782 3F01			 MOVE.W	   D1,-(A7)
00001784 487AFD8E		 PEA	   K.66(PC)			         CODE.+$1514
00001788 2F00			 MOVE.L	   D0,-(A7)
0000178A 4EB900000000		 JSR	   T.WRITE
00001790 2F00			 MOVE.L	   D0,-(A7)
00001792 4EB900000000		 JSR	   T.WRTLN
		      *							       LINE 6/18
		      *							       LINE 6/19
00001798 202D8026     L.8.3	 MOVE.L	   STATIC.+38-32768(A5),D0	         CHARFILE
0000179C 4A80			 TST.L	   D0
0000179E 6606			 BNE.S	   X.8.10(PC)
000017A0 4EB900000000		 JSR	   E.FILE
000017A6 2F00	      X.8.10	 MOVE.L	   D0,-(A7)
000017A8 4EB900000000		 JSR	   Y.GET
		      *							       LINE 6/20
000017AE 202D8026		 MOVE.L	   STATIC.+38-32768(A5),D0	         CHARFILE
000017B2 4A80			 TST.L	   D0
000017B4 6606			 BNE.S	   X.8.11(PC)
000017B6 4EB900000000		 JSR	   E.FILE
000017BC 2040	      X.8.11	 MOVEA.L   D0,A0
000017BE 2050			 MOVEA.L   (A0),A0
000017C0 7062			 MOVEQ	   #98,D0			         $62
000017C2 B010			 CMP.B	   (A0),D0
000017C4 670000A6		 BEQ.L	   L.8.5(PC)
		      *							       LINE 6/21
		      *							       LINE 6/22
000017C8 2D7C000001F6 L.8.4	 MOVE.L	   #502,-4(A6)			         $1F6  $FFFFFFFC
	 FFFC
000017D0 6100E840		 BSR.L	   B.3(PC)			         ERROR = CODE.+$12
		      *							       LINE 6/23
000017D4 202D0000		 MOVE.L	   TTYOUTPUT-32768(A5),D0	         TTYOUTPUT
000017D8 4A80			 TST.L	   D0
000017DA 6606			 BNE.S	   X.8.12(PC)
000017DC 4EB900000000		 JSR	   E.FILE
000017E2 7223	      X.8.12	 MOVEQ	   #35,D1			         $23
000017E4 3F01			 MOVE.W	   D1,-(A7)
000017E6 7204			 MOVEQ	   #4,D1			         $4
000017E8 3F01			 MOVE.W	   D1,-(A7)
000017EA 487AFD5C		 PEA	   K.67(PC)			         CODE.+$1548
000017EE 2F00			 MOVE.L	   D0,-(A7)
000017F0 4EB900000000		 JSR	   T.WRITE000017F6 2040			 MOVEA.L   D0,A0
000017F8 2050			 MOVEA.L   (A0),A0
000017FA 7262			 MOVEQ	   #98,D1			         $62
000017FC 1081			 MOVE.B	   D1,(A0)
000017FE 2F00			 MOVE.L	   D0,-(A7)
00001800 4EB900000000		 JSR	   T.PUT
00001806 7206			 MOVEQ	   #6,D1			         $6
00001808 3F01			 MOVE.W	   D1,-(A7)
0000180A 7204			 MOVEQ	   #4,D1			         $4
0000180C 3F01			 MOVE.W	   D1,-(A7)
0000180E 487AFD5C		 PEA	   K.68(PC)			         CODE.+$156C
00001812 2F00			 MOVE.L	   D0,-(A7)
00001814 4EB900000000		 JSR	   T.WRITE
0000181A 2040			 MOVEA.L   D0,A0
0000181C 2050			 MOVEA.L   (A0),A0
0000181E 222D8026		 MOVE.L	   STATIC.+38-32768(A5),D1	         CHARFILE
00001822 4A81			 TST.L	   D1
00001824 6606			 BNE.S	   X.8.13(PC)
00001826 4EB900000000		 JSR	   E.FILE
0000182C 2241	      X.8.13	 MOVEA.L   D1,A1
0000182E 2251			 MOVEA.L   (A1),A1
00001830 1091			 MOVE.B	   (A1),(A0)
00001832 2F00			 MOVE.L	   D0,-(A7)
00001834 4EB900000000		 JSR	   T.PUT
0000183A 2F00			 MOVE.L	   D0,-(A7)
0000183C 4EB900000000		 JSR	   T.WRTLN
		      *							       LINE 6/25
00001842 202D0000		 MOVE.L	   TTYOUTPUT-32768(A5),D0	         TTYOUTPUT
00001846 4A80			 TST.L	   D0
00001848 6606			 BNE.S	   X.8.14(PC)
0000184A 4EB900000000		 JSR	   E.FILE
00001850 7233	      X.8.14	 MOVEQ	   #51,D1			         $33
00001852 3F01			 MOVE.W	   D1,-(A7)
00001854 7204			 MOVEQ	   #4,D1			         $4
00001856 3F01			 MOVE.W	   D1,-(A7)
00001858 487AFD18		 PEA	   K.69(PC)			         CODE.+$1572
0000185C 2F00			 MOVE.L	   D0,-(A7)
0000185E 4EB900000000		 JSR	   T.WRITE
00001864 2F00			 MOVE.L	   D0,-(A7)
00001866 4EB900000000		 JSR	   T.WRTLN
		      *							       LINE 6/26
		      *							       LINE 6/27
0000186C 202D8026     L.8.5	 MOVE.L	   STATIC.+38-32768(A5),D0	         CHARFILE
00001870 4A80			 TST.L	   D0
00001872 6606			 BNE.S	   X.8.15(PC)00001874 4EB900000000		 JSR	   E.FILE
0000187A 2040	      X.8.15	 MOVEA.L   D0,A0
0000187C 2050			 MOVEA.L   (A0),A0
0000187E 1B50802A		 MOVE.B	   (A0),STATIC.+42-32768(A5)	         CHARVARIABLE
00001882 2F00			 MOVE.L	   D0,-(A7)
00001884 4EB900000000		 JSR	   Y.GET
		      *							       LINE 6/28
0000188A 202D8026		 MOVE.L	   STATIC.+38-32768(A5),D0	         CHARFILE
0000188E 4A80			 TST.L	   D0
00001890 6606			 BNE.S	   X.8.16(PC)
00001892 4EB900000000		 JSR	   E.FILE
00001898 2040	      X.8.16	 MOVEA.L   D0,A0
0000189A 2050			 MOVEA.L   (A0),A0
0000189C 1B50802A		 MOVE.B	   (A0),STATIC.+42-32768(A5)	         CHARVARIABLE
000018A0 2F00			 MOVE.L	   D0,-(A7)
000018A2 4EB900000000		 JSR	   Y.GET
		      *							       LINE 6/29
000018A8 7063			 MOVEQ	   #99,D0			         $63
000018AA B02D802A		 CMP.B	   STATIC.+42-32768(A5),D0	         CHARVARIABLE
000018AE 67000096		 BEQ.L	   L.8.7(PC)
		      *							       LINE 6/30
		      *							       LINE 6/31
000018B2 2D7C000001F7 L.8.6	 MOVE.L	   #503,-4(A6)			         $1F7  $FFFFFFFC
	 FFFC
000018BA 6100E756		 BSR.L	   B.3(PC)			         ERROR = CODE.+$12
		      *							       LINE 6/32
000018BE 202D0000		 MOVE.L	   TTYOUTPUT-32768(A5),D0	         TTYOUTPUT
000018C2 4A80			 TST.L	   D0
000018C4 6606			 BNE.S	   X.8.17(PC)
000018C6 4EB900000000		 JSR	   E.FILE
000018CC 7223	      X.8.17	 MOVEQ	   #35,D1			         $23
000018CE 3F01			 MOVE.W	   D1,-(A7)
000018D0 7204			 MOVEQ	   #4,D1			         $4
000018D2 3F01			 MOVE.W	   D1,-(A7)
000018D4 487AFCD0		 PEA	   K.70(PC)			         CODE.+$15A6
000018D8 2F00			 MOVE.L	   D0,-(A7)
000018DA 4EB900000000		 JSR	   T.WRITE
000018E0 2040			 MOVEA.L   D0,A0
000018E2 2050			 MOVEA.L   (A0),A0
000018E4 7263			 MOVEQ	   #99,D1			         $63
000018E6 1081			 MOVE.B	   D1,(A0)
000018E8 2F00			 MOVE.L	   D0,-(A7)
000018EA 4EB900000000		 JSR	   T.PUT
000018F0 7206			 MOVEQ	   #6,D1			         $6
000018F2 3F01			 MOVE.W	   D1,-(A7)000018F4 7204			 MOVEQ	   #4,D1			         $4
000018F6 3F01			 MOVE.W	   D1,-(A7)
000018F8 487AFCD0		 PEA	   K.71(PC)			         CODE.+$15CA
000018FC 2F00			 MOVE.L	   D0,-(A7)
000018FE 4EB900000000		 JSR	   T.WRITE
00001904 2040			 MOVEA.L   D0,A0
00001906 2050			 MOVEA.L   (A0),A0
00001908 10AD802A		 MOVE.B	   STATIC.+42-32768(A5),(A0)	         CHARVARIABLE
0000190C 2F00			 MOVE.L	   D0,-(A7)
0000190E 4EB900000000		 JSR	   T.PUT
00001914 2F00			 MOVE.L	   D0,-(A7)
00001916 4EB900000000		 JSR	   T.WRTLN
		      *							       LINE 6/34
0000191C 202D0000		 MOVE.L	   TTYOUTPUT-32768(A5),D0	         TTYOUTPUT
00001920 4A80			 TST.L	   D0
00001922 6606			 BNE.S	   X.8.18(PC)
00001924 4EB900000000		 JSR	   E.FILE
0000192A 7234	      X.8.18	 MOVEQ	   #52,D1			         $34
0000192C 3F01			 MOVE.W	   D1,-(A7)
0000192E 7204			 MOVEQ	   #4,D1			         $4
00001930 3F01			 MOVE.W	   D1,-(A7)
00001932 487AFC9C		 PEA	   K.72(PC)			         CODE.+$15D0
00001936 2F00			 MOVE.L	   D0,-(A7)
00001938 4EB900000000		 JSR	   T.WRITE
0000193E 2F00			 MOVE.L	   D0,-(A7)
00001940 4EB900000000		 JSR	   T.WRTLN
		      *							       LINE 6/35
		      *							       LINE 6/36
00001946 202D8026     L.8.7	 MOVE.L	   STATIC.+38-32768(A5),D0	         CHARFILE
0000194A 4A80			 TST.L	   D0
0000194C 6606			 BNE.S	   X.8.19(PC)
0000194E 4EB900000000		 JSR	   E.FILE
00001954 2F00	      X.8.19	 MOVE.L	   D0,-(A7)
00001956 4EB900000000		 JSR	   I.EOF
0000195C 4A1F			 TST.B	   (A7)+
0000195E 6636			 BNE.S	   L.8.9(PC)
		      *							       LINE 6/37
		      *							       LINE 6/38
00001960 2D7C000001F8 L.8.8	 MOVE.L	   #504,-4(A6)			         $1F8  $FFFFFFFC
	 FFFC
00001968 6100E6A8		 BSR.L	   B.3(PC)			         ERROR = CODE.+$12
		      *							       LINE 6/39
0000196C 202D0000		 MOVE.L	   TTYOUTPUT-32768(A5),D0	         TTYOUTPUT
00001970 4A80			 TST.L	   D0
00001972 6606			 BNE.S	   X.8.20(PC)00001974 4EB900000000		 JSR	   E.FILE
0000197A 7223	      X.8.20	 MOVEQ	   #35,D1			         $23
0000197C 3F01			 MOVE.W	   D1,-(A7)
0000197E 7204			 MOVEQ	   #4,D1			         $4
00001980 3F01			 MOVE.W	   D1,-(A7)
00001982 487AFC80		 PEA	   K.73(PC)			         CODE.+$1604
00001986 2F00			 MOVE.L	   D0,-(A7)
00001988 4EB900000000		 JSR	   T.WRITE
0000198E 2F00			 MOVE.L	   D0,-(A7)
00001990 4EB900000000		 JSR	   T.WRTLN
		      *							       LINE 6/40
		      *							       LINE 6/41
00001996 202D8026     L.8.9	 MOVE.L	   STATIC.+38-32768(A5),D0	         CHARFILE
0000199A 4A80			 TST.L	   D0
0000199C 6606			 BNE.S	   X.8.21(PC)
0000199E 4EB900000000		 JSR	   E.FILE
000019A4 2F00	      X.8.21	 MOVE.L	   D0,-(A7)
000019A6 4EB900000000		 JSR	   I.CLOSE
		      *							       LINE 6/42
000019AC 4E75			 RTS	   
		      *
		      *		 Constant area for subroutine TESTARRAYFILE
		      *
000019AE 57726F6E6720 K.74	 DC.B	   'Wrong value in arrayfile: expected: '
000019D2 20676F743A20 K.75	 DC.B	   ' got: '
000019D8 56616C756520 K.76	 DC.B	   'Value placed in file by "put" '
000019F6 726574726965 K.77	 DC.B	   'retrieved by "reset"'
00001A0A 57726F6E6720 K.78	 DC.B	   'Wrong value in arrayfile: expected: '
00001A2E 20676F743A20 K.79	 DC.B	   ' got: '
00001A34 56616C756520 K.80	 DC.B	   'Value placed in file by "write" '
00001A54 726574726965 K.81	 DC.B	   'retrieved by "get"'
00001A66 57726F6E6720 K.82	 DC.B	   'Wrong value in arrayfile: expected: '
00001A8A 20676F743A20 K.83	 DC.B	   ' got: '
00001A90 56616C756520 K.84	 DC.B	   'Value placed in file by "write" '
00001AB0 726574726965 K.85	 DC.B	   'retrieved by "read"'
00001AC3 00000001		 DS.B	   1
00001AC4 4469646E2774 K.86	 DC.B	   'Didn't get end of file on arrayfile.'
		      *
		      *		 Begin subroutine TESTARRAYFILE
		      *
00001AE8	      B.9
		      *							       LINE 7/4
		      *							       LINE 7/5
00001AE8 7028	      L.9.1	 MOVEQ	   #40,D0			         $28
00001AEA 3F00			 MOVE.W	   D0,-(A7)00001AEC 486D807A		 PEA	   STATIC.+120-32766(A5)	         REAL_FILENAME
00001AF0 3F2D8078		 MOVE.W	   STATIC.+120-32768(A5),-(A7)	         REAL_FILENAME
00001AF4 702A			 MOVEQ	   #42,D0			         $2A
00001AF6 3F00			 MOVE.W	   D0,-(A7)
00001AF8 4EB900000000		 JSR	   Y.INIT
00001AFE 2B5F802C		 MOVE.L	   (A7)+,STATIC.+44-32768(A5)	         ARRAYFILE
		      *							       LINE 7/6
00001B02 7001	      L.9.2	 MOVEQ	   #1,D0			         $1
00001B04 2B408058		 MOVE.L	   D0,STATIC.+88-32768(A5)	         INDEX
		      *							       LINE 7/7
00001B08 202D8058     L.9.3	 MOVE.L	   STATIC.+88-32768(A5),D0	         INDEX
00001B0C 720A			 MOVEQ	   #10,D1			         $A
00001B0E B081			 CMP.L	   D1,D0
00001B10 6F06			 BLE.S	   X.9.1(PC)
00001B12 4EB900000000		 JSR	   E.INDEX
00001B18 222D802C     X.9.1	 MOVE.L	   STATIC.+44-32768(A5),D1	         ARRAYFILE
00001B1C 4A81			 TST.L	   D1
00001B1E 6606			 BNE.S	   X.9.2(PC)
00001B20 4EB900000000		 JSR	   E.FILE
00001B26 2041	      X.9.2	 MOVEA.L   D1,A0
00001B28 2050			 MOVEA.L   (A0),A0
00001B2A E540			 ASL.W	   #2,D0			         $2
00001B2C 21AD805800FC		 MOVE.L	   STATIC.+88-32768(A5),-4(A0,D0.W)      INDEX  $FFFFFFFC
00001B32 202D8058		 MOVE.L	   STATIC.+88-32768(A5),D0	         INDEX
00001B36 5280			 ADDQ.L	   #1,D0			         $1
00001B38 2B408058		 MOVE.L	   D0,STATIC.+88-32768(A5)	         INDEX
00001B3C 720A			 MOVEQ	   #10,D1			         $A
00001B3E B081			 CMP.L	   D1,D0
00001B40 6FC6			 BLE.S	   L.9.3(PC)
		      *							       LINE 7/8
00001B42 202D802C     L.9.4	 MOVE.L	   STATIC.+44-32768(A5),D0	         ARRAYFILE
00001B46 4A80			 TST.L	   D0
00001B48 6606			 BNE.S	   X.9.3(PC)
00001B4A 4EB900000000		 JSR	   E.FILE
00001B50 2F00	      X.9.3	 MOVE.L	   D0,-(A7)
00001B52 4EB900000000		 JSR	   Y.PUT
		      *							       LINE 7/9
00001B58 7001	      L.9.5	 MOVEQ	   #1,D0			         $1
00001B5A 2B408058		 MOVE.L	   D0,STATIC.+88-32768(A5)	         INDEX
		      *							       LINE 7/10
00001B5E 202D8058     L.9.6	 MOVE.L	   STATIC.+88-32768(A5),D0	         INDEX
00001B62 720A			 MOVEQ	   #10,D1			         $A
00001B64 B081			 CMP.L	   D1,D0
00001B66 6F06			 BLE.S	   X.9.4(PC)
00001B68 4EB900000000		 JSR	   E.INDEX00001B6E 41ED8030     X.9.4	 LEA	   STATIC.+48-32768(A5),A0	         ARRAYVARIABLE
00001B72 E540			 ASL.W	   #2,D0			         $2
00001B74 720A			 MOVEQ	   #10,D1			         $A
00001B76 92AD8058		 SUB.L	   STATIC.+88-32768(A5),D1	         INDEX
00001B7A 218100FC		 MOVE.L	   D1,-4(A0,D0.W)		         $FFFFFFFC
00001B7E 202D8058		 MOVE.L	   STATIC.+88-32768(A5),D0	         INDEX
00001B82 5280			 ADDQ.L	   #1,D0			         $1
00001B84 2B408058		 MOVE.L	   D0,STATIC.+88-32768(A5)	         INDEX
00001B88 720A			 MOVEQ	   #10,D1			         $A
00001B8A B081			 CMP.L	   D1,D0
00001B8C 6FD0			 BLE.S	   L.9.6(PC)
		      *							       LINE 7/11
00001B8E 202D802C     L.9.7	 MOVE.L	   STATIC.+44-32768(A5),D0	         ARRAYFILE
00001B92 4A80			 TST.L	   D0
00001B94 6606			 BNE.S	   X.9.5(PC)
00001B96 4EB900000000		 JSR	   E.FILE
00001B9C 2040	      X.9.5	 MOVEA.L   D0,A0
00001B9E 2050			 MOVEA.L   (A0),A0
00001BA0 4CED0EFE8030		 MOVEM.L   STATIC.+48-32768(A5),#3838	         ARRAYVARIABLE  $EFE
00001BA6 48D00EFE		 MOVEM.L   #3838,(A0)			         $EFE
00001BAA 2F00			 MOVE.L	   D0,-(A7)
00001BAC 4EB900000000		 JSR	   Y.PUT
		      *							       LINE 7/12
00001BB2 700A	      L.9.8	 MOVEQ	   #10,D0			         $A
00001BB4 2B408058		 MOVE.L	   D0,STATIC.+88-32768(A5)	         INDEX
		      *							       LINE 7/13
00001BB8 202D8058     L.9.9	 MOVE.L	   STATIC.+88-32768(A5),D0	         INDEX
00001BBC 720A			 MOVEQ	   #10,D1			         $A
00001BBE B081			 CMP.L	   D1,D0
00001BC0 6F06			 BLE.S	   X.9.6(PC)
00001BC2 4EB900000000		 JSR	   E.INDEX
00001BC8 41ED8030     X.9.6	 LEA	   STATIC.+48-32768(A5),A0	         ARRAYVARIABLE
00001BCC E540			 ASL.W	   #2,D0			         $2
00001BCE 721A			 MOVEQ	   #26,D1			         $1A
00001BD0 D2AD8058		 ADD.L	   STATIC.+88-32768(A5),D1	         INDEX
00001BD4 218100FC		 MOVE.L	   D1,-4(A0,D0.W)		         $FFFFFFFC
00001BD8 202D8058		 MOVE.L	   STATIC.+88-32768(A5),D0	         INDEX
00001BDC 5380			 SUBQ.L	   #1,D0			         $1
00001BDE 2B408058		 MOVE.L	   D0,STATIC.+88-32768(A5)	         INDEX
00001BE2 4A80			 TST.L	   D0
00001BE4 6ED2			 BGT.S	   L.9.9(PC)
		      *							       LINE 7/14
00001BE6 202D802C     L.9.10	 MOVE.L	   STATIC.+44-32768(A5),D0	         ARRAYFILE
00001BEA 4A80			 TST.L	   D0
00001BEC 6606			 BNE.S	   X.9.7(PC)00001BEE 4EB900000000		 JSR	   E.FILE
00001BF4 2040	      X.9.7	 MOVEA.L   D0,A0
00001BF6 2050			 MOVEA.L   (A0),A0
00001BF8 4CED0EFE8030		 MOVEM.L   STATIC.+48-32768(A5),#3838	         ARRAYVARIABLE  $EFE
00001BFE 48D00EFE		 MOVEM.L   #3838,(A0)			         $EFE
00001C02 2F00			 MOVE.L	   D0,-(A7)
00001C04 4EB900000000		 JSR	   Y.PUT
		      *							       LINE 7/15
00001C0A 202D802C		 MOVE.L	   STATIC.+44-32768(A5),D0	         ARRAYFILE
00001C0E 4A80			 TST.L	   D0
00001C10 6606			 BNE.S	   X.9.8(PC)
00001C12 4EB900000000		 JSR	   E.FILE
00001C18 2F00	      X.9.8	 MOVE.L	   D0,-(A7)
00001C1A 4EB900000000		 JSR	   I.CLOSE
		      *							       LINE 7/16
00001C20 7028			 MOVEQ	   #40,D0			         $28
00001C22 3F00			 MOVE.W	   D0,-(A7)
00001C24 486D807A		 PEA	   STATIC.+120-32766(A5)	         REAL_FILENAME
00001C28 3F2D8078		 MOVE.W	   STATIC.+120-32768(A5),-(A7)	         REAL_FILENAME
00001C2C 7029			 MOVEQ	   #41,D0			         $29
00001C2E 3F00			 MOVE.W	   D0,-(A7)
00001C30 4EB900000000		 JSR	   Y.INIT
00001C36 2B5F802C		 MOVE.L	   (A7)+,STATIC.+44-32768(A5)	         ARRAYFILE
		      *							       LINE 7/17
00001C3A 7001	      L.9.11	 MOVEQ	   #1,D0			         $1
00001C3C 2B408058		 MOVE.L	   D0,STATIC.+88-32768(A5)	         INDEX
00001C40	      L.9.12
		      *							       LINE 7/18
		      *							       LINE 7/19
00001C40 202D8058     L.9.13	 MOVE.L	   STATIC.+88-32768(A5),D0	         INDEX
00001C44 720A			 MOVEQ	   #10,D1			         $A
00001C46 B081			 CMP.L	   D1,D0
00001C48 6F06			 BLE.S	   X.9.9(PC)
00001C4A 4EB900000000		 JSR	   E.INDEX
00001C50 222D802C     X.9.9	 MOVE.L	   STATIC.+44-32768(A5),D1	         ARRAYFILE
00001C54 4A81			 TST.L	   D1
00001C56 6606			 BNE.S	   X.9.10(PC)
00001C58 4EB900000000		 JSR	   E.FILE
00001C5E 2041	      X.9.10	 MOVEA.L   D1,A0
00001C60 2050			 MOVEA.L   (A0),A0
00001C62 E540			 ASL.W	   #2,D0			         $2
00001C64 203000FC		 MOVE.L	   -4(A0,D0.W),D0		         $FFFFFFFC
00001C68 B0AD8058		 CMP.L	   STATIC.+88-32768(A5),D0	         INDEX
00001C6C 670000CA		 BEQ.L	   L.9.15(PC)
		      *							       LINE 7/20		      *							       LINE 7/21
00001C70 2D7C00000259 L.9.14	 MOVE.L	   #601,-4(A6)			         $259  $FFFFFFFC
	 FFFC
00001C78 6100E398		 BSR.L	   B.3(PC)			         ERROR = CODE.+$12
		      *							       LINE 7/22
00001C7C 202D0000		 MOVE.L	   TTYOUTPUT-32768(A5),D0	         TTYOUTPUT
00001C80 4A80			 TST.L	   D0
00001C82 6606			 BNE.S	   X.9.11(PC)
00001C84 4EB900000000		 JSR	   E.FILE
00001C8A 7224	      X.9.11	 MOVEQ	   #36,D1			         $24
00001C8C 3F01			 MOVE.W	   D1,-(A7)
00001C8E 7204			 MOVEQ	   #4,D1			         $4
00001C90 3F01			 MOVE.W	   D1,-(A7)
00001C92 487AFD1A		 PEA	   K.74(PC)			         CODE.+$19AE
00001C96 2F00			 MOVE.L	   D0,-(A7)
00001C98 4EB900000000		 JSR	   T.WRITE
00001C9E 4267			 CLR.W	   -(A7)
00001CA0 486D8058		 PEA	   STATIC.+88-32768(A5)		         INDEX
00001CA4 2F00			 MOVE.L	   D0,-(A7)
00001CA6 4EB900000000		 JSR	   T.WRITE
00001CAC 7206			 MOVEQ	   #6,D1			         $6
00001CAE 3F01			 MOVE.W	   D1,-(A7)
00001CB0 7204			 MOVEQ	   #4,D1			         $4
00001CB2 3F01			 MOVE.W	   D1,-(A7)
00001CB4 487AFD1C		 PEA	   K.75(PC)			         CODE.+$19D2
00001CB8 2F00			 MOVE.L	   D0,-(A7)
00001CBA 4EB900000000		 JSR	   T.WRITE
00001CC0 222D8058		 MOVE.L	   STATIC.+88-32768(A5),D1	         INDEX
00001CC4 740A			 MOVEQ	   #10,D2			         $A
00001CC6 B282			 CMP.L	   D2,D1
00001CC8 6F06			 BLE.S	   X.9.12(PC)
00001CCA 4EB900000000		 JSR	   E.INDEX
00001CD0 242D802C     X.9.12	 MOVE.L	   STATIC.+44-32768(A5),D2	         ARRAYFILE
00001CD4 4A82			 TST.L	   D2
00001CD6 6606			 BNE.S	   X.9.13(PC)
00001CD8 4EB900000000		 JSR	   E.FILE
00001CDE 2042	      X.9.13	 MOVEA.L   D2,A0
00001CE0 2050			 MOVEA.L   (A0),A0
00001CE2 E541			 ASL.W	   #2,D1			         $2
00001CE4 4267			 CLR.W	   -(A7)
00001CE6 487010FC		 PEA	   -4(A0,D1.W)			         $FFFFFFFC
00001CEA 2F00			 MOVE.L	   D0,-(A7)
00001CEC 4EB900000000		 JSR	   T.WRITE
00001CF2 2F00			 MOVE.L	   D0,-(A7)
00001CF4 4EB900000000		 JSR	   T.WRTLN		      *							       LINE 7/25
00001CFA 202D0000		 MOVE.L	   TTYOUTPUT-32768(A5),D0	         TTYOUTPUT
00001CFE 4A80			 TST.L	   D0
00001D00 6606			 BNE.S	   X.9.14(PC)
00001D02 4EB900000000		 JSR	   E.FILE
00001D08 721E	      X.9.14	 MOVEQ	   #30,D1			         $1E
00001D0A 3F01			 MOVE.W	   D1,-(A7)
00001D0C 7204			 MOVEQ	   #4,D1			         $4
00001D0E 3F01			 MOVE.W	   D1,-(A7)
00001D10 487AFCC6		 PEA	   K.76(PC)			         CODE.+$19D8
00001D14 2F00			 MOVE.L	   D0,-(A7)
00001D16 4EB900000000		 JSR	   T.WRITE
00001D1C 7214			 MOVEQ	   #20,D1			         $14
00001D1E 3F01			 MOVE.W	   D1,-(A7)
00001D20 7204			 MOVEQ	   #4,D1			         $4
00001D22 3F01			 MOVE.W	   D1,-(A7)
00001D24 487AFCD0		 PEA	   K.77(PC)			         CODE.+$19F6
00001D28 2F00			 MOVE.L	   D0,-(A7)
00001D2A 4EB900000000		 JSR	   T.WRITE
00001D30 2F00			 MOVE.L	   D0,-(A7)
00001D32 4EB900000000		 JSR	   T.WRTLN
		      *							       LINE 7/27
		      *							       LINE 7/28
00001D38 202D8058     L.9.15	 MOVE.L	   STATIC.+88-32768(A5),D0	         INDEX
00001D3C 5280			 ADDQ.L	   #1,D0			         $1
00001D3E 2B408058		 MOVE.L	   D0,STATIC.+88-32768(A5)	         INDEX
00001D42 720A			 MOVEQ	   #10,D1			         $A
00001D44 B081			 CMP.L	   D1,D0
00001D46 6F00FEF8		 BLE.L	   L.9.12(PC)
		      *							       LINE 8/2
00001D4A 202D802C     L.9.16	 MOVE.L	   STATIC.+44-32768(A5),D0	         ARRAYFILE
00001D4E 4A80			 TST.L	   D0
00001D50 6606			 BNE.S	   X.9.15(PC)
00001D52 4EB900000000		 JSR	   E.FILE
00001D58 2F00	      X.9.15	 MOVE.L	   D0,-(A7)
00001D5A 4EB900000000		 JSR	   Y.GET
		      *							       LINE 8/3
00001D60 7001	      L.9.17	 MOVEQ	   #1,D0			         $1
00001D62 2B408058		 MOVE.L	   D0,STATIC.+88-32768(A5)	         INDEX
00001D66	      L.9.18
		      *							       LINE 8/4
		      *							       LINE 8/5
00001D66 202D8058     L.9.19	 MOVE.L	   STATIC.+88-32768(A5),D0	         INDEX
00001D6A 720A			 MOVEQ	   #10,D1			         $A
00001D6C B081			 CMP.L	   D1,D000001D6E 6F06			 BLE.S	   X.9.16(PC)
00001D70 4EB900000000		 JSR	   E.INDEX
00001D76 222D802C     X.9.16	 MOVE.L	   STATIC.+44-32768(A5),D1	         ARRAYFILE
00001D7A 4A81			 TST.L	   D1
00001D7C 6606			 BNE.S	   X.9.17(PC)
00001D7E 4EB900000000		 JSR	   E.FILE
00001D84 2041	      X.9.17	 MOVEA.L   D1,A0
00001D86 2050			 MOVEA.L   (A0),A0
00001D88 E540			 ASL.W	   #2,D0			         $2
00001D8A 720A			 MOVEQ	   #10,D1			         $A
00001D8C 92AD8058		 SUB.L	   STATIC.+88-32768(A5),D1	         INDEX
00001D90 B2B000FC		 CMP.L	   -4(A0,D0.W),D1		         $FFFFFFFC
00001D94 670000D4		 BEQ.L	   L.9.21(PC)
		      *							       LINE 8/6
		      *							       LINE 8/7
00001D98 2D7C0000025A L.9.20	 MOVE.L	   #602,-4(A6)			         $25A  $FFFFFFFC
	 FFFC
00001DA0 6100E270		 BSR.L	   B.3(PC)			         ERROR = CODE.+$12
		      *							       LINE 8/8
00001DA4 202D0000		 MOVE.L	   TTYOUTPUT-32768(A5),D0	         TTYOUTPUT
00001DA8 4A80			 TST.L	   D0
00001DAA 6606			 BNE.S	   X.9.18(PC)
00001DAC 4EB900000000		 JSR	   E.FILE
00001DB2 7224	      X.9.18	 MOVEQ	   #36,D1			         $24
00001DB4 3F01			 MOVE.W	   D1,-(A7)
00001DB6 7204			 MOVEQ	   #4,D1			         $4
00001DB8 3F01			 MOVE.W	   D1,-(A7)
00001DBA 487AFC4E		 PEA	   K.78(PC)			         CODE.+$1A0A
00001DBE 2F00			 MOVE.L	   D0,-(A7)
00001DC0 4EB900000000		 JSR	   T.WRITE
00001DC6 720A			 MOVEQ	   #10,D1			         $A
00001DC8 92AD8058		 SUB.L	   STATIC.+88-32768(A5),D1	         INDEX
00001DCC 4267			 CLR.W	   -(A7)
00001DCE 2D41FFF8		 MOVE.L	   D1,-8(A6)			         $FFFFFFF8
00001DD2 486EFFF8		 PEA	   -8(A6)			         $FFFFFFF8
00001DD6 2F00			 MOVE.L	   D0,-(A7)
00001DD8 4EB900000000		 JSR	   T.WRITE
00001DDE 7206			 MOVEQ	   #6,D1			         $6
00001DE0 3F01			 MOVE.W	   D1,-(A7)
00001DE2 7204			 MOVEQ	   #4,D1			         $4
00001DE4 3F01			 MOVE.W	   D1,-(A7)
00001DE6 487AFC46		 PEA	   K.79(PC)			         CODE.+$1A2E
00001DEA 2F00			 MOVE.L	   D0,-(A7)
00001DEC 4EB900000000		 JSR	   T.WRITE
00001DF2 222D8058		 MOVE.L	   STATIC.+88-32768(A5),D1	         INDEX00001DF6 740A			 MOVEQ	   #10,D2			         $A
00001DF8 B282			 CMP.L	   D2,D1
00001DFA 6F06			 BLE.S	   X.9.19(PC)
00001DFC 4EB900000000		 JSR	   E.INDEX
00001E02 242D802C     X.9.19	 MOVE.L	   STATIC.+44-32768(A5),D2	         ARRAYFILE
00001E06 4A82			 TST.L	   D2
00001E08 6606			 BNE.S	   X.9.20(PC)
00001E0A 4EB900000000		 JSR	   E.FILE
00001E10 2042	      X.9.20	 MOVEA.L   D2,A0
00001E12 2050			 MOVEA.L   (A0),A0
00001E14 E541			 ASL.W	   #2,D1			         $2
00001E16 4267			 CLR.W	   -(A7)
00001E18 487010FC		 PEA	   -4(A0,D1.W)			         $FFFFFFFC
00001E1C 2F00			 MOVE.L	   D0,-(A7)
00001E1E 4EB900000000		 JSR	   T.WRITE
00001E24 2F00			 MOVE.L	   D0,-(A7)
00001E26 4EB900000000		 JSR	   T.WRTLN
		      *							       LINE 8/11
00001E2C 202D0000		 MOVE.L	   TTYOUTPUT-32768(A5),D0	         TTYOUTPUT
00001E30 4A80			 TST.L	   D0
00001E32 6606			 BNE.S	   X.9.21(PC)
00001E34 4EB900000000		 JSR	   E.FILE
00001E3A 7220	      X.9.21	 MOVEQ	   #32,D1			         $20
00001E3C 3F01			 MOVE.W	   D1,-(A7)
00001E3E 7204			 MOVEQ	   #4,D1			         $4
00001E40 3F01			 MOVE.W	   D1,-(A7)
00001E42 487AFBF0		 PEA	   K.80(PC)			         CODE.+$1A34
00001E46 2F00			 MOVE.L	   D0,-(A7)
00001E48 4EB900000000		 JSR	   T.WRITE
00001E4E 7212			 MOVEQ	   #18,D1			         $12
00001E50 3F01			 MOVE.W	   D1,-(A7)
00001E52 7204			 MOVEQ	   #4,D1			         $4
00001E54 3F01			 MOVE.W	   D1,-(A7)
00001E56 487AFBFC		 PEA	   K.81(PC)			         CODE.+$1A54
00001E5A 2F00			 MOVE.L	   D0,-(A7)
00001E5C 4EB900000000		 JSR	   T.WRITE
00001E62 2F00			 MOVE.L	   D0,-(A7)
00001E64 4EB900000000		 JSR	   T.WRTLN
		      *							       LINE 8/13
		      *							       LINE 8/14
00001E6A 202D8058     L.9.21	 MOVE.L	   STATIC.+88-32768(A5),D0	         INDEX
00001E6E 5280			 ADDQ.L	   #1,D0			         $1
00001E70 2B408058		 MOVE.L	   D0,STATIC.+88-32768(A5)	         INDEX
00001E74 720A			 MOVEQ	   #10,D1			         $A
00001E76 B081			 CMP.L	   D1,D000001E78 6F00FEEC		 BLE.L	   L.9.18(PC)
		      *							       LINE 8/15
00001E7C 202D802C     L.9.22	 MOVE.L	   STATIC.+44-32768(A5),D0	         ARRAYFILE
00001E80 4A80			 TST.L	   D0
00001E82 6606			 BNE.S	   X.9.22(PC)
00001E84 4EB900000000		 JSR	   E.FILE
00001E8A 2040	      X.9.22	 MOVEA.L   D0,A0
00001E8C 2050			 MOVEA.L   (A0),A0
00001E8E 4CD00EFE		 MOVEM.L   (A0),#3838			         $EFE
00001E92 48ED0EFE8030		 MOVEM.L   #3838,STATIC.+48-32768(A5)	         $EFE  ARRAYVARIABLE
00001E98 2F00			 MOVE.L	   D0,-(A7)
00001E9A 4EB900000000		 JSR	   Y.GET
		      *							       LINE 8/16
00001EA0 202D802C		 MOVE.L	   STATIC.+44-32768(A5),D0	         ARRAYFILE
00001EA4 4A80			 TST.L	   D0
00001EA6 6606			 BNE.S	   X.9.23(PC)
00001EA8 4EB900000000		 JSR	   E.FILE
00001EAE 2040	      X.9.23	 MOVEA.L   D0,A0
00001EB0 2050			 MOVEA.L   (A0),A0
00001EB2 4CD00EFE		 MOVEM.L   (A0),#3838			         $EFE
00001EB6 48ED0EFE8030		 MOVEM.L   #3838,STATIC.+48-32768(A5)	         $EFE  ARRAYVARIABLE
00001EBC 2F00			 MOVE.L	   D0,-(A7)
00001EBE 4EB900000000		 JSR	   Y.GET
		      *							       LINE 8/17
00001EC4 7001	      L.9.23	 MOVEQ	   #1,D0			         $1
00001EC6 2B408058		 MOVE.L	   D0,STATIC.+88-32768(A5)	         INDEX
00001ECA	      L.9.24
		      *							       LINE 8/18
		      *							       LINE 8/19
00001ECA 202D8058     L.9.25	 MOVE.L	   STATIC.+88-32768(A5),D0	         INDEX
00001ECE 720A			 MOVEQ	   #10,D1			         $A
00001ED0 B081			 CMP.L	   D1,D0
00001ED2 6F06			 BLE.S	   X.9.24(PC)
00001ED4 4EB900000000		 JSR	   E.INDEX
00001EDA 41ED8030     X.9.24	 LEA	   STATIC.+48-32768(A5),A0	         ARRAYVARIABLE
00001EDE E540			 ASL.W	   #2,D0			         $2
00001EE0 721A			 MOVEQ	   #26,D1			         $1A
00001EE2 D2AD8058		 ADD.L	   STATIC.+88-32768(A5),D1	         INDEX
00001EE6 B2B000FC		 CMP.L	   -4(A0,D0.W),D1		         $FFFFFFFC
00001EEA 670000C6		 BEQ.L	   L.9.27(PC)
		      *							       LINE 8/20
		      *							       LINE 8/21
00001EEE 2D7C0000025B L.9.26	 MOVE.L	   #603,-4(A6)			         $25B  $FFFFFFFC
	 FFFC
00001EF6 6100E11A		 BSR.L	   B.3(PC)			         ERROR = CODE.+$12		      *							       LINE 8/22
00001EFA 202D0000		 MOVE.L	   TTYOUTPUT-32768(A5),D0	         TTYOUTPUT
00001EFE 4A80			 TST.L	   D0
00001F00 6606			 BNE.S	   X.9.25(PC)
00001F02 4EB900000000		 JSR	   E.FILE
00001F08 7224	      X.9.25	 MOVEQ	   #36,D1			         $24
00001F0A 3F01			 MOVE.W	   D1,-(A7)
00001F0C 7204			 MOVEQ	   #4,D1			         $4
00001F0E 3F01			 MOVE.W	   D1,-(A7)
00001F10 487AFB54		 PEA	   K.82(PC)			         CODE.+$1A66
00001F14 2F00			 MOVE.L	   D0,-(A7)
00001F16 4EB900000000		 JSR	   T.WRITE
00001F1C 721A			 MOVEQ	   #26,D1			         $1A
00001F1E D2AD8058		 ADD.L	   STATIC.+88-32768(A5),D1	         INDEX
00001F22 4267			 CLR.W	   -(A7)
00001F24 2D41FFF8		 MOVE.L	   D1,-8(A6)			         $FFFFFFF8
00001F28 486EFFF8		 PEA	   -8(A6)			         $FFFFFFF8
00001F2C 2F00			 MOVE.L	   D0,-(A7)
00001F2E 4EB900000000		 JSR	   T.WRITE
00001F34 7206			 MOVEQ	   #6,D1			         $6
00001F36 3F01			 MOVE.W	   D1,-(A7)
00001F38 7204			 MOVEQ	   #4,D1			         $4
00001F3A 3F01			 MOVE.W	   D1,-(A7)
00001F3C 487AFB4C		 PEA	   K.83(PC)			         CODE.+$1A8A
00001F40 2F00			 MOVE.L	   D0,-(A7)
00001F42 4EB900000000		 JSR	   T.WRITE
00001F48 222D8058		 MOVE.L	   STATIC.+88-32768(A5),D1	         INDEX
00001F4C 740A			 MOVEQ	   #10,D2			         $A
00001F4E B282			 CMP.L	   D2,D1
00001F50 6F06			 BLE.S	   X.9.26(PC)
00001F52 4EB900000000		 JSR	   E.INDEX
00001F58 41ED8030     X.9.26	 LEA	   STATIC.+48-32768(A5),A0	         ARRAYVARIABLE
00001F5C E541			 ASL.W	   #2,D1			         $2
00001F5E 4267			 CLR.W	   -(A7)
00001F60 487010FC		 PEA	   -4(A0,D1.W)			         $FFFFFFFC
00001F64 2F00			 MOVE.L	   D0,-(A7)
00001F66 4EB900000000		 JSR	   T.WRITE
00001F6C 2F00			 MOVE.L	   D0,-(A7)
00001F6E 4EB900000000		 JSR	   T.WRTLN
		      *							       LINE 8/25
00001F74 202D0000		 MOVE.L	   TTYOUTPUT-32768(A5),D0	         TTYOUTPUT
00001F78 4A80			 TST.L	   D0
00001F7A 6606			 BNE.S	   X.9.27(PC)
00001F7C 4EB900000000		 JSR	   E.FILE
00001F82 7220	      X.9.27	 MOVEQ	   #32,D1			         $2000001F84 3F01			 MOVE.W	   D1,-(A7)
00001F86 7204			 MOVEQ	   #4,D1			         $4
00001F88 3F01			 MOVE.W	   D1,-(A7)
00001F8A 487AFB04		 PEA	   K.84(PC)			         CODE.+$1A90
00001F8E 2F00			 MOVE.L	   D0,-(A7)
00001F90 4EB900000000		 JSR	   T.WRITE
00001F96 7213			 MOVEQ	   #19,D1			         $13
00001F98 3F01			 MOVE.W	   D1,-(A7)
00001F9A 7204			 MOVEQ	   #4,D1			         $4
00001F9C 3F01			 MOVE.W	   D1,-(A7)
00001F9E 487AFB10		 PEA	   K.85(PC)			         CODE.+$1AB0
00001FA2 2F00			 MOVE.L	   D0,-(A7)
00001FA4 4EB900000000		 JSR	   T.WRITE
00001FAA 2F00			 MOVE.L	   D0,-(A7)
00001FAC 4EB900000000		 JSR	   T.WRTLN
		      *							       LINE 8/27
		      *							       LINE 8/28
00001FB2 202D8058     L.9.27	 MOVE.L	   STATIC.+88-32768(A5),D0	         INDEX
00001FB6 5280			 ADDQ.L	   #1,D0			         $1
00001FB8 2B408058		 MOVE.L	   D0,STATIC.+88-32768(A5)	         INDEX
00001FBC 720A			 MOVEQ	   #10,D1			         $A
00001FBE B081			 CMP.L	   D1,D0
00001FC0 6F00FF08		 BLE.L	   L.9.24(PC)
		      *							       LINE 8/29
00001FC4 202D802C     L.9.28	 MOVE.L	   STATIC.+44-32768(A5),D0	         ARRAYFILE
00001FC8 4A80			 TST.L	   D0
00001FCA 6606			 BNE.S	   X.9.28(PC)
00001FCC 4EB900000000		 JSR	   E.FILE
00001FD2 2F00	      X.9.28	 MOVE.L	   D0,-(A7)
00001FD4 4EB900000000		 JSR	   I.EOF
00001FDA 4A1F			 TST.B	   (A7)+
00001FDC 6636			 BNE.S	   L.9.30(PC)
		      *							       LINE 8/30
		      *							       LINE 8/31
00001FDE 2D7C0000025C L.9.29	 MOVE.L	   #604,-4(A6)			         $25C  $FFFFFFFC
	 FFFC
00001FE6 6100E02A		 BSR.L	   B.3(PC)			         ERROR = CODE.+$12
		      *							       LINE 8/32
00001FEA 202D0000		 MOVE.L	   TTYOUTPUT-32768(A5),D0	         TTYOUTPUT
00001FEE 4A80			 TST.L	   D0
00001FF0 6606			 BNE.S	   X.9.29(PC)
00001FF2 4EB900000000		 JSR	   E.FILE
00001FF8 7224	      X.9.29	 MOVEQ	   #36,D1			         $24
00001FFA 3F01			 MOVE.W	   D1,-(A7)
00001FFC 7204			 MOVEQ	   #4,D1			         $400001FFE 3F01			 MOVE.W	   D1,-(A7)
00002000 487AFAC2		 PEA	   K.86(PC)			         CODE.+$1AC4
00002004 2F00			 MOVE.L	   D0,-(A7)
00002006 4EB900000000		 JSR	   T.WRITE
0000200C 2F00			 MOVE.L	   D0,-(A7)
0000200E 4EB900000000		 JSR	   T.WRTLN
		      *							       LINE 8/33
		      *							       LINE 8/34
00002014 202D802C     L.9.30	 MOVE.L	   STATIC.+44-32768(A5),D0	         ARRAYFILE
00002018 4A80			 TST.L	   D0
0000201A 6606			 BNE.S	   X.9.30(PC)
0000201C 4EB900000000		 JSR	   E.FILE
00002022 2F00	      X.9.30	 MOVE.L	   D0,-(A7)
00002024 4EB900000000		 JSR	   I.CLOSE
		      *							       LINE 8/35
0000202A 4E75			 RTS	   
		      *
		      *		 Constant area for subroutine TESTRECORDFILE
		      *
0000202C E090AE6F     K.87	 DC.L	   $E090AE6F				 123456000000000.00000
00002030 F1206054     K.88	 DC.L	   $F1206054				 987654.
00002034 B177334D     K.89	 DC.L	   $B177334D				 5678.9000000000000004
00002038 E090AE6F     K.90	 DC.L	   $E090AE6F				 123456000000000.00000
0000203C 57726F6E6720 K.91	 DC.B	   'Wrong value in recordfile: expected: '
00002061 00000001		 DS.B	   1
00002062 E090AE6F     K.92	 DC.L	   $E090AE6F				 123456000000000.00000
00002066 20676F743A20 K.93	 DC.B	   ' got: '
0000206C 56616C756520 K.94	 DC.B	   'Value placed in file by "put", retrieved by "reset"'
0000209F 00000001		 DS.B	   1
000020A0 57726F6E6720 K.95	 DC.B	   'Wrong value in recordfile: expected: '
000020C5 00000001		 DS.B	   1
000020C6 0001E240     K.96	 DC.L	   123456			         $1E240
000020CA 20676F743A20 K.97	 DC.B	   ' got: '
000020D0 56616C756520 K.98	 DC.B	   'Value placed in file by "put", retrieved by "reset"'
00002103 00000001		 DS.B	   1
00002104 57726F6E6720 K.99	 DC.B	   'Wrong value in recordfile: expected: '
00002129 00000001		 DS.B	   1
0000212A 01	      K.100	 DC.B	   1				         $1
0000212B 00000001		 DS.B	   1				       Fill byte
0000212C 20676F743A20 K.101	 DC.B	   ' got: '
00002132 56616C756520 K.102	 DC.B	   'Value placed in file by "put", retrieved by "reset"'
00002165 00000001		 DS.B	   1
00002166 57726F6E6720 K.103	 DC.B	   'Wrong value in recordfile: expected: '
0000218B 00000001		 DS.B	   1
0000218C 20676F743A20 K.104	 DC.B	   ' got: '00002192 56616C756520 K.105	 DC.B	   'Value placed in file by "put", retrieved by "reset"'
000021C5 00000001		 DS.B	   1
000021C6 F1206054     K.106	 DC.L	   $F1206054				 987654.
000021CA 57726F6E6720 K.107	 DC.B	   'Wrong value in recordfile: expected: '
000021EF 00000001		 DS.B	   1
000021F0 F1206054     K.108	 DC.L	   $F1206054				 987654.
000021F4 20676F743A20 K.109	 DC.B	   ' got: '
000021FA 56616C756520 K.110	 DC.B	   'Value placed in file by "write", retrieved by "get"'
0000222D 00000001		 DS.B	   1
0000222E 57726F6E6720 K.111	 DC.B	   'Wrong value in recordfile: expected: '
00002253 00000001		 DS.B	   1
00002254 000F1206     K.112	 DC.L	   987654			         $F1206
00002258 20676F743A20 K.113	 DC.B	   ' got: '
0000225E 56616C756520 K.114	 DC.B	   'Value placed in file by "write", retrieved by "get"'
00002291 00000001		 DS.B	   1
00002292 57726F6E6720 K.115	 DC.B	   'Wrong value in recordfile: expected: '
000022B7 00000001		 DS.B	   1
000022B8 00	      K.116	 DC.B	   0				         $0
000022B9 00000001		 DS.B	   1				       Fill byte
000022BA 20676F743A20 K.117	 DC.B	   ' got: '
000022C0 56616C756520 K.118	 DC.B	   'Value placed in file by "write", retrieved by "get"'
000022F3 00000001		 DS.B	   1
000022F4 57726F6E6720 K.119	 DC.B	   'Wrong value in recordfile: expected: '
00002319 00000001		 DS.B	   1
0000231A 20676F743A20 K.120	 DC.B	   ' got: '
00002320 56616C756520 K.121	 DC.B	   'Value placed in file by "write", retrieved by "get"'
00002353 00000001		 DS.B	   1
00002354 B177334D     K.122	 DC.L	   $B177334D				 5678.9000000000000004
00002358 57726F6E6720 K.123	 DC.B	   'Wrong value in recordfile: expected: '
0000237D 00000001		 DS.B	   1
0000237E B177334D     K.124	 DC.L	   $B177334D				 5678.9000000000000004
00002382 20676F743A20 K.125	 DC.B	   ' got: '
00002388 56616C756520 K.126	 DC.B	   'Value placed in file by "write", retrieved by "read"'
000023BC 57726F6E6720 K.127	 DC.B	   'Wrong value in recordfile: expected: '
000023E1 00000001		 DS.B	   1
000023E2 0000DDD5     K.128	 DC.L	   56789			         $DDD5
000023E6 20676F743A20 K.129	 DC.B	   ' got: '
000023EC 56616C756520 K.130	 DC.B	   'Value placed in file by "write", retrieved by "read"'
00002420 57726F6E6720 K.131	 DC.B	   'Wrong value in recordfile: expected: '
00002445 00000001		 DS.B	   1
00002446 01	      K.132	 DC.B	   1				         $1
00002447 00000001		 DS.B	   1				       Fill byte
00002448 20676F743A20 K.133	 DC.B	   ' got: '
0000244E 56616C756520 K.134	 DC.B	   'Value placed in file by "write", retrieved by "read"'
00002482 57726F6E6720 K.135	 DC.B	   'Wrong value in recordfile: expected: '000024A7 00000001		 DS.B	   1
000024A8 20676F743A20 K.136	 DC.B	   ' got: '
000024AE 56616C756520 K.137	 DC.B	   'Value placed in file by "write", retrieved by "read"'
000024E2 4469646E2774 K.138	 DC.B	   'Didn't get end of file on recordfile.'
00002507 00000001		 DS.B	   1
		      *
		      *		 Begin subroutine TESTRECORDFILE
		      *
00002508	      B.10
		      *							       LINE 9/4
		      *							       LINE 9/5
00002508 700A	      L.10.1	 MOVEQ	   #10,D0			         $A
0000250A 3F00			 MOVE.W	   D0,-(A7)
0000250C 486D807A		 PEA	   STATIC.+120-32766(A5)	         REAL_FILENAME
00002510 3F2D8078		 MOVE.W	   STATIC.+120-32768(A5),-(A7)	         REAL_FILENAME
00002514 702A			 MOVEQ	   #42,D0			         $2A
00002516 3F00			 MOVE.W	   D0,-(A7)
00002518 4EB900000000		 JSR	   Y.INIT
0000251E 2B5F805C		 MOVE.L	   (A7)+,STATIC.+92-32768(A5)	         RECORDFILE
		      *							       LINE 9/6
00002522 202D805C		 MOVE.L	   STATIC.+92-32768(A5),D0	         RECORDFILE
00002526 4A80			 TST.L	   D0
00002528 6606			 BNE.S	   X.10.1(PC)
0000252A 4EB900000000		 JSR	   E.FILE
00002530 2040	      X.10.1	 MOVEA.L   D0,A0
00002532 2050			 MOVEA.L   (A0),A0
00002534 20BAFAF6		 MOVE.L	   K.87(PC),(A0)		         CODE.+$202C
		      *							       LINE 9/7
00002538 202D805C		 MOVE.L	   STATIC.+92-32768(A5),D0	         RECORDFILE
0000253C 4A80			 TST.L	   D0
0000253E 6606			 BNE.S	   X.10.2(PC)
00002540 4EB900000000		 JSR	   E.FILE
00002546 2040	      X.10.2	 MOVEA.L   D0,A0
00002548 2050			 MOVEA.L   (A0),A0
0000254A 217C0001E240		 MOVE.L	   #123456,4(A0)		         $1E240  $4
	 0004
		      *							       LINE 9/8
00002552 202D805C		 MOVE.L	   STATIC.+92-32768(A5),D0	         RECORDFILE
00002556 4A80			 TST.L	   D0
00002558 6606			 BNE.S	   X.10.3(PC)
0000255A 4EB900000000		 JSR	   E.FILE
00002560 2040	      X.10.3	 MOVEA.L   D0,A0
00002562 2050			 MOVEA.L   (A0),A0
00002564 7001			 MOVEQ	   #1,D0			         $1
00002566 11400008		 MOVE.B	   D0,8(A0)			         $8		      *							       LINE 9/9
0000256A 202D805C		 MOVE.L	   STATIC.+92-32768(A5),D0	         RECORDFILE
0000256E 4A80			 TST.L	   D0
00002570 6606			 BNE.S	   X.10.4(PC)
00002572 4EB900000000		 JSR	   E.FILE
00002578 2040	      X.10.4	 MOVEA.L   D0,A0
0000257A 2050			 MOVEA.L   (A0),A0
0000257C 7061			 MOVEQ	   #97,D0			         $61
0000257E 11400009		 MOVE.B	   D0,9(A0)			         $9
		      *							       LINE 9/10
00002582 202D805C		 MOVE.L	   STATIC.+92-32768(A5),D0	         RECORDFILE
00002586 4A80			 TST.L	   D0
00002588 6606			 BNE.S	   X.10.5(PC)
0000258A 4EB900000000		 JSR	   E.FILE
00002590 2F00	      X.10.5	 MOVE.L	   D0,-(A7)
00002592 4EB900000000		 JSR	   Y.PUT
		      *							       LINE 9/11
00002598 2B7AFA968060		 MOVE.L	   K.88(PC),STATIC.+96-32768(A5)         CODE.+$2030  RECORDVA
		      *							       LINE 9/12
0000259E 2B7C000F1206		 MOVE.L	   #987654,STATIC.+96-32764(A5)	         $F1206  RECORDVARIABL
	 8064
		      *							       LINE 9/13
000025A6 7000			 MOVEQ	   #0,D0			         $0
000025A8 1B408068		 MOVE.B	   D0,STATIC.+96-32760(A5)	         RECORDVARIABLE
		      *							       LINE 9/14
000025AC 7062			 MOVEQ	   #98,D0			         $62
000025AE 1B408069		 MOVE.B	   D0,STATIC.+96-32759(A5)	         RECORDVARIABLE
		      *							       LINE 9/15
000025B2 202D805C		 MOVE.L	   STATIC.+92-32768(A5),D0	         RECORDFILE
000025B6 4A80			 TST.L	   D0
000025B8 6606			 BNE.S	   X.10.6(PC)
000025BA 4EB900000000		 JSR	   E.FILE
000025C0 2040	      X.10.6	 MOVEA.L   D0,A0
000025C2 2050			 MOVEA.L   (A0),A0
000025C4 43ED8060		 LEA	   STATIC.+96-32768(A5),A1	         RECORDVARIABLE
000025C8 20D9			 MOVE.L	   (A1)+,(A0)+
000025CA 20D9			 MOVE.L	   (A1)+,(A0)+
000025CC 30D9			 MOVE.W	   (A1)+,(A0)+
000025CE 2F00			 MOVE.L	   D0,-(A7)
000025D0 4EB900000000		 JSR	   Y.PUT
		      *							       LINE 9/16
000025D6 2B7AFA5C8060		 MOVE.L	   K.89(PC),STATIC.+96-32768(A5)         CODE.+$2034  RECORDVA
		      *							       LINE 9/17
000025DC 2B7C0000DDD5		 MOVE.L	   #56789,STATIC.+96-32764(A5)	         $DDD5  RECORDVARIABLE
	 8064		      *							       LINE 9/18
000025E4 7001			 MOVEQ	   #1,D0			         $1
000025E6 1B408068		 MOVE.B	   D0,STATIC.+96-32760(A5)	         RECORDVARIABLE
		      *							       LINE 9/19
000025EA 7063			 MOVEQ	   #99,D0			         $63
000025EC 1B408069		 MOVE.B	   D0,STATIC.+96-32759(A5)	         RECORDVARIABLE
		      *							       LINE 9/20
000025F0 202D805C		 MOVE.L	   STATIC.+92-32768(A5),D0	         RECORDFILE
000025F4 4A80			 TST.L	   D0
000025F6 6606			 BNE.S	   X.10.7(PC)
000025F8 4EB900000000		 JSR	   E.FILE
000025FE 2040	      X.10.7	 MOVEA.L   D0,A0
00002600 2050			 MOVEA.L   (A0),A0
00002602 43ED8060		 LEA	   STATIC.+96-32768(A5),A1	         RECORDVARIABLE
00002606 20D9			 MOVE.L	   (A1)+,(A0)+
00002608 20D9			 MOVE.L	   (A1)+,(A0)+
0000260A 30D9			 MOVE.W	   (A1)+,(A0)+
0000260C 2F00			 MOVE.L	   D0,-(A7)
0000260E 4EB900000000		 JSR	   Y.PUT
		      *							       LINE 10/2
00002614 202D805C		 MOVE.L	   STATIC.+92-32768(A5),D0	         RECORDFILE
00002618 4A80			 TST.L	   D0
0000261A 6606			 BNE.S	   X.10.8(PC)
0000261C 4EB900000000		 JSR	   E.FILE
00002622 2F00	      X.10.8	 MOVE.L	   D0,-(A7)
00002624 4EB900000000		 JSR	   I.CLOSE
		      *							       LINE 10/3
0000262A 700A			 MOVEQ	   #10,D0			         $A
0000262C 3F00			 MOVE.W	   D0,-(A7)
0000262E 486D807A		 PEA	   STATIC.+120-32766(A5)	         REAL_FILENAME
00002632 3F2D8078		 MOVE.W	   STATIC.+120-32768(A5),-(A7)	         REAL_FILENAME
00002636 7029			 MOVEQ	   #41,D0			         $29
00002638 3F00			 MOVE.W	   D0,-(A7)
0000263A 4EB900000000		 JSR	   Y.INIT
00002640 2B5F805C		 MOVE.L	   (A7)+,STATIC.+92-32768(A5)	         RECORDFILE
		      *							       LINE 10/4
00002644 202D805C		 MOVE.L	   STATIC.+92-32768(A5),D0	         RECORDFILE
00002648 4A80			 TST.L	   D0
0000264A 6606			 BNE.S	   X.10.9(PC)
0000264C 4EB900000000		 JSR	   E.FILE
00002652 2040	      X.10.9	 MOVEA.L   D0,A0
00002654 2050			 MOVEA.L   (A0),A0
00002656 2F10			 MOVE.L	   (A0),-(A7)
00002658 2F3AF9DE		 MOVE.L	   K.90(PC),-(A7)		         CODE.+$2038
0000265C 4EB900000000		 JSR	   F.CMP00002662 670000AE		 BEQ.L	   L.10.3(PC)
		      *							       LINE 10/5
		      *							       LINE 10/6
00002666 2D7C000002BD L.10.2	 MOVE.L	   #701,-4(A6)			         $2BD  $FFFFFFFC
	 FFFC
0000266E 6100D9A2		 BSR.L	   B.3(PC)			         ERROR = CODE.+$12
		      *							       LINE 10/7
00002672 202D0000		 MOVE.L	   TTYOUTPUT-32768(A5),D0	         TTYOUTPUT
00002676 4A80			 TST.L	   D0
00002678 6606			 BNE.S	   X.10.10(PC)
0000267A 4EB900000000		 JSR	   E.FILE
00002680 7225	      X.10.10	 MOVEQ	   #37,D1			         $25
00002682 3F01			 MOVE.W	   D1,-(A7)
00002684 7204			 MOVEQ	   #4,D1			         $4
00002686 3F01			 MOVE.W	   D1,-(A7)
00002688 487AF9B2		 PEA	   K.91(PC)			         CODE.+$203C
0000268C 2F00			 MOVE.L	   D0,-(A7)
0000268E 4EB900000000		 JSR	   T.WRITE
00002694 7206			 MOVEQ	   #6,D1			         $6
00002696 2F01			 MOVE.L	   D1,-(A7)
00002698 7201			 MOVEQ	   #1,D1			         $1
0000269A 3F01			 MOVE.W	   D1,-(A7)
0000269C 487AF9C4		 PEA	   K.92(PC)			         CODE.+$2062
000026A0 2F00			 MOVE.L	   D0,-(A7)
000026A2 4EB900000000		 JSR	   T.WRITE
000026A8 7206			 MOVEQ	   #6,D1			         $6
000026AA 3F01			 MOVE.W	   D1,-(A7)
000026AC 7204			 MOVEQ	   #4,D1			         $4
000026AE 3F01			 MOVE.W	   D1,-(A7)
000026B0 487AF9B4		 PEA	   K.93(PC)			         CODE.+$2066
000026B4 2F00			 MOVE.L	   D0,-(A7)
000026B6 4EB900000000		 JSR	   T.WRITE
000026BC 222D805C		 MOVE.L	   STATIC.+92-32768(A5),D1	         RECORDFILE
000026C0 4A81			 TST.L	   D1
000026C2 6606			 BNE.S	   X.10.11(PC)
000026C4 4EB900000000		 JSR	   E.FILE
000026CA 2041	      X.10.11	 MOVEA.L   D1,A0
000026CC 2050			 MOVEA.L   (A0),A0
000026CE 7206			 MOVEQ	   #6,D1			         $6
000026D0 2F01			 MOVE.L	   D1,-(A7)
000026D2 7201			 MOVEQ	   #1,D1			         $1
000026D4 3F01			 MOVE.W	   D1,-(A7)
000026D6 4850			 PEA	   (A0)
000026D8 2F00			 MOVE.L	   D0,-(A7)
000026DA 4EB900000000		 JSR	   T.WRITE000026E0 2F00			 MOVE.L	   D0,-(A7)
000026E2 4EB900000000		 JSR	   T.WRTLN
		      *							       LINE 10/9
000026E8 202D0000		 MOVE.L	   TTYOUTPUT-32768(A5),D0	         TTYOUTPUT
000026EC 4A80			 TST.L	   D0
000026EE 6606			 BNE.S	   X.10.12(PC)
000026F0 4EB900000000		 JSR	   E.FILE
000026F6 7233	      X.10.12	 MOVEQ	   #51,D1			         $33
000026F8 3F01			 MOVE.W	   D1,-(A7)
000026FA 7204			 MOVEQ	   #4,D1			         $4
000026FC 3F01			 MOVE.W	   D1,-(A7)
000026FE 487AF96C		 PEA	   K.94(PC)			         CODE.+$206C
00002702 2F00			 MOVE.L	   D0,-(A7)
00002704 4EB900000000		 JSR	   T.WRITE
0000270A 2F00			 MOVE.L	   D0,-(A7)
0000270C 4EB900000000		 JSR	   T.WRTLN
		      *							       LINE 10/10
		      *							       LINE 10/11
00002712 202D805C     L.10.3	 MOVE.L	   STATIC.+92-32768(A5),D0	         RECORDFILE
00002716 4A80			 TST.L	   D0
00002718 6606			 BNE.S	   X.10.13(PC)
0000271A 4EB900000000		 JSR	   E.FILE
00002720 2040	      X.10.13	 MOVEA.L   D0,A0
00002722 2050			 MOVEA.L   (A0),A0
00002724 0CA80001E240		 CMPI.L	   #123456,4(A0)		         $1E240  $4
	 0004
0000272C 670000A4		 BEQ.L	   L.10.5(PC)
		      *							       LINE 10/12
		      *							       LINE 10/13
00002730 2D7C000002BE L.10.4	 MOVE.L	   #702,-4(A6)			         $2BE  $FFFFFFFC
	 FFFC
00002738 6100D8D8		 BSR.L	   B.3(PC)			         ERROR = CODE.+$12
		      *							       LINE 10/14
0000273C 202D0000		 MOVE.L	   TTYOUTPUT-32768(A5),D0	         TTYOUTPUT
00002740 4A80			 TST.L	   D0
00002742 6606			 BNE.S	   X.10.14(PC)
00002744 4EB900000000		 JSR	   E.FILE
0000274A 7225	      X.10.14	 MOVEQ	   #37,D1			         $25
0000274C 3F01			 MOVE.W	   D1,-(A7)
0000274E 7204			 MOVEQ	   #4,D1			         $4
00002750 3F01			 MOVE.W	   D1,-(A7)
00002752 487AF94C		 PEA	   K.95(PC)			         CODE.+$20A0
00002756 2F00			 MOVE.L	   D0,-(A7)
00002758 4EB900000000		 JSR	   T.WRITE
0000275E 4267			 CLR.W	   -(A7)00002760 487AF964		 PEA	   K.96(PC)			         CODE.+$20C6
00002764 2F00			 MOVE.L	   D0,-(A7)
00002766 4EB900000000		 JSR	   T.WRITE
0000276C 7206			 MOVEQ	   #6,D1			         $6
0000276E 3F01			 MOVE.W	   D1,-(A7)
00002770 7204			 MOVEQ	   #4,D1			         $4
00002772 3F01			 MOVE.W	   D1,-(A7)
00002774 487AF954		 PEA	   K.97(PC)			         CODE.+$20CA
00002778 2F00			 MOVE.L	   D0,-(A7)
0000277A 4EB900000000		 JSR	   T.WRITE
00002780 222D805C		 MOVE.L	   STATIC.+92-32768(A5),D1	         RECORDFILE
00002784 4A81			 TST.L	   D1
00002786 6606			 BNE.S	   X.10.15(PC)
00002788 4EB900000000		 JSR	   E.FILE
0000278E 2041	      X.10.15	 MOVEA.L   D1,A0
00002790 2050			 MOVEA.L   (A0),A0
00002792 4267			 CLR.W	   -(A7)
00002794 48680004		 PEA	   4(A0)			         $4
00002798 2F00			 MOVE.L	   D0,-(A7)
0000279A 4EB900000000		 JSR	   T.WRITE
000027A0 2F00			 MOVE.L	   D0,-(A7)
000027A2 4EB900000000		 JSR	   T.WRTLN
		      *							       LINE 10/16
000027A8 202D0000		 MOVE.L	   TTYOUTPUT-32768(A5),D0	         TTYOUTPUT
000027AC 4A80			 TST.L	   D0
000027AE 6606			 BNE.S	   X.10.16(PC)
000027B0 4EB900000000		 JSR	   E.FILE
000027B6 7233	      X.10.16	 MOVEQ	   #51,D1			         $33
000027B8 3F01			 MOVE.W	   D1,-(A7)
000027BA 7204			 MOVEQ	   #4,D1			         $4
000027BC 3F01			 MOVE.W	   D1,-(A7)
000027BE 487AF910		 PEA	   K.98(PC)			         CODE.+$20D0
000027C2 2F00			 MOVE.L	   D0,-(A7)
000027C4 4EB900000000		 JSR	   T.WRITE
000027CA 2F00			 MOVE.L	   D0,-(A7)
000027CC 4EB900000000		 JSR	   T.WRTLN
		      *							       LINE 10/17
		      *							       LINE 10/18
000027D2 202D805C     L.10.5	 MOVE.L	   STATIC.+92-32768(A5),D0	         RECORDFILE
000027D6 4A80			 TST.L	   D0
000027D8 6606			 BNE.S	   X.10.17(PC)
000027DA 4EB900000000		 JSR	   E.FILE
000027E0 2040	      X.10.17	 MOVEA.L   D0,A0
000027E2 2050			 MOVEA.L   (A0),A0
000027E4 7001			 MOVEQ	   #1,D0			         $1000027E6 B0280008		 CMP.B	   8(A0),D0			         $8
000027EA 670000A8		 BEQ.L	   L.10.7(PC)
		      *							       LINE 10/19
		      *							       LINE 10/20
000027EE 2D7C000002BF L.10.6	 MOVE.L	   #703,-4(A6)			         $2BF  $FFFFFFFC
	 FFFC
000027F6 6100D81A		 BSR.L	   B.3(PC)			         ERROR = CODE.+$12
		      *							       LINE 10/21
000027FA 202D0000		 MOVE.L	   TTYOUTPUT-32768(A5),D0	         TTYOUTPUT
000027FE 4A80			 TST.L	   D0
00002800 6606			 BNE.S	   X.10.18(PC)
00002802 4EB900000000		 JSR	   E.FILE
00002808 7225	      X.10.18	 MOVEQ	   #37,D1			         $25
0000280A 3F01			 MOVE.W	   D1,-(A7)
0000280C 7204			 MOVEQ	   #4,D1			         $4
0000280E 3F01			 MOVE.W	   D1,-(A7)
00002810 487AF8F2		 PEA	   K.99(PC)			         CODE.+$2104
00002814 2F00			 MOVE.L	   D0,-(A7)
00002816 4EB900000000		 JSR	   T.WRITE
0000281C 7205			 MOVEQ	   #5,D1			         $5
0000281E 3F01			 MOVE.W	   D1,-(A7)
00002820 487AF908		 PEA	   K.100(PC)			         CODE.+$212A
00002824 2F00			 MOVE.L	   D0,-(A7)
00002826 4EB900000000		 JSR	   T.WRITE
0000282C 7206			 MOVEQ	   #6,D1			         $6
0000282E 3F01			 MOVE.W	   D1,-(A7)
00002830 7204			 MOVEQ	   #4,D1			         $4
00002832 3F01			 MOVE.W	   D1,-(A7)
00002834 487AF8F6		 PEA	   K.101(PC)			         CODE.+$212C
00002838 2F00			 MOVE.L	   D0,-(A7)
0000283A 4EB900000000		 JSR	   T.WRITE
00002840 222D805C		 MOVE.L	   STATIC.+92-32768(A5),D1	         RECORDFILE
00002844 4A81			 TST.L	   D1
00002846 6606			 BNE.S	   X.10.19(PC)
00002848 4EB900000000		 JSR	   E.FILE
0000284E 2041	      X.10.19	 MOVEA.L   D1,A0
00002850 2050			 MOVEA.L   (A0),A0
00002852 7205			 MOVEQ	   #5,D1			         $5
00002854 3F01			 MOVE.W	   D1,-(A7)
00002856 48680008		 PEA	   8(A0)			         $8
0000285A 2F00			 MOVE.L	   D0,-(A7)
0000285C 4EB900000000		 JSR	   T.WRITE
00002862 2F00			 MOVE.L	   D0,-(A7)
00002864 4EB900000000		 JSR	   T.WRTLN
		      *							       LINE 10/230000286A 202D0000		 MOVE.L	   TTYOUTPUT-32768(A5),D0	         TTYOUTPUT
0000286E 4A80			 TST.L	   D0
00002870 6606			 BNE.S	   X.10.20(PC)
00002872 4EB900000000		 JSR	   E.FILE
00002878 7233	      X.10.20	 MOVEQ	   #51,D1			         $33
0000287A 3F01			 MOVE.W	   D1,-(A7)
0000287C 7204			 MOVEQ	   #4,D1			         $4
0000287E 3F01			 MOVE.W	   D1,-(A7)
00002880 487AF8B0		 PEA	   K.102(PC)			         CODE.+$2132
00002884 2F00			 MOVE.L	   D0,-(A7)
00002886 4EB900000000		 JSR	   T.WRITE
0000288C 2F00			 MOVE.L	   D0,-(A7)
0000288E 4EB900000000		 JSR	   T.WRTLN
		      *							       LINE 10/24
		      *							       LINE 10/25
00002894 202D805C     L.10.7	 MOVE.L	   STATIC.+92-32768(A5),D0	         RECORDFILE
00002898 4A80			 TST.L	   D0
0000289A 6606			 BNE.S	   X.10.21(PC)
0000289C 4EB900000000		 JSR	   E.FILE
000028A2 2040	      X.10.21	 MOVEA.L   D0,A0
000028A4 2050			 MOVEA.L   (A0),A0
000028A6 7061			 MOVEQ	   #97,D0			         $61
000028A8 B0280009		 CMP.B	   9(A0),D0			         $9
000028AC 670000A8		 BEQ.L	   L.10.9(PC)
		      *							       LINE 10/26
		      *							       LINE 10/27
000028B0 2D7C000002C0 L.10.8	 MOVE.L	   #704,-4(A6)			         $2C0  $FFFFFFFC
	 FFFC
000028B8 6100D758		 BSR.L	   B.3(PC)			         ERROR = CODE.+$12
		      *							       LINE 10/28
000028BC 202D0000		 MOVE.L	   TTYOUTPUT-32768(A5),D0	         TTYOUTPUT
000028C0 4A80			 TST.L	   D0
000028C2 6606			 BNE.S	   X.10.22(PC)
000028C4 4EB900000000		 JSR	   E.FILE
000028CA 7225	      X.10.22	 MOVEQ	   #37,D1			         $25
000028CC 3F01			 MOVE.W	   D1,-(A7)
000028CE 7204			 MOVEQ	   #4,D1			         $4
000028D0 3F01			 MOVE.W	   D1,-(A7)
000028D2 487AF892		 PEA	   K.103(PC)			         CODE.+$2166
000028D6 2F00			 MOVE.L	   D0,-(A7)
000028D8 4EB900000000		 JSR	   T.WRITE
000028DE 2040			 MOVEA.L   D0,A0
000028E0 2050			 MOVEA.L   (A0),A0
000028E2 7261			 MOVEQ	   #97,D1			         $61
000028E4 1081			 MOVE.B	   D1,(A0)000028E6 2F00			 MOVE.L	   D0,-(A7)
000028E8 4EB900000000		 JSR	   T.PUT
000028EE 7206			 MOVEQ	   #6,D1			         $6
000028F0 3F01			 MOVE.W	   D1,-(A7)
000028F2 7204			 MOVEQ	   #4,D1			         $4
000028F4 3F01			 MOVE.W	   D1,-(A7)
000028F6 487AF894		 PEA	   K.104(PC)			         CODE.+$218C
000028FA 2F00			 MOVE.L	   D0,-(A7)
000028FC 4EB900000000		 JSR	   T.WRITE
00002902 2040			 MOVEA.L   D0,A0
00002904 2050			 MOVEA.L   (A0),A0
00002906 222D805C		 MOVE.L	   STATIC.+92-32768(A5),D1	         RECORDFILE
0000290A 4A81			 TST.L	   D1
0000290C 6606			 BNE.S	   X.10.23(PC)
0000290E 4EB900000000		 JSR	   E.FILE
00002914 2241	      X.10.23	 MOVEA.L   D1,A1
00002916 2251			 MOVEA.L   (A1),A1
00002918 10A90009		 MOVE.B	   9(A1),(A0)			         $9
0000291C 2F00			 MOVE.L	   D0,-(A7)
0000291E 4EB900000000		 JSR	   T.PUT
00002924 2F00			 MOVE.L	   D0,-(A7)
00002926 4EB900000000		 JSR	   T.WRTLN
		      *							       LINE 10/30
0000292C 202D0000		 MOVE.L	   TTYOUTPUT-32768(A5),D0	         TTYOUTPUT
00002930 4A80			 TST.L	   D0
00002932 6606			 BNE.S	   X.10.24(PC)
00002934 4EB900000000		 JSR	   E.FILE
0000293A 7233	      X.10.24	 MOVEQ	   #51,D1			         $33
0000293C 3F01			 MOVE.W	   D1,-(A7)
0000293E 7204			 MOVEQ	   #4,D1			         $4
00002940 3F01			 MOVE.W	   D1,-(A7)
00002942 487AF84E		 PEA	   K.105(PC)			         CODE.+$2192
00002946 2F00			 MOVE.L	   D0,-(A7)
00002948 4EB900000000		 JSR	   T.WRITE
0000294E 2F00			 MOVE.L	   D0,-(A7)
00002950 4EB900000000		 JSR	   T.WRTLN
		      *							       LINE 10/31
		      *							       LINE 11/2
00002956 202D805C     L.10.9	 MOVE.L	   STATIC.+92-32768(A5),D0	         RECORDFILE
0000295A 4A80			 TST.L	   D0
0000295C 6606			 BNE.S	   X.10.25(PC)
0000295E 4EB900000000		 JSR	   E.FILE
00002964 2F00	      X.10.25	 MOVE.L	   D0,-(A7)
00002966 4EB900000000		 JSR	   Y.GET
		      *							       LINE 11/30000296C 202D805C		 MOVE.L	   STATIC.+92-32768(A5),D0	         RECORDFILE
00002970 4A80			 TST.L	   D0
00002972 6606			 BNE.S	   X.10.26(PC)
00002974 4EB900000000		 JSR	   E.FILE
0000297A 2040	      X.10.26	 MOVEA.L   D0,A0
0000297C 2050			 MOVEA.L   (A0),A0
0000297E 2F10			 MOVE.L	   (A0),-(A7)
00002980 2F3AF844		 MOVE.L	   K.106(PC),-(A7)		         CODE.+$21C6
00002984 4EB900000000		 JSR	   F.CMP
0000298A 670000AE		 BEQ.L	   L.10.11(PC)
		      *							       LINE 11/4
		      *							       LINE 11/5
0000298E 2D7C000002C1 L.10.10	 MOVE.L	   #705,-4(A6)			         $2C1  $FFFFFFFC
	 FFFC
00002996 6100D67A		 BSR.L	   B.3(PC)			         ERROR = CODE.+$12
		      *							       LINE 11/6
0000299A 202D0000		 MOVE.L	   TTYOUTPUT-32768(A5),D0	         TTYOUTPUT
0000299E 4A80			 TST.L	   D0
000029A0 6606			 BNE.S	   X.10.27(PC)
000029A2 4EB900000000		 JSR	   E.FILE
000029A8 7225	      X.10.27	 MOVEQ	   #37,D1			         $25
000029AA 3F01			 MOVE.W	   D1,-(A7)
000029AC 7204			 MOVEQ	   #4,D1			         $4
000029AE 3F01			 MOVE.W	   D1,-(A7)
000029B0 487AF818		 PEA	   K.107(PC)			         CODE.+$21CA
000029B4 2F00			 MOVE.L	   D0,-(A7)
000029B6 4EB900000000		 JSR	   T.WRITE
000029BC 7206			 MOVEQ	   #6,D1			         $6
000029BE 2F01			 MOVE.L	   D1,-(A7)
000029C0 7201			 MOVEQ	   #1,D1			         $1
000029C2 3F01			 MOVE.W	   D1,-(A7)
000029C4 487AF82A		 PEA	   K.108(PC)			         CODE.+$21F0
000029C8 2F00			 MOVE.L	   D0,-(A7)
000029CA 4EB900000000		 JSR	   T.WRITE
000029D0 7206			 MOVEQ	   #6,D1			         $6
000029D2 3F01			 MOVE.W	   D1,-(A7)
000029D4 7204			 MOVEQ	   #4,D1			         $4
000029D6 3F01			 MOVE.W	   D1,-(A7)
000029D8 487AF81A		 PEA	   K.109(PC)			         CODE.+$21F4
000029DC 2F00			 MOVE.L	   D0,-(A7)
000029DE 4EB900000000		 JSR	   T.WRITE
000029E4 222D805C		 MOVE.L	   STATIC.+92-32768(A5),D1	         RECORDFILE
000029E8 4A81			 TST.L	   D1
000029EA 6606			 BNE.S	   X.10.28(PC)
000029EC 4EB900000000		 JSR	   E.FILE000029F2 2041	      X.10.28	 MOVEA.L   D1,A0
000029F4 2050			 MOVEA.L   (A0),A0
000029F6 7206			 MOVEQ	   #6,D1			         $6
000029F8 2F01			 MOVE.L	   D1,-(A7)
000029FA 7201			 MOVEQ	   #1,D1			         $1
000029FC 3F01			 MOVE.W	   D1,-(A7)
000029FE 4850			 PEA	   (A0)
00002A00 2F00			 MOVE.L	   D0,-(A7)
00002A02 4EB900000000		 JSR	   T.WRITE
00002A08 2F00			 MOVE.L	   D0,-(A7)
00002A0A 4EB900000000		 JSR	   T.WRTLN
		      *							       LINE 11/8
00002A10 202D0000		 MOVE.L	   TTYOUTPUT-32768(A5),D0	         TTYOUTPUT
00002A14 4A80			 TST.L	   D0
00002A16 6606			 BNE.S	   X.10.29(PC)
00002A18 4EB900000000		 JSR	   E.FILE
00002A1E 7233	      X.10.29	 MOVEQ	   #51,D1			         $33
00002A20 3F01			 MOVE.W	   D1,-(A7)
00002A22 7204			 MOVEQ	   #4,D1			         $4
00002A24 3F01			 MOVE.W	   D1,-(A7)
00002A26 487AF7D2		 PEA	   K.110(PC)			         CODE.+$21FA
00002A2A 2F00			 MOVE.L	   D0,-(A7)
00002A2C 4EB900000000		 JSR	   T.WRITE
00002A32 2F00			 MOVE.L	   D0,-(A7)
00002A34 4EB900000000		 JSR	   T.WRTLN
		      *							       LINE 11/9
		      *							       LINE 11/10
00002A3A 202D805C     L.10.11	 MOVE.L	   STATIC.+92-32768(A5),D0	         RECORDFILE
00002A3E 4A80			 TST.L	   D0
00002A40 6606			 BNE.S	   X.10.30(PC)
00002A42 4EB900000000		 JSR	   E.FILE
00002A48 2040	      X.10.30	 MOVEA.L   D0,A0
00002A4A 2050			 MOVEA.L   (A0),A0
00002A4C 0CA8000F1206		 CMPI.L	   #987654,4(A0)		         $F1206  $4
	 0004
00002A54 670000A4		 BEQ.L	   L.10.13(PC)
		      *							       LINE 11/11
		      *							       LINE 11/12
00002A58 2D7C000002C2 L.10.12	 MOVE.L	   #706,-4(A6)			         $2C2  $FFFFFFFC
	 FFFC
00002A60 6100D5B0		 BSR.L	   B.3(PC)			         ERROR = CODE.+$12
		      *							       LINE 11/13
00002A64 202D0000		 MOVE.L	   TTYOUTPUT-32768(A5),D0	         TTYOUTPUT
00002A68 4A80			 TST.L	   D0
00002A6A 6606			 BNE.S	   X.10.31(PC)00002A6C 4EB900000000		 JSR	   E.FILE
00002A72 7225	      X.10.31	 MOVEQ	   #37,D1			         $25
00002A74 3F01			 MOVE.W	   D1,-(A7)
00002A76 7204			 MOVEQ	   #4,D1			         $4
00002A78 3F01			 MOVE.W	   D1,-(A7)
00002A7A 487AF7B2		 PEA	   K.111(PC)			         CODE.+$222E
00002A7E 2F00			 MOVE.L	   D0,-(A7)
00002A80 4EB900000000		 JSR	   T.WRITE
00002A86 4267			 CLR.W	   -(A7)
00002A88 487AF7CA		 PEA	   K.112(PC)			         CODE.+$2254
00002A8C 2F00			 MOVE.L	   D0,-(A7)
00002A8E 4EB900000000		 JSR	   T.WRITE
00002A94 7206			 MOVEQ	   #6,D1			         $6
00002A96 3F01			 MOVE.W	   D1,-(A7)
00002A98 7204			 MOVEQ	   #4,D1			         $4
00002A9A 3F01			 MOVE.W	   D1,-(A7)
00002A9C 487AF7BA		 PEA	   K.113(PC)			         CODE.+$2258
00002AA0 2F00			 MOVE.L	   D0,-(A7)
00002AA2 4EB900000000		 JSR	   T.WRITE
00002AA8 222D805C		 MOVE.L	   STATIC.+92-32768(A5),D1	         RECORDFILE
00002AAC 4A81			 TST.L	   D1
00002AAE 6606			 BNE.S	   X.10.32(PC)
00002AB0 4EB900000000		 JSR	   E.FILE
00002AB6 2041	      X.10.32	 MOVEA.L   D1,A0
00002AB8 2050			 MOVEA.L   (A0),A0
00002ABA 4267			 CLR.W	   -(A7)
00002ABC 48680004		 PEA	   4(A0)			         $4
00002AC0 2F00			 MOVE.L	   D0,-(A7)
00002AC2 4EB900000000		 JSR	   T.WRITE
00002AC8 2F00			 MOVE.L	   D0,-(A7)
00002ACA 4EB900000000		 JSR	   T.WRTLN
		      *							       LINE 11/15
00002AD0 202D0000		 MOVE.L	   TTYOUTPUT-32768(A5),D0	         TTYOUTPUT
00002AD4 4A80			 TST.L	   D0
00002AD6 6606			 BNE.S	   X.10.33(PC)
00002AD8 4EB900000000		 JSR	   E.FILE
00002ADE 7233	      X.10.33	 MOVEQ	   #51,D1			         $33
00002AE0 3F01			 MOVE.W	   D1,-(A7)
00002AE2 7204			 MOVEQ	   #4,D1			         $4
00002AE4 3F01			 MOVE.W	   D1,-(A7)
00002AE6 487AF776		 PEA	   K.114(PC)			         CODE.+$225E
00002AEA 2F00			 MOVE.L	   D0,-(A7)
00002AEC 4EB900000000		 JSR	   T.WRITE
00002AF2 2F00			 MOVE.L	   D0,-(A7)
00002AF4 4EB900000000		 JSR	   T.WRTLN		      *							       LINE 11/16
		      *							       LINE 11/17
00002AFA 202D805C     L.10.13	 MOVE.L	   STATIC.+92-32768(A5),D0	         RECORDFILE
00002AFE 4A80			 TST.L	   D0
00002B00 6606			 BNE.S	   X.10.34(PC)
00002B02 4EB900000000		 JSR	   E.FILE
00002B08 2040	      X.10.34	 MOVEA.L   D0,A0
00002B0A 2050			 MOVEA.L   (A0),A0
00002B0C 4A280008		 TST.B	   8(A0)			         $8
00002B10 670000A8		 BEQ.L	   L.10.15(PC)
		      *							       LINE 11/18
		      *							       LINE 11/19
00002B14 2D7C000002C3 L.10.14	 MOVE.L	   #707,-4(A6)			         $2C3  $FFFFFFFC
	 FFFC
00002B1C 6100D4F4		 BSR.L	   B.3(PC)			         ERROR = CODE.+$12
		      *							       LINE 11/20
00002B20 202D0000		 MOVE.L	   TTYOUTPUT-32768(A5),D0	         TTYOUTPUT
00002B24 4A80			 TST.L	   D0
00002B26 6606			 BNE.S	   X.10.35(PC)
00002B28 4EB900000000		 JSR	   E.FILE
00002B2E 7225	      X.10.35	 MOVEQ	   #37,D1			         $25
00002B30 3F01			 MOVE.W	   D1,-(A7)
00002B32 7204			 MOVEQ	   #4,D1			         $4
00002B34 3F01			 MOVE.W	   D1,-(A7)
00002B36 487AF75A		 PEA	   K.115(PC)			         CODE.+$2292
00002B3A 2F00			 MOVE.L	   D0,-(A7)
00002B3C 4EB900000000		 JSR	   T.WRITE
00002B42 7205			 MOVEQ	   #5,D1			         $5
00002B44 3F01			 MOVE.W	   D1,-(A7)
00002B46 487AF770		 PEA	   K.116(PC)			         CODE.+$22B8
00002B4A 2F00			 MOVE.L	   D0,-(A7)
00002B4C 4EB900000000		 JSR	   T.WRITE
00002B52 7206			 MOVEQ	   #6,D1			         $6
00002B54 3F01			 MOVE.W	   D1,-(A7)
00002B56 7204			 MOVEQ	   #4,D1			         $4
00002B58 3F01			 MOVE.W	   D1,-(A7)
00002B5A 487AF75E		 PEA	   K.117(PC)			         CODE.+$22BA
00002B5E 2F00			 MOVE.L	   D0,-(A7)
00002B60 4EB900000000		 JSR	   T.WRITE
00002B66 222D805C		 MOVE.L	   STATIC.+92-32768(A5),D1	         RECORDFILE
00002B6A 4A81			 TST.L	   D1
00002B6C 6606			 BNE.S	   X.10.36(PC)
00002B6E 4EB900000000		 JSR	   E.FILE
00002B74 2041	      X.10.36	 MOVEA.L   D1,A0
00002B76 2050			 MOVEA.L   (A0),A000002B78 7205			 MOVEQ	   #5,D1			         $5
00002B7A 3F01			 MOVE.W	   D1,-(A7)
00002B7C 48680008		 PEA	   8(A0)			         $8
00002B80 2F00			 MOVE.L	   D0,-(A7)
00002B82 4EB900000000		 JSR	   T.WRITE
00002B88 2F00			 MOVE.L	   D0,-(A7)
00002B8A 4EB900000000		 JSR	   T.WRTLN
		      *							       LINE 11/22
00002B90 202D0000		 MOVE.L	   TTYOUTPUT-32768(A5),D0	         TTYOUTPUT
00002B94 4A80			 TST.L	   D0
00002B96 6606			 BNE.S	   X.10.37(PC)
00002B98 4EB900000000		 JSR	   E.FILE
00002B9E 7233	      X.10.37	 MOVEQ	   #51,D1			         $33
00002BA0 3F01			 MOVE.W	   D1,-(A7)
00002BA2 7204			 MOVEQ	   #4,D1			         $4
00002BA4 3F01			 MOVE.W	   D1,-(A7)
00002BA6 487AF718		 PEA	   K.118(PC)			         CODE.+$22C0
00002BAA 2F00			 MOVE.L	   D0,-(A7)
00002BAC 4EB900000000		 JSR	   T.WRITE
00002BB2 2F00			 MOVE.L	   D0,-(A7)
00002BB4 4EB900000000		 JSR	   T.WRTLN
		      *							       LINE 11/23
		      *							       LINE 11/24
00002BBA 202D805C     L.10.15	 MOVE.L	   STATIC.+92-32768(A5),D0	         RECORDFILE
00002BBE 4A80			 TST.L	   D0
00002BC0 6606			 BNE.S	   X.10.38(PC)
00002BC2 4EB900000000		 JSR	   E.FILE
00002BC8 2040	      X.10.38	 MOVEA.L   D0,A0
00002BCA 2050			 MOVEA.L   (A0),A0
00002BCC 7062			 MOVEQ	   #98,D0			         $62
00002BCE B0280009		 CMP.B	   9(A0),D0			         $9
00002BD2 670000A8		 BEQ.L	   L.10.17(PC)
		      *							       LINE 11/25
		      *							       LINE 11/26
00002BD6 2D7C000002C4 L.10.16	 MOVE.L	   #708,-4(A6)			         $2C4  $FFFFFFFC
	 FFFC
00002BDE 6100D432		 BSR.L	   B.3(PC)			         ERROR = CODE.+$12
		      *							       LINE 11/27
00002BE2 202D0000		 MOVE.L	   TTYOUTPUT-32768(A5),D0	         TTYOUTPUT
00002BE6 4A80			 TST.L	   D0
00002BE8 6606			 BNE.S	   X.10.39(PC)
00002BEA 4EB900000000		 JSR	   E.FILE
00002BF0 7225	      X.10.39	 MOVEQ	   #37,D1			         $25
00002BF2 3F01			 MOVE.W	   D1,-(A7)
00002BF4 7204			 MOVEQ	   #4,D1			         $400002BF6 3F01			 MOVE.W	   D1,-(A7)
00002BF8 487AF6FA		 PEA	   K.119(PC)			         CODE.+$22F4
00002BFC 2F00			 MOVE.L	   D0,-(A7)
00002BFE 4EB900000000		 JSR	   T.WRITE
00002C04 2040			 MOVEA.L   D0,A0
00002C06 2050			 MOVEA.L   (A0),A0
00002C08 7262			 MOVEQ	   #98,D1			         $62
00002C0A 1081			 MOVE.B	   D1,(A0)
00002C0C 2F00			 MOVE.L	   D0,-(A7)
00002C0E 4EB900000000		 JSR	   T.PUT
00002C14 7206			 MOVEQ	   #6,D1			         $6
00002C16 3F01			 MOVE.W	   D1,-(A7)
00002C18 7204			 MOVEQ	   #4,D1			         $4
00002C1A 3F01			 MOVE.W	   D1,-(A7)
00002C1C 487AF6FC		 PEA	   K.120(PC)			         CODE.+$231A
00002C20 2F00			 MOVE.L	   D0,-(A7)
00002C22 4EB900000000		 JSR	   T.WRITE
00002C28 2040			 MOVEA.L   D0,A0
00002C2A 2050			 MOVEA.L   (A0),A0
00002C2C 222D805C		 MOVE.L	   STATIC.+92-32768(A5),D1	         RECORDFILE
00002C30 4A81			 TST.L	   D1
00002C32 6606			 BNE.S	   X.10.40(PC)
00002C34 4EB900000000		 JSR	   E.FILE
00002C3A 2241	      X.10.40	 MOVEA.L   D1,A1
00002C3C 2251			 MOVEA.L   (A1),A1
00002C3E 10A90009		 MOVE.B	   9(A1),(A0)			         $9
00002C42 2F00			 MOVE.L	   D0,-(A7)
00002C44 4EB900000000		 JSR	   T.PUT
00002C4A 2F00			 MOVE.L	   D0,-(A7)
00002C4C 4EB900000000		 JSR	   T.WRTLN
		      *							       LINE 11/29
00002C52 202D0000		 MOVE.L	   TTYOUTPUT-32768(A5),D0	         TTYOUTPUT
00002C56 4A80			 TST.L	   D0
00002C58 6606			 BNE.S	   X.10.41(PC)
00002C5A 4EB900000000		 JSR	   E.FILE
00002C60 7233	      X.10.41	 MOVEQ	   #51,D1			         $33
00002C62 3F01			 MOVE.W	   D1,-(A7)
00002C64 7204			 MOVEQ	   #4,D1			         $4
00002C66 3F01			 MOVE.W	   D1,-(A7)
00002C68 487AF6B6		 PEA	   K.121(PC)			         CODE.+$2320
00002C6C 2F00			 MOVE.L	   D0,-(A7)
00002C6E 4EB900000000		 JSR	   T.WRITE
00002C74 2F00			 MOVE.L	   D0,-(A7)
00002C76 4EB900000000		 JSR	   T.WRTLN
		      *							       LINE 11/30		      *							       LINE 12/2
00002C7C 202D805C     L.10.17	 MOVE.L	   STATIC.+92-32768(A5),D0	         RECORDFILE
00002C80 4A80			 TST.L	   D0
00002C82 6606			 BNE.S	   X.10.42(PC)
00002C84 4EB900000000		 JSR	   E.FILE
00002C8A 2040	      X.10.42	 MOVEA.L   D0,A0
00002C8C 2050			 MOVEA.L   (A0),A0
00002C8E 43ED8060		 LEA	   STATIC.+96-32768(A5),A1	         RECORDVARIABLE
00002C92 22D8			 MOVE.L	   (A0)+,(A1)+
00002C94 22D8			 MOVE.L	   (A0)+,(A1)+
00002C96 32D8			 MOVE.W	   (A0)+,(A1)+
00002C98 2F00			 MOVE.L	   D0,-(A7)
00002C9A 4EB900000000		 JSR	   Y.GET
		      *							       LINE 12/3
00002CA0 202D805C		 MOVE.L	   STATIC.+92-32768(A5),D0	         RECORDFILE
00002CA4 4A80			 TST.L	   D0
00002CA6 6606			 BNE.S	   X.10.43(PC)
00002CA8 4EB900000000		 JSR	   E.FILE
00002CAE 2040	      X.10.43	 MOVEA.L   D0,A0
00002CB0 2050			 MOVEA.L   (A0),A0
00002CB2 43ED8060		 LEA	   STATIC.+96-32768(A5),A1	         RECORDVARIABLE
00002CB6 22D8			 MOVE.L	   (A0)+,(A1)+
00002CB8 22D8			 MOVE.L	   (A0)+,(A1)+
00002CBA 32D8			 MOVE.W	   (A0)+,(A1)+
00002CBC 2F00			 MOVE.L	   D0,-(A7)
00002CBE 4EB900000000		 JSR	   Y.GET
		      *							       LINE 12/4
00002CC4 2F2D8060		 MOVE.L	   STATIC.+96-32768(A5),-(A7)	         RECORDVARIABLE
00002CC8 2F3AF68A		 MOVE.L	   K.122(PC),-(A7)		         CODE.+$2354
00002CCC 4EB900000000		 JSR	   F.CMP
00002CD2 6700009E		 BEQ.L	   L.10.19(PC)
		      *							       LINE 12/5
		      *							       LINE 12/6
00002CD6 2D7C000002C5 L.10.18	 MOVE.L	   #709,-4(A6)			         $2C5  $FFFFFFFC
	 FFFC
00002CDE 6100D332		 BSR.L	   B.3(PC)			         ERROR = CODE.+$12
		      *							       LINE 12/7
00002CE2 202D0000		 MOVE.L	   TTYOUTPUT-32768(A5),D0	         TTYOUTPUT
00002CE6 4A80			 TST.L	   D0
00002CE8 6606			 BNE.S	   X.10.44(PC)
00002CEA 4EB900000000		 JSR	   E.FILE
00002CF0 7225	      X.10.44	 MOVEQ	   #37,D1			         $25
00002CF2 3F01			 MOVE.W	   D1,-(A7)
00002CF4 7204			 MOVEQ	   #4,D1			         $4
00002CF6 3F01			 MOVE.W	   D1,-(A7)00002CF8 487AF65E		 PEA	   K.123(PC)			         CODE.+$2358
00002CFC 2F00			 MOVE.L	   D0,-(A7)
00002CFE 4EB900000000		 JSR	   T.WRITE
00002D04 7206			 MOVEQ	   #6,D1			         $6
00002D06 2F01			 MOVE.L	   D1,-(A7)
00002D08 7201			 MOVEQ	   #1,D1			         $1
00002D0A 3F01			 MOVE.W	   D1,-(A7)
00002D0C 487AF670		 PEA	   K.124(PC)			         CODE.+$237E
00002D10 2F00			 MOVE.L	   D0,-(A7)
00002D12 4EB900000000		 JSR	   T.WRITE
00002D18 7206			 MOVEQ	   #6,D1			         $6
00002D1A 3F01			 MOVE.W	   D1,-(A7)
00002D1C 7204			 MOVEQ	   #4,D1			         $4
00002D1E 3F01			 MOVE.W	   D1,-(A7)
00002D20 487AF660		 PEA	   K.125(PC)			         CODE.+$2382
00002D24 2F00			 MOVE.L	   D0,-(A7)
00002D26 4EB900000000		 JSR	   T.WRITE
00002D2C 7206			 MOVEQ	   #6,D1			         $6
00002D2E 2F01			 MOVE.L	   D1,-(A7)
00002D30 7201			 MOVEQ	   #1,D1			         $1
00002D32 3F01			 MOVE.W	   D1,-(A7)
00002D34 486D8060		 PEA	   STATIC.+96-32768(A5)		         RECORDVARIABLE
00002D38 2F00			 MOVE.L	   D0,-(A7)
00002D3A 4EB900000000		 JSR	   T.WRITE
00002D40 2F00			 MOVE.L	   D0,-(A7)
00002D42 4EB900000000		 JSR	   T.WRTLN
		      *							       LINE 12/9
00002D48 202D0000		 MOVE.L	   TTYOUTPUT-32768(A5),D0	         TTYOUTPUT
00002D4C 4A80			 TST.L	   D0
00002D4E 6606			 BNE.S	   X.10.45(PC)
00002D50 4EB900000000		 JSR	   E.FILE
00002D56 7234	      X.10.45	 MOVEQ	   #52,D1			         $34
00002D58 3F01			 MOVE.W	   D1,-(A7)
00002D5A 7204			 MOVEQ	   #4,D1			         $4
00002D5C 3F01			 MOVE.W	   D1,-(A7)
00002D5E 487AF628		 PEA	   K.126(PC)			         CODE.+$2388
00002D62 2F00			 MOVE.L	   D0,-(A7)
00002D64 4EB900000000		 JSR	   T.WRITE
00002D6A 2F00			 MOVE.L	   D0,-(A7)
00002D6C 4EB900000000		 JSR	   T.WRTLN
		      *							       LINE 12/10
		      *							       LINE 12/11
00002D72 0CAD0000DDD5 L.10.19	 CMPI.L	   #56789,STATIC.+96-32764(A5)	         $DDD5  RECORDVARIABLE
	 8064
00002D7A 67000092		 BEQ.L	   L.10.21(PC)		      *							       LINE 12/12
		      *							       LINE 12/13
00002D7E 2D7C000002C6 L.10.20	 MOVE.L	   #710,-4(A6)			         $2C6  $FFFFFFFC
	 FFFC
00002D86 6100D28A		 BSR.L	   B.3(PC)			         ERROR = CODE.+$12
		      *							       LINE 12/14
00002D8A 202D0000		 MOVE.L	   TTYOUTPUT-32768(A5),D0	         TTYOUTPUT
00002D8E 4A80			 TST.L	   D0
00002D90 6606			 BNE.S	   X.10.46(PC)
00002D92 4EB900000000		 JSR	   E.FILE
00002D98 7225	      X.10.46	 MOVEQ	   #37,D1			         $25
00002D9A 3F01			 MOVE.W	   D1,-(A7)
00002D9C 7204			 MOVEQ	   #4,D1			         $4
00002D9E 3F01			 MOVE.W	   D1,-(A7)
00002DA0 487AF61A		 PEA	   K.127(PC)			         CODE.+$23BC
00002DA4 2F00			 MOVE.L	   D0,-(A7)
00002DA6 4EB900000000		 JSR	   T.WRITE
00002DAC 4267			 CLR.W	   -(A7)
00002DAE 487AF632		 PEA	   K.128(PC)			         CODE.+$23E2
00002DB2 2F00			 MOVE.L	   D0,-(A7)
00002DB4 4EB900000000		 JSR	   T.WRITE
00002DBA 7206			 MOVEQ	   #6,D1			         $6
00002DBC 3F01			 MOVE.W	   D1,-(A7)
00002DBE 7204			 MOVEQ	   #4,D1			         $4
00002DC0 3F01			 MOVE.W	   D1,-(A7)
00002DC2 487AF622		 PEA	   K.129(PC)			         CODE.+$23E6
00002DC6 2F00			 MOVE.L	   D0,-(A7)
00002DC8 4EB900000000		 JSR	   T.WRITE
00002DCE 4267			 CLR.W	   -(A7)
00002DD0 486D8064		 PEA	   STATIC.+96-32764(A5)		         RECORDVARIABLE
00002DD4 2F00			 MOVE.L	   D0,-(A7)
00002DD6 4EB900000000		 JSR	   T.WRITE
00002DDC 2F00			 MOVE.L	   D0,-(A7)
00002DDE 4EB900000000		 JSR	   T.WRTLN
		      *							       LINE 12/16
00002DE4 202D0000		 MOVE.L	   TTYOUTPUT-32768(A5),D0	         TTYOUTPUT
00002DE8 4A80			 TST.L	   D0
00002DEA 6606			 BNE.S	   X.10.47(PC)
00002DEC 4EB900000000		 JSR	   E.FILE
00002DF2 7234	      X.10.47	 MOVEQ	   #52,D1			         $34
00002DF4 3F01			 MOVE.W	   D1,-(A7)
00002DF6 7204			 MOVEQ	   #4,D1			         $4
00002DF8 3F01			 MOVE.W	   D1,-(A7)
00002DFA 487AF5F0		 PEA	   K.130(PC)			         CODE.+$23EC
00002DFE 2F00			 MOVE.L	   D0,-(A7)00002E00 4EB900000000		 JSR	   T.WRITE
00002E06 2F00			 MOVE.L	   D0,-(A7)
00002E08 4EB900000000		 JSR	   T.WRTLN
		      *							       LINE 12/17
		      *							       LINE 12/18
00002E0E 7001	      L.10.21	 MOVEQ	   #1,D0			         $1
00002E10 B02D8068		 CMP.B	   STATIC.+96-32760(A5),D0	         RECORDVARIABLE
00002E14 67000096		 BEQ.L	   L.10.23(PC)
		      *							       LINE 12/19
		      *							       LINE 12/20
00002E18 2D7C000002C7 L.10.22	 MOVE.L	   #711,-4(A6)			         $2C7  $FFFFFFFC
	 FFFC
00002E20 6100D1F0		 BSR.L	   B.3(PC)			         ERROR = CODE.+$12
		      *							       LINE 12/21
00002E24 202D0000		 MOVE.L	   TTYOUTPUT-32768(A5),D0	         TTYOUTPUT
00002E28 4A80			 TST.L	   D0
00002E2A 6606			 BNE.S	   X.10.48(PC)
00002E2C 4EB900000000		 JSR	   E.FILE
00002E32 7225	      X.10.48	 MOVEQ	   #37,D1			         $25
00002E34 3F01			 MOVE.W	   D1,-(A7)
00002E36 7204			 MOVEQ	   #4,D1			         $4
00002E38 3F01			 MOVE.W	   D1,-(A7)
00002E3A 487AF5E4		 PEA	   K.131(PC)			         CODE.+$2420
00002E3E 2F00			 MOVE.L	   D0,-(A7)
00002E40 4EB900000000		 JSR	   T.WRITE
00002E46 7205			 MOVEQ	   #5,D1			         $5
00002E48 3F01			 MOVE.W	   D1,-(A7)
00002E4A 487AF5FA		 PEA	   K.132(PC)			         CODE.+$2446
00002E4E 2F00			 MOVE.L	   D0,-(A7)
00002E50 4EB900000000		 JSR	   T.WRITE
00002E56 7206			 MOVEQ	   #6,D1			         $6
00002E58 3F01			 MOVE.W	   D1,-(A7)
00002E5A 7204			 MOVEQ	   #4,D1			         $4
00002E5C 3F01			 MOVE.W	   D1,-(A7)
00002E5E 487AF5E8		 PEA	   K.133(PC)			         CODE.+$2448
00002E62 2F00			 MOVE.L	   D0,-(A7)
00002E64 4EB900000000		 JSR	   T.WRITE
00002E6A 7205			 MOVEQ	   #5,D1			         $5
00002E6C 3F01			 MOVE.W	   D1,-(A7)
00002E6E 486D8068		 PEA	   STATIC.+96-32760(A5)		         RECORDVARIABLE
00002E72 2F00			 MOVE.L	   D0,-(A7)
00002E74 4EB900000000		 JSR	   T.WRITE
00002E7A 2F00			 MOVE.L	   D0,-(A7)
00002E7C 4EB900000000		 JSR	   T.WRTLN
		      *							       LINE 12/2300002E82 202D0000		 MOVE.L	   TTYOUTPUT-32768(A5),D0	         TTYOUTPUT
00002E86 4A80			 TST.L	   D0
00002E88 6606			 BNE.S	   X.10.49(PC)
00002E8A 4EB900000000		 JSR	   E.FILE
00002E90 7234	      X.10.49	 MOVEQ	   #52,D1			         $34
00002E92 3F01			 MOVE.W	   D1,-(A7)
00002E94 7204			 MOVEQ	   #4,D1			         $4
00002E96 3F01			 MOVE.W	   D1,-(A7)
00002E98 487AF5B4		 PEA	   K.134(PC)			         CODE.+$244E
00002E9C 2F00			 MOVE.L	   D0,-(A7)
00002E9E 4EB900000000		 JSR	   T.WRITE
00002EA4 2F00			 MOVE.L	   D0,-(A7)
00002EA6 4EB900000000		 JSR	   T.WRTLN
		      *							       LINE 12/24
		      *							       LINE 12/25
00002EAC 7063	      L.10.23	 MOVEQ	   #99,D0			         $63
00002EAE B02D8069		 CMP.B	   STATIC.+96-32759(A5),D0	         RECORDVARIABLE
00002EB2 67000096		 BEQ.L	   L.10.25(PC)
		      *							       LINE 12/26
		      *							       LINE 12/27
00002EB6 2D7C000002C8 L.10.24	 MOVE.L	   #712,-4(A6)			         $2C8  $FFFFFFFC
	 FFFC
00002EBE 6100D152		 BSR.L	   B.3(PC)			         ERROR = CODE.+$12
		      *							       LINE 12/28
00002EC2 202D0000		 MOVE.L	   TTYOUTPUT-32768(A5),D0	         TTYOUTPUT
00002EC6 4A80			 TST.L	   D0
00002EC8 6606			 BNE.S	   X.10.50(PC)
00002ECA 4EB900000000		 JSR	   E.FILE
00002ED0 7225	      X.10.50	 MOVEQ	   #37,D1			         $25
00002ED2 3F01			 MOVE.W	   D1,-(A7)
00002ED4 7204			 MOVEQ	   #4,D1			         $4
00002ED6 3F01			 MOVE.W	   D1,-(A7)
00002ED8 487AF5A8		 PEA	   K.135(PC)			         CODE.+$2482
00002EDC 2F00			 MOVE.L	   D0,-(A7)
00002EDE 4EB900000000		 JSR	   T.WRITE
00002EE4 2040			 MOVEA.L   D0,A0
00002EE6 2050			 MOVEA.L   (A0),A0
00002EE8 7263			 MOVEQ	   #99,D1			         $63
00002EEA 1081			 MOVE.B	   D1,(A0)
00002EEC 2F00			 MOVE.L	   D0,-(A7)
00002EEE 4EB900000000		 JSR	   T.PUT
00002EF4 7206			 MOVEQ	   #6,D1			         $6
00002EF6 3F01			 MOVE.W	   D1,-(A7)
00002EF8 7204			 MOVEQ	   #4,D1			         $4
00002EFA 3F01			 MOVE.W	   D1,-(A7)00002EFC 487AF5AA		 PEA	   K.136(PC)			         CODE.+$24A8
00002F00 2F00			 MOVE.L	   D0,-(A7)
00002F02 4EB900000000		 JSR	   T.WRITE
00002F08 2040			 MOVEA.L   D0,A0
00002F0A 2050			 MOVEA.L   (A0),A0
00002F0C 10AD8069		 MOVE.B	   STATIC.+96-32759(A5),(A0)	         RECORDVARIABLE
00002F10 2F00			 MOVE.L	   D0,-(A7)
00002F12 4EB900000000		 JSR	   T.PUT
00002F18 2F00			 MOVE.L	   D0,-(A7)
00002F1A 4EB900000000		 JSR	   T.WRTLN
		      *							       LINE 12/30
00002F20 202D0000		 MOVE.L	   TTYOUTPUT-32768(A5),D0	         TTYOUTPUT
00002F24 4A80			 TST.L	   D0
00002F26 6606			 BNE.S	   X.10.51(PC)
00002F28 4EB900000000		 JSR	   E.FILE
00002F2E 7234	      X.10.51	 MOVEQ	   #52,D1			         $34
00002F30 3F01			 MOVE.W	   D1,-(A7)
00002F32 7204			 MOVEQ	   #4,D1			         $4
00002F34 3F01			 MOVE.W	   D1,-(A7)
00002F36 487AF576		 PEA	   K.137(PC)			         CODE.+$24AE
00002F3A 2F00			 MOVE.L	   D0,-(A7)
00002F3C 4EB900000000		 JSR	   T.WRITE
00002F42 2F00			 MOVE.L	   D0,-(A7)
00002F44 4EB900000000		 JSR	   T.WRTLN
		      *							       LINE 12/31
		      *							       LINE 12/32
00002F4A 202D805C     L.10.25	 MOVE.L	   STATIC.+92-32768(A5),D0	         RECORDFILE
00002F4E 4A80			 TST.L	   D0
00002F50 6606			 BNE.S	   X.10.52(PC)
00002F52 4EB900000000		 JSR	   E.FILE
00002F58 2F00	      X.10.52	 MOVE.L	   D0,-(A7)
00002F5A 4EB900000000		 JSR	   I.EOF
00002F60 4A1F			 TST.B	   (A7)+
00002F62 6636			 BNE.S	   L.10.27(PC)
		      *							       LINE 12/33
		      *							       LINE 12/34
00002F64 2D7C000002C9 L.10.26	 MOVE.L	   #713,-4(A6)			         $2C9  $FFFFFFFC
	 FFFC
00002F6C 6100D0A4		 BSR.L	   B.3(PC)			         ERROR = CODE.+$12
		      *							       LINE 12/35
00002F70 202D0000		 MOVE.L	   TTYOUTPUT-32768(A5),D0	         TTYOUTPUT
00002F74 4A80			 TST.L	   D0
00002F76 6606			 BNE.S	   X.10.53(PC)
00002F78 4EB900000000		 JSR	   E.FILE
00002F7E 7225	      X.10.53	 MOVEQ	   #37,D1			         $2500002F80 3F01			 MOVE.W	   D1,-(A7)
00002F82 7204			 MOVEQ	   #4,D1			         $4
00002F84 3F01			 MOVE.W	   D1,-(A7)
00002F86 487AF55A		 PEA	   K.138(PC)			         CODE.+$24E2
00002F8A 2F00			 MOVE.L	   D0,-(A7)
00002F8C 4EB900000000		 JSR	   T.WRITE
00002F92 2F00			 MOVE.L	   D0,-(A7)
00002F94 4EB900000000		 JSR	   T.WRTLN
		      *							       LINE 12/36
		      *							       LINE 12/37
00002F9A 202D805C     L.10.27	 MOVE.L	   STATIC.+92-32768(A5),D0	         RECORDFILE
00002F9E 4A80			 TST.L	   D0
00002FA0 6606			 BNE.S	   X.10.54(PC)
00002FA2 4EB900000000		 JSR	   E.FILE
00002FA8 2F00	      X.10.54	 MOVE.L	   D0,-(A7)
00002FAA 4EB900000000		 JSR	   I.CLOSE
		      *							       LINE 12/38
00002FB0 4E75			 RTS	   
		      *
		      *		 Constant area for subroutine TESTRANDOMACCESS
		      *
00002FB2 46696C652061 K.139	 DC.B	   'File after 'rewrite'  has extent '
00002FD3 00000001		 DS.B	   1
00002FD4 46696C652061 K.140	 DC.B	   'File after 'rewrite' does not have 'eof'.'
00002FFD 00000001		 DS.B	   1
00002FFE 46696C652061 K.141	 DC.B	   'File after 'rewrite' has cursor '
0000301E 46696C652061 K.142	 DC.B	   'File at end of file does not have 'eof'.'
00003046 46696C65206F K.143	 DC.B	   'File on which there have been 100 'write's has extent '
0000307C 46696C652077 K.144	 DC.B	   'File with 100 elements has extent '
0000309E 46696C652077 K.145	 DC.B	   'File with 100 elements has 'eof' after 'update'.'
000030CE 46696C652061 K.146	 DC.B	   'File after 'update' has cursor '
000030ED 00000001		 DS.B	   1
000030EE 5365656B206F K.147	 DC.B	   'Seek on element'
000030FD 00000001		 DS.B	   1
000030FE 637572736F72 K.148	 DC.B	   'cursor'
00003104 76616C7565   K.149	 DC.B	   'value'
00003109 00000001		 DS.B	   1
0000310A 7FFF	      K.150	 DC.W	   %0111111111111111
0000310C FFFF			 DC.W	   %1111111111111111
0000310E FFFF			 DC.W	   %1111111111111111
00003110 FFFF			 DC.W	   %1111111111111111
00003112 FFFF			 DC.W	   %1111111111111111
00003114 FFFF			 DC.W	   %1111111111111111
00003116 F800			 DC.W	   %1111100000000000
00003118 46696C65206F K.151	 DC.B	   'File of 100 items does not have eof after seek item 101'0000314F 00000001		 DS.B	   1
00003150 417474656D70 K.152	 DC.B	   'Attempt to read after end of file does not produce io_eof.
0000318A 437572736F72 K.153	 DC.B	   'Cursor ='
00003192 2C2065787465 K.154	 DC.B	   ', extent ='
0000319C 494F20737461 K.155	 DC.B	   'IO status was'
000031A9 00000001		 DS.B	   1
000031AA 46696C652061 K.156	 DC.B	   'File after 'seek (integerfile, 110); put (integerfile)' '
000031E2 686173206578 K.157	 DC.B	   'has extent:'
000031ED 00000001		 DS.B	   1
000031EE 52616E646F6D K.158	 DC.B	   'Random writes in middle of file destroyed value of '
00003221 00000001		 DS.B	   1
00003222 707265636564 K.159	 DC.B	   'preceding data entry.'
00003237 00000001		 DS.B	   1
00003238 4974656D2034 K.160	 DC.B	   'Item 49 now has value'
0000324D 00000001		 DS.B	   1
0000324E 52616E646F6D K.161	 DC.B	   'Random writes in middle of file destroyed value of '
00003281 00000001		 DS.B	   1
00003282 666F6C6C6F77 K.162	 DC.B	   'following data entry.'
00003297 00000001		 DS.B	   1
00003298 4974656D2035 K.163	 DC.B	   'Item 56 now has value'
000032AD 00000001		 DS.B	   1
000032AE 46696C65206F K.164	 DC.B	   'File of 110 elements on which "rewrite" with "preserve"'
000032E5 00000001		 DS.B	   1
000032E6 206861732062 K.165	 DC.B	   ' has been done has extent '
00003300 2C2063757273 K.166	 DC.B	   ', cursor'
00003308 46696C652077 K.167	 DC.B	   'File which has been 'empty'ed has extent:'
00003331 00000001		 DS.B	   1
00003332 494F20737461 K.168	 DC.B	   'IO status was'
0000333F 00000001		 DS.B	   1
00003340 416674657220 K.169	 DC.B	   'After 'scratch', IO status was'
		      *
		      *		 Begin subroutine TESTRANDOMACCESS
		      *
0000335E	      B.11
		      *							       LINE 13/4
		      *							       LINE 13/5
0000335E 7004	      L.11.1	 MOVEQ	   #4,D0			         $4
00003360 3F00			 MOVE.W	   D0,-(A7)
00003362 486D807A		 PEA	   STATIC.+120-32766(A5)	         REAL_FILENAME
00003366 3F2D8078		 MOVE.W	   STATIC.+120-32768(A5),-(A7)	         REAL_FILENAME
0000336A 702A			 MOVEQ	   #42,D0			         $2A
0000336C 3F00			 MOVE.W	   D0,-(A7)
0000336E 4EB900000000		 JSR	   Y.INIT
00003374 2B5F8008		 MOVE.L	   (A7)+,STATIC.+8-32768(A5)	         INTEGERFILE
		      *							       LINE 13/600003378 202D8008		 MOVE.L	   STATIC.+8-32768(A5),D0	         INTEGERFILE
0000337C 4A80			 TST.L	   D0
0000337E 6606			 BNE.S	   X.11.1(PC)
00003380 4EB900000000		 JSR	   E.FILE
00003386 2F00	      X.11.1	 MOVE.L	   D0,-(A7)
00003388 4EB900000000		 JSR	   I.EXTENT
0000338E 4A9F			 TST.L	   (A7)+
00003390 6760			 BEQ.S	   L.11.3(PC)
		      *							       LINE 13/7
		      *							       LINE 13/8
00003392 2D7C00000321 L.11.2	 MOVE.L	   #801,-4(A6)			         $321  $FFFFFFFC
	 FFFC
0000339A 6100CC76		 BSR.L	   B.3(PC)			         ERROR = CODE.+$12
		      *							       LINE 13/9
0000339E 202D0000		 MOVE.L	   TTYOUTPUT-32768(A5),D0	         TTYOUTPUT
000033A2 4A80			 TST.L	   D0
000033A4 6606			 BNE.S	   X.11.2(PC)
000033A6 4EB900000000		 JSR	   E.FILE
000033AC 7221	      X.11.2	 MOVEQ	   #33,D1			         $21
000033AE 3F01			 MOVE.W	   D1,-(A7)
000033B0 7204			 MOVEQ	   #4,D1			         $4
000033B2 3F01			 MOVE.W	   D1,-(A7)
000033B4 487AFBFC		 PEA	   K.139(PC)			         CODE.+$2FB2
000033B8 2F00			 MOVE.L	   D0,-(A7)
000033BA 4EB900000000		 JSR	   T.WRITE
000033C0 222D8008		 MOVE.L	   STATIC.+8-32768(A5),D1	         INTEGERFILE
000033C4 4A81			 TST.L	   D1
000033C6 6606			 BNE.S	   X.11.3(PC)
000033C8 4EB900000000		 JSR	   E.FILE
000033CE 2F01	      X.11.3	 MOVE.L	   D1,-(A7)
000033D0 4EB900000000		 JSR	   I.EXTENT
000033D6 221F			 MOVE.L	   (A7)+,D1
000033D8 4267			 CLR.W	   -(A7)
000033DA 2D41FFF8		 MOVE.L	   D1,-8(A6)			         $FFFFFFF8
000033DE 486EFFF8		 PEA	   -8(A6)			         $FFFFFFF8
000033E2 2F00			 MOVE.L	   D0,-(A7)
000033E4 4EB900000000		 JSR	   T.WRITE
000033EA 2F00			 MOVE.L	   D0,-(A7)
000033EC 4EB900000000		 JSR	   T.WRTLN
		      *							       LINE 13/11
		      *							       LINE 13/12
000033F2 202D8008     L.11.3	 MOVE.L	   STATIC.+8-32768(A5),D0	         INTEGERFILE
000033F6 4A80			 TST.L	   D0
000033F8 6606			 BNE.S	   X.11.4(PC)
000033FA 4EB900000000		 JSR	   E.FILE00003400 2F00	      X.11.4	 MOVE.L	   D0,-(A7)
00003402 4EB900000000		 JSR	   I.EOF
00003408 4A1F			 TST.B	   (A7)+
0000340A 6636			 BNE.S	   L.11.5(PC)
		      *							       LINE 13/13
		      *							       LINE 13/14
0000340C 2D7C00000322 L.11.4	 MOVE.L	   #802,-4(A6)			         $322  $FFFFFFFC
	 FFFC
00003414 6100CBFC		 BSR.L	   B.3(PC)			         ERROR = CODE.+$12
		      *							       LINE 13/15
00003418 202D0000		 MOVE.L	   TTYOUTPUT-32768(A5),D0	         TTYOUTPUT
0000341C 4A80			 TST.L	   D0
0000341E 6606			 BNE.S	   X.11.5(PC)
00003420 4EB900000000		 JSR	   E.FILE
00003426 7229	      X.11.5	 MOVEQ	   #41,D1			         $29
00003428 3F01			 MOVE.W	   D1,-(A7)
0000342A 7204			 MOVEQ	   #4,D1			         $4
0000342C 3F01			 MOVE.W	   D1,-(A7)
0000342E 487AFBA4		 PEA	   K.140(PC)			         CODE.+$2FD4
00003432 2F00			 MOVE.L	   D0,-(A7)
00003434 4EB900000000		 JSR	   T.WRITE
0000343A 2F00			 MOVE.L	   D0,-(A7)
0000343C 4EB900000000		 JSR	   T.WRTLN
		      *							       LINE 13/16
		      *							       LINE 13/17
00003442 2F2D8008     L.11.5	 MOVE.L	   STATIC.+8-32768(A5),-(A7)	         INTEGERFILE
00003446 4EB900000000		 JSR	   I.CURSOR
0000344C 7001			 MOVEQ	   #1,D0			         $1
0000344E B09F			 CMP.L	   (A7)+,D0
00003450 6754			 BEQ.S	   L.11.7(PC)
		      *							       LINE 13/18
		      *							       LINE 13/19
00003452 2D7C00000323 L.11.6	 MOVE.L	   #803,-4(A6)			         $323  $FFFFFFFC
	 FFFC
0000345A 6100CBB6		 BSR.L	   B.3(PC)			         ERROR = CODE.+$12
		      *							       LINE 13/20
0000345E 202D0000		 MOVE.L	   TTYOUTPUT-32768(A5),D0	         TTYOUTPUT
00003462 4A80			 TST.L	   D0
00003464 6606			 BNE.S	   X.11.6(PC)
00003466 4EB900000000		 JSR	   E.FILE
0000346C 7220	      X.11.6	 MOVEQ	   #32,D1			         $20
0000346E 3F01			 MOVE.W	   D1,-(A7)
00003470 7204			 MOVEQ	   #4,D1			         $4
00003472 3F01			 MOVE.W	   D1,-(A7)
00003474 487AFB88		 PEA	   K.141(PC)			         CODE.+$2FFE00003478 2F00			 MOVE.L	   D0,-(A7)
0000347A 4EB900000000		 JSR	   T.WRITE
00003480 2F2D8008		 MOVE.L	   STATIC.+8-32768(A5),-(A7)	         INTEGERFILE
00003484 4EB900000000		 JSR	   I.CURSOR
0000348A 221F			 MOVE.L	   (A7)+,D1
0000348C 4267			 CLR.W	   -(A7)
0000348E 2D41FFF8		 MOVE.L	   D1,-8(A6)			         $FFFFFFF8
00003492 486EFFF8		 PEA	   -8(A6)			         $FFFFFFF8
00003496 2F00			 MOVE.L	   D0,-(A7)
00003498 4EB900000000		 JSR	   T.WRITE
0000349E 2F00			 MOVE.L	   D0,-(A7)
000034A0 4EB900000000		 JSR	   T.WRTLN
		      *							       LINE 13/21
		      *							       LINE 13/23
000034A6	      L.11.7
000034A6 7001	      L.11.8	 MOVEQ	   #1,D0			         $1
000034A8 2B408058		 MOVE.L	   D0,STATIC.+88-32768(A5)	         INDEX
		      *							       LINE 13/24
000034AC 202D8008     L.11.9	 MOVE.L	   STATIC.+8-32768(A5),D0	         INTEGERFILE
000034B0 4A80			 TST.L	   D0
000034B2 6606			 BNE.S	   X.11.7(PC)
000034B4 4EB900000000		 JSR	   E.FILE
000034BA 2040	      X.11.7	 MOVEA.L   D0,A0
000034BC 2050			 MOVEA.L   (A0),A0
000034BE 20AD8058		 MOVE.L	   STATIC.+88-32768(A5),(A0)	         INDEX
000034C2 2F00			 MOVE.L	   D0,-(A7)
000034C4 4EB900000000		 JSR	   Y.PUT
000034CA 202D8058		 MOVE.L	   STATIC.+88-32768(A5),D0	         INDEX
000034CE 5280			 ADDQ.L	   #1,D0			         $1
000034D0 2B408058		 MOVE.L	   D0,STATIC.+88-32768(A5)	         INDEX
000034D4 7264			 MOVEQ	   #100,D1			         $64
000034D6 B081			 CMP.L	   D1,D0
000034D8 6FD2			 BLE.S	   L.11.9(PC)
		      *							       LINE 13/25
000034DA 202D8008     L.11.10	 MOVE.L	   STATIC.+8-32768(A5),D0	         INTEGERFILE
000034DE 4A80			 TST.L	   D0
000034E0 6606			 BNE.S	   X.11.8(PC)
000034E2 4EB900000000		 JSR	   E.FILE
000034E8 2F00	      X.11.8	 MOVE.L	   D0,-(A7)
000034EA 4EB900000000		 JSR	   I.EOF
000034F0 4A1F			 TST.B	   (A7)+
000034F2 6636			 BNE.S	   L.11.12(PC)
		      *							       LINE 13/26
		      *							       LINE 13/27
000034F4 2D7C00000324 L.11.11	 MOVE.L	   #804,-4(A6)			         $324  $FFFFFFFC	 FFFC
000034FC 6100CB14		 BSR.L	   B.3(PC)			         ERROR = CODE.+$12
		      *							       LINE 13/28
00003500 202D0000		 MOVE.L	   TTYOUTPUT-32768(A5),D0	         TTYOUTPUT
00003504 4A80			 TST.L	   D0
00003506 6606			 BNE.S	   X.11.9(PC)
00003508 4EB900000000		 JSR	   E.FILE
0000350E 7228	      X.11.9	 MOVEQ	   #40,D1			         $28
00003510 3F01			 MOVE.W	   D1,-(A7)
00003512 7204			 MOVEQ	   #4,D1			         $4
00003514 3F01			 MOVE.W	   D1,-(A7)
00003516 487AFB06		 PEA	   K.142(PC)			         CODE.+$301E
0000351A 2F00			 MOVE.L	   D0,-(A7)
0000351C 4EB900000000		 JSR	   T.WRITE
00003522 2F00			 MOVE.L	   D0,-(A7)
00003524 4EB900000000		 JSR	   T.WRTLN
		      *							       LINE 13/29
		      *							       LINE 13/30
0000352A 202D8008     L.11.12	 MOVE.L	   STATIC.+8-32768(A5),D0	         INTEGERFILE
0000352E 4A80			 TST.L	   D0
00003530 6606			 BNE.S	   X.11.10(PC)
00003532 4EB900000000		 JSR	   E.FILE
00003538 2F00	      X.11.10	 MOVE.L	   D0,-(A7)
0000353A 4EB900000000		 JSR	   I.EXTENT
00003540 7064			 MOVEQ	   #100,D0			         $64
00003542 B09F			 CMP.L	   (A7)+,D0
00003544 6760			 BEQ.S	   L.11.14(PC)
		      *							       LINE 13/31
		      *							       LINE 13/32
00003546 2D7C00000325 L.11.13	 MOVE.L	   #805,-4(A6)			         $325  $FFFFFFFC
	 FFFC
0000354E 6100CAC2		 BSR.L	   B.3(PC)			         ERROR = CODE.+$12
		      *							       LINE 13/33
00003552 202D0000		 MOVE.L	   TTYOUTPUT-32768(A5),D0	         TTYOUTPUT
00003556 4A80			 TST.L	   D0
00003558 6606			 BNE.S	   X.11.11(PC)
0000355A 4EB900000000		 JSR	   E.FILE
00003560 7236	      X.11.11	 MOVEQ	   #54,D1			         $36
00003562 3F01			 MOVE.W	   D1,-(A7)
00003564 7204			 MOVEQ	   #4,D1			         $4
00003566 3F01			 MOVE.W	   D1,-(A7)
00003568 487AFADC		 PEA	   K.143(PC)			         CODE.+$3046
0000356C 2F00			 MOVE.L	   D0,-(A7)
0000356E 4EB900000000		 JSR	   T.WRITE
00003574 222D8008		 MOVE.L	   STATIC.+8-32768(A5),D1	         INTEGERFILE00003578 4A81			 TST.L	   D1
0000357A 6606			 BNE.S	   X.11.12(PC)
0000357C 4EB900000000		 JSR	   E.FILE
00003582 2F01	      X.11.12	 MOVE.L	   D1,-(A7)
00003584 4EB900000000		 JSR	   I.EXTENT
0000358A 221F			 MOVE.L	   (A7)+,D1
0000358C 4267			 CLR.W	   -(A7)
0000358E 2D41FFF8		 MOVE.L	   D1,-8(A6)			         $FFFFFFF8
00003592 486EFFF8		 PEA	   -8(A6)			         $FFFFFFF8
00003596 2F00			 MOVE.L	   D0,-(A7)
00003598 4EB900000000		 JSR	   T.WRITE
0000359E 2F00			 MOVE.L	   D0,-(A7)
000035A0 4EB900000000		 JSR	   T.WRTLN
		      *							       LINE 13/35
		      *							       LINE 13/36
000035A6 202D8008     L.11.14	 MOVE.L	   STATIC.+8-32768(A5),D0	         INTEGERFILE
000035AA 4A80			 TST.L	   D0
000035AC 6606			 BNE.S	   X.11.13(PC)
000035AE 4EB900000000		 JSR	   E.FILE
000035B4 2F00	      X.11.13	 MOVE.L	   D0,-(A7)
000035B6 4EB900000000		 JSR	   I.CLOSE
		      *							       LINE 13/38
000035BC 7004			 MOVEQ	   #4,D0			         $4
000035BE 3F00			 MOVE.W	   D0,-(A7)
000035C0 486D807A		 PEA	   STATIC.+120-32766(A5)	         REAL_FILENAME
000035C4 3F2D8078		 MOVE.W	   STATIC.+120-32768(A5),-(A7)	         REAL_FILENAME
000035C8 3F3C042B		 MOVE.W	   #1067,-(A7)			         $42B
000035CC 4EB900000000		 JSR	   Y.INIT
000035D2 2B5F8008		 MOVE.L	   (A7)+,STATIC.+8-32768(A5)	         INTEGERFILE
		      *							       LINE 13/39
000035D6 202D8008		 MOVE.L	   STATIC.+8-32768(A5),D0	         INTEGERFILE
000035DA 4A80			 TST.L	   D0
000035DC 6606			 BNE.S	   X.11.14(PC)
000035DE 4EB900000000		 JSR	   E.FILE
000035E4 2F00	      X.11.14	 MOVE.L	   D0,-(A7)
000035E6 4EB900000000		 JSR	   I.EXTENT
000035EC 7064			 MOVEQ	   #100,D0			         $64
000035EE B09F			 CMP.L	   (A7)+,D0
000035F0 6760			 BEQ.S	   L.11.16(PC)
		      *							       LINE 13/40
		      *							       LINE 13/41
000035F2 2D7C00000326 L.11.15	 MOVE.L	   #806,-4(A6)			         $326  $FFFFFFFC
	 FFFC
000035FA 6100CA16		 BSR.L	   B.3(PC)			         ERROR = CODE.+$12
		      *							       LINE 13/42000035FE 202D0000		 MOVE.L	   TTYOUTPUT-32768(A5),D0	         TTYOUTPUT
00003602 4A80			 TST.L	   D0
00003604 6606			 BNE.S	   X.11.15(PC)
00003606 4EB900000000		 JSR	   E.FILE
0000360C 7222	      X.11.15	 MOVEQ	   #34,D1			         $22
0000360E 3F01			 MOVE.W	   D1,-(A7)
00003610 7204			 MOVEQ	   #4,D1			         $4
00003612 3F01			 MOVE.W	   D1,-(A7)
00003614 487AFA66		 PEA	   K.144(PC)			         CODE.+$307C
00003618 2F00			 MOVE.L	   D0,-(A7)
0000361A 4EB900000000		 JSR	   T.WRITE
00003620 222D8008		 MOVE.L	   STATIC.+8-32768(A5),D1	         INTEGERFILE
00003624 4A81			 TST.L	   D1
00003626 6606			 BNE.S	   X.11.16(PC)
00003628 4EB900000000		 JSR	   E.FILE
0000362E 2F01	      X.11.16	 MOVE.L	   D1,-(A7)
00003630 4EB900000000		 JSR	   I.EXTENT
00003636 221F			 MOVE.L	   (A7)+,D1
00003638 4267			 CLR.W	   -(A7)
0000363A 2D41FFF8		 MOVE.L	   D1,-8(A6)			         $FFFFFFF8
0000363E 486EFFF8		 PEA	   -8(A6)			         $FFFFFFF8
00003642 2F00			 MOVE.L	   D0,-(A7)
00003644 4EB900000000		 JSR	   T.WRITE
0000364A 2F00			 MOVE.L	   D0,-(A7)
0000364C 4EB900000000		 JSR	   T.WRTLN
		      *							       LINE 13/44
		      *							       LINE 13/45
00003652 202D8008     L.11.16	 MOVE.L	   STATIC.+8-32768(A5),D0	         INTEGERFILE
00003656 4A80			 TST.L	   D0
00003658 6606			 BNE.S	   X.11.17(PC)
0000365A 4EB900000000		 JSR	   E.FILE
00003660 2F00	      X.11.17	 MOVE.L	   D0,-(A7)
00003662 4EB900000000		 JSR	   I.EOF
00003668 4A1F			 TST.B	   (A7)+
0000366A 6736			 BEQ.S	   L.11.18(PC)
		      *							       LINE 13/46
		      *							       LINE 13/47
0000366C 2D7C00000327 L.11.17	 MOVE.L	   #807,-4(A6)			         $327  $FFFFFFFC
	 FFFC
00003674 6100C99C		 BSR.L	   B.3(PC)			         ERROR = CODE.+$12
		      *							       LINE 13/48
00003678 202D0000		 MOVE.L	   TTYOUTPUT-32768(A5),D0	         TTYOUTPUT
0000367C 4A80			 TST.L	   D0
0000367E 6606			 BNE.S	   X.11.18(PC)
00003680 4EB900000000		 JSR	   E.FILE00003686 7230	      X.11.18	 MOVEQ	   #48,D1			         $30
00003688 3F01			 MOVE.W	   D1,-(A7)
0000368A 7204			 MOVEQ	   #4,D1			         $4
0000368C 3F01			 MOVE.W	   D1,-(A7)
0000368E 487AFA0E		 PEA	   K.145(PC)			         CODE.+$309E
00003692 2F00			 MOVE.L	   D0,-(A7)
00003694 4EB900000000		 JSR	   T.WRITE
0000369A 2F00			 MOVE.L	   D0,-(A7)
0000369C 4EB900000000		 JSR	   T.WRTLN
		      *							       LINE 13/49
		      *							       LINE 13/50
000036A2 2F2D8008     L.11.18	 MOVE.L	   STATIC.+8-32768(A5),-(A7)	         INTEGERFILE
000036A6 4EB900000000		 JSR	   I.CURSOR
000036AC 7001			 MOVEQ	   #1,D0			         $1
000036AE B09F			 CMP.L	   (A7)+,D0
000036B0 6754			 BEQ.S	   L.11.20(PC)
		      *							       LINE 13/51
		      *							       LINE 13/52
000036B2 2D7C00000328 L.11.19	 MOVE.L	   #808,-4(A6)			         $328  $FFFFFFFC
	 FFFC
000036BA 6100C956		 BSR.L	   B.3(PC)			         ERROR = CODE.+$12
		      *							       LINE 13/53
000036BE 202D0000		 MOVE.L	   TTYOUTPUT-32768(A5),D0	         TTYOUTPUT
000036C2 4A80			 TST.L	   D0
000036C4 6606			 BNE.S	   X.11.19(PC)
000036C6 4EB900000000		 JSR	   E.FILE
000036CC 721F	      X.11.19	 MOVEQ	   #31,D1			         $1F
000036CE 3F01			 MOVE.W	   D1,-(A7)
000036D0 7204			 MOVEQ	   #4,D1			         $4
000036D2 3F01			 MOVE.W	   D1,-(A7)
000036D4 487AF9F8		 PEA	   K.146(PC)			         CODE.+$30CE
000036D8 2F00			 MOVE.L	   D0,-(A7)
000036DA 4EB900000000		 JSR	   T.WRITE
000036E0 2F2D8008		 MOVE.L	   STATIC.+8-32768(A5),-(A7)	         INTEGERFILE
000036E4 4EB900000000		 JSR	   I.CURSOR
000036EA 221F			 MOVE.L	   (A7)+,D1
000036EC 4267			 CLR.W	   -(A7)
000036EE 2D41FFF8		 MOVE.L	   D1,-8(A6)			         $FFFFFFF8
000036F2 486EFFF8		 PEA	   -8(A6)			         $FFFFFFF8
000036F6 2F00			 MOVE.L	   D0,-(A7)
000036F8 4EB900000000		 JSR	   T.WRITE
000036FE 2F00			 MOVE.L	   D0,-(A7)
00003700 4EB900000000		 JSR	   T.WRTLN
		      *							       LINE 13/55
		      *							       LINE 13/5600003706 41ED806A     L.11.20	 LEA	   STATIC.+106-32768(A5),A0	         SEEKSET
0000370A 4298			 CLR.L	   (A0)+
0000370C 4298			 CLR.L	   (A0)+
0000370E 4298			 CLR.L	   (A0)+
00003710 4258			 CLR.W	   (A0)+
00003712	      L.11.21
		      *							       LINE 13/57
		      *							       LINE 13/58
		      *							       LINE 13/59
00003712 4EB900000000 L.11.22	 JSR	   F.RANDOM
00003718 7064			 MOVEQ	   #100,D0			         $64
0000371A 2F00			 MOVE.L	   D0,-(A7)
0000371C 4EB900000000		 JSR	   F.FLOAT
00003722 4EB900000000		 JSR	   F.MUL
00003728 4EB900000000		 JSR	   F.TRUNC
0000372E 201F			 MOVE.L	   (A7)+,D0
00003730 5280			 ADDQ.L	   #1,D0			         $1
00003732 4A80			 TST.L	   D0
00003734 6E06			 BGT.S	   X.11.20(PC)
00003736 4EB900000000 X.11.21	 JSR	   E.VALUE
0000373C 7264	      X.11.20	 MOVEQ	   #100,D1			         $64
0000373E B081			 CMP.L	   D1,D0
00003740 6EF4			 BGT.S	   X.11.21(PC)
00003742 2B408058		 MOVE.L	   D0,STATIC.+88-32768(A5)	         INDEX
00003746 202D8058		 MOVE.L	   STATIC.+88-32768(A5),D0	         INDEX
0000374A 2200			 MOVE.L	   D0,D1
0000374C E681			 ASR.L	   #3,D1			         $3
0000374E 7407			 MOVEQ	   #7,D2			         $7
00003750 C002			 AND.B	   D2,D0
00003752 9400			 SUB.B	   D0,D2
00003754 41ED806A		 LEA	   STATIC.+106-32768(A5),A0	         SEEKSET
00003758 05301800		 BTST.B	   D2,0(A0,D1.L)		         $0
0000375C 66B4			 BNE.S	   L.11.22(PC)
		      *							       LINE 13/60
		      *							       LINE 13/61
0000375E 202D8058     L.11.23	 MOVE.L	   STATIC.+88-32768(A5),D0	         INDEX
00003762 2200			 MOVE.L	   D0,D1
00003764 E681			 ASR.L	   #3,D1			         $3
00003766 7407			 MOVEQ	   #7,D2			         $7
00003768 C002			 AND.B	   D2,D0
0000376A 9400			 SUB.B	   D0,D2
0000376C 41ED806A		 LEA	   STATIC.+106-32768(A5),A0	         SEEKSET
00003770 05F01800		 BSET.B	   D2,0(A0,D1.L)		         $0
		      *							       LINE 13/62
00003774 202D8008		 MOVE.L	   STATIC.+8-32768(A5),D0	         INTEGERFILE00003778 4A80			 TST.L	   D0
0000377A 6606			 BNE.S	   X.11.22(PC)
0000377C 4EB900000000		 JSR	   E.FILE
00003782 2F2D8058     X.11.22	 MOVE.L	   STATIC.+88-32768(A5),-(A7)	         INDEX
00003786 2F00			 MOVE.L	   D0,-(A7)
00003788 4EB900000000		 JSR	   I.SEEK
		      *							       LINE 13/63
0000378E 202D8008		 MOVE.L	   STATIC.+8-32768(A5),D0	         INTEGERFILE
00003792 4A80			 TST.L	   D0
00003794 6606			 BNE.S	   X.11.23(PC)
00003796 4EB900000000		 JSR	   E.FILE
0000379C 2040	      X.11.23	 MOVEA.L   D0,A0
0000379E 2050			 MOVEA.L   (A0),A0
000037A0 2010			 MOVE.L	   (A0),D0
000037A2 B0AD8058		 CMP.L	   STATIC.+88-32768(A5),D0	         INDEX
000037A6 670000AA		 BEQ.L	   L.11.25(PC)
		      *							       LINE 13/64
		      *							       LINE 13/65
000037AA 2D7C00000329 L.11.24	 MOVE.L	   #809,-4(A6)			         $329  $FFFFFFFC
	 FFFC
000037B2 6100C85E		 BSR.L	   B.3(PC)			         ERROR = CODE.+$12
		      *							       LINE 13/66
000037B6 202D0000		 MOVE.L	   TTYOUTPUT-32768(A5),D0	         TTYOUTPUT
000037BA 4A80			 TST.L	   D0
000037BC 6606			 BNE.S	   X.11.24(PC)
000037BE 4EB900000000		 JSR	   E.FILE
000037C4 720F	      X.11.24	 MOVEQ	   #15,D1			         $F
000037C6 3F01			 MOVE.W	   D1,-(A7)
000037C8 7204			 MOVEQ	   #4,D1			         $4
000037CA 3F01			 MOVE.W	   D1,-(A7)
000037CC 487AF920		 PEA	   K.147(PC)			         CODE.+$30EE
000037D0 2F00			 MOVE.L	   D0,-(A7)
000037D2 4EB900000000		 JSR	   T.WRITE
000037D8 4267			 CLR.W	   -(A7)
000037DA 486D8058		 PEA	   STATIC.+88-32768(A5)		         INDEX
000037DE 2F00			 MOVE.L	   D0,-(A7)
000037E0 4EB900000000		 JSR	   T.WRITE
000037E6 7206			 MOVEQ	   #6,D1			         $6
000037E8 3F01			 MOVE.W	   D1,-(A7)
000037EA 7204			 MOVEQ	   #4,D1			         $4
000037EC 3F01			 MOVE.W	   D1,-(A7)
000037EE 487AF90E		 PEA	   K.148(PC)			         CODE.+$30FE
000037F2 2F00			 MOVE.L	   D0,-(A7)
000037F4 4EB900000000		 JSR	   T.WRITE
000037FA 2F2D8008		 MOVE.L	   STATIC.+8-32768(A5),-(A7)	         INTEGERFILE000037FE 4EB900000000		 JSR	   I.CURSOR
00003804 221F			 MOVE.L	   (A7)+,D1
00003806 4267			 CLR.W	   -(A7)
00003808 2D41FFF8		 MOVE.L	   D1,-8(A6)			         $FFFFFFF8
0000380C 486EFFF8		 PEA	   -8(A6)			         $FFFFFFF8
00003810 2F00			 MOVE.L	   D0,-(A7)
00003812 4EB900000000		 JSR	   T.WRITE
00003818 7205			 MOVEQ	   #5,D1			         $5
0000381A 3F01			 MOVE.W	   D1,-(A7)
0000381C 7204			 MOVEQ	   #4,D1			         $4
0000381E 3F01			 MOVE.W	   D1,-(A7)
00003820 487AF8E2		 PEA	   K.149(PC)			         CODE.+$3104
00003824 2F00			 MOVE.L	   D0,-(A7)
00003826 4EB900000000		 JSR	   T.WRITE
0000382C 222D8008		 MOVE.L	   STATIC.+8-32768(A5),D1	         INTEGERFILE
00003830 4A81			 TST.L	   D1
00003832 6606			 BNE.S	   X.11.25(PC)
00003834 4EB900000000		 JSR	   E.FILE
0000383A 2041	      X.11.25	 MOVEA.L   D1,A0
0000383C 2050			 MOVEA.L   (A0),A0
0000383E 4267			 CLR.W	   -(A7)
00003840 4850			 PEA	   (A0)
00003842 2F00			 MOVE.L	   D0,-(A7)
00003844 4EB900000000		 JSR	   T.WRITE
0000384A 2F00			 MOVE.L	   D0,-(A7)
0000384C 4EB900000000		 JSR	   T.WRTLN
		      *							       LINE 13/69
00003852 4CBA007FF8B6 L.11.25	 MOVEM.W   K.150(PC),#127		         CODE.+$310A  $7F
00003858 48AE007FFFEE		 MOVEM.W   #127,-18(A6)			         $7F  $FFFFFFEE
0000385E 41ED806A		 LEA	   STATIC.+106-32768(A5),A0	         SEEKSET
00003862 43EEFFEE		 LEA	   -18(A6),A1			         $FFFFFFEE
00003866 7006			 MOVEQ	   #6,D0			         $6
00003868 B149	      X.11.26	 CMPM.W	   (A0)+,(A1)+
0000386A 56C8FFFC		 DBNE	   D0,X.11.26(PC)
0000386E 6600FEA2		 BNE.L	   L.11.21(PC)
		      *							       LINE 13/70
		      *							       LINE 13/73
00003872 202D8008     L.11.26	 MOVE.L	   STATIC.+8-32768(A5),D0	         INTEGERFILE
00003876 4A80			 TST.L	   D0
00003878 6606			 BNE.S	   X.11.27(PC)
0000387A 4EB900000000		 JSR	   E.FILE
00003880 7265	      X.11.27	 MOVEQ	   #101,D1			         $65
00003882 2F01			 MOVE.L	   D1,-(A7)
00003884 2F00			 MOVE.L	   D0,-(A7)
00003886 4EB900000000		 JSR	   I.SEEK		      *							       LINE 13/74
0000388C 202D8008		 MOVE.L	   STATIC.+8-32768(A5),D0	         INTEGERFILE
00003890 4A80			 TST.L	   D0
00003892 6606			 BNE.S	   X.11.28(PC)
00003894 4EB900000000		 JSR	   E.FILE
0000389A 2F00	      X.11.28	 MOVE.L	   D0,-(A7)
0000389C 4EB900000000		 JSR	   I.EOF
000038A2 4A1F			 TST.B	   (A7)+
000038A4 6636			 BNE.S	   L.11.28(PC)
		      *							       LINE 13/75
		      *							       LINE 13/76
000038A6 2D7C0000032A L.11.27	 MOVE.L	   #810,-4(A6)			         $32A  $FFFFFFFC
	 FFFC
000038AE 6100C762		 BSR.L	   B.3(PC)			         ERROR = CODE.+$12
		      *							       LINE 13/77
000038B2 202D0000		 MOVE.L	   TTYOUTPUT-32768(A5),D0	         TTYOUTPUT
000038B6 4A80			 TST.L	   D0
000038B8 6606			 BNE.S	   X.11.29(PC)
000038BA 4EB900000000		 JSR	   E.FILE
000038C0 7237	      X.11.29	 MOVEQ	   #55,D1			         $37
000038C2 3F01			 MOVE.W	   D1,-(A7)
000038C4 7204			 MOVEQ	   #4,D1			         $4
000038C6 3F01			 MOVE.W	   D1,-(A7)
000038C8 487AF84E		 PEA	   K.151(PC)			         CODE.+$3118
000038CC 2F00			 MOVE.L	   D0,-(A7)
000038CE 4EB900000000		 JSR	   T.WRITE
000038D4 2F00			 MOVE.L	   D0,-(A7)
000038D6 4EB900000000		 JSR	   T.WRTLN
		      *							       LINE 13/78
		      *							       LINE 13/81
000038DC 202D8008     L.11.28	 MOVE.L	   STATIC.+8-32768(A5),D0	         INTEGERFILE
000038E0 4A80			 TST.L	   D0
000038E2 6606			 BNE.S	   X.11.30(PC)
000038E4 4EB900000000		 JSR	   E.FILE
000038EA 2F00	      X.11.30	 MOVE.L	   D0,-(A7)
000038EC 4EB900000000		 JSR	   Y.GET
		      *							       LINE 13/82
000038F2 202D8008		 MOVE.L	   STATIC.+8-32768(A5),D0	         INTEGERFILE
000038F6 4A80			 TST.L	   D0
000038F8 6606			 BNE.S	   X.11.31(PC)
000038FA 4EB900000000		 JSR	   E.FILE
00003900 2F00	      X.11.31	 MOVE.L	   D0,-(A7)
00003902 4EB900000000		 JSR	   I.FILSTA
00003908 301F			 MOVE.W	   (A7)+,D0
0000390A 4A40			 TST.W	   D00000390C 6C06			 BGE.S	   X.11.32(PC)
0000390E 4EB900000000 X.11.33	 JSR	   E.VALUE
00003914 720D	      X.11.32	 MOVEQ	   #13,D1			         $D
00003916 B041			 CMP.W	   D1,D0
00003918 6EF4			 BGT.S	   X.11.33(PC)
0000391A 3B40809E		 MOVE.W	   D0,STATIC.+158-32768(A5)	         FILESTATUS
		      *							       LINE 13/83
0000391E 7007			 MOVEQ	   #7,D0			         $7
00003920 B06D809E		 CMP.W	   STATIC.+158-32768(A5),D0	         FILESTATUS
00003924 67000100		 BEQ.L	   L.11.30(PC)
		      *							       LINE 13/84
		      *							       LINE 13/85
00003928 2D7C0000032B L.11.29	 MOVE.L	   #811,-4(A6)			         $32B  $FFFFFFFC
	 FFFC
00003930 6100C6E0		 BSR.L	   B.3(PC)			         ERROR = CODE.+$12
		      *							       LINE 13/86
00003934 202D0000		 MOVE.L	   TTYOUTPUT-32768(A5),D0	         TTYOUTPUT
00003938 4A80			 TST.L	   D0
0000393A 6606			 BNE.S	   X.11.34(PC)
0000393C 4EB900000000		 JSR	   E.FILE
00003942 723A	      X.11.34	 MOVEQ	   #58,D1			         $3A
00003944 3F01			 MOVE.W	   D1,-(A7)
00003946 7204			 MOVEQ	   #4,D1			         $4
00003948 3F01			 MOVE.W	   D1,-(A7)
0000394A 487AF804		 PEA	   K.152(PC)			         CODE.+$3150
0000394E 2F00			 MOVE.L	   D0,-(A7)
00003950 4EB900000000		 JSR	   T.WRITE
00003956 2F00			 MOVE.L	   D0,-(A7)
00003958 4EB900000000		 JSR	   T.WRTLN
		      *							       LINE 13/87
0000395E 202D0000		 MOVE.L	   TTYOUTPUT-32768(A5),D0	         TTYOUTPUT
00003962 4A80			 TST.L	   D0
00003964 6606			 BNE.S	   X.11.35(PC)
00003966 4EB900000000		 JSR	   E.FILE
0000396C 7208	      X.11.35	 MOVEQ	   #8,D1			         $8
0000396E 3F01			 MOVE.W	   D1,-(A7)
00003970 7204			 MOVEQ	   #4,D1			         $4
00003972 3F01			 MOVE.W	   D1,-(A7)
00003974 487AF814		 PEA	   K.153(PC)			         CODE.+$318A
00003978 2F00			 MOVE.L	   D0,-(A7)
0000397A 4EB900000000		 JSR	   T.WRITE
00003980 2F2D8008		 MOVE.L	   STATIC.+8-32768(A5),-(A7)	         INTEGERFILE
00003984 4EB900000000		 JSR	   I.CURSOR
0000398A 221F			 MOVE.L	   (A7)+,D1
0000398C 4267			 CLR.W	   -(A7)0000398E 2D41FFF8		 MOVE.L	   D1,-8(A6)			         $FFFFFFF8
00003992 486EFFF8		 PEA	   -8(A6)			         $FFFFFFF8
00003996 2F00			 MOVE.L	   D0,-(A7)
00003998 4EB900000000		 JSR	   T.WRITE
0000399E 720A			 MOVEQ	   #10,D1			         $A
000039A0 3F01			 MOVE.W	   D1,-(A7)
000039A2 7204			 MOVEQ	   #4,D1			         $4
000039A4 3F01			 MOVE.W	   D1,-(A7)
000039A6 487AF7EA		 PEA	   K.154(PC)			         CODE.+$3192
000039AA 2F00			 MOVE.L	   D0,-(A7)
000039AC 4EB900000000		 JSR	   T.WRITE
000039B2 222D8008		 MOVE.L	   STATIC.+8-32768(A5),D1	         INTEGERFILE
000039B6 4A81			 TST.L	   D1
000039B8 6606			 BNE.S	   X.11.36(PC)
000039BA 4EB900000000		 JSR	   E.FILE
000039C0 2F01	      X.11.36	 MOVE.L	   D1,-(A7)
000039C2 4EB900000000		 JSR	   I.EXTENT
000039C8 221F			 MOVE.L	   (A7)+,D1
000039CA 4267			 CLR.W	   -(A7)
000039CC 2D41FFF4		 MOVE.L	   D1,-12(A6)			         $FFFFFFF4
000039D0 486EFFF4		 PEA	   -12(A6)			         $FFFFFFF4
000039D4 2F00			 MOVE.L	   D0,-(A7)
000039D6 4EB900000000		 JSR	   T.WRITE
000039DC 2F00			 MOVE.L	   D0,-(A7)
000039DE 4EB900000000		 JSR	   T.WRTLN
		      *							       LINE 13/89
000039E4 202D0000		 MOVE.L	   TTYOUTPUT-32768(A5),D0	         TTYOUTPUT
000039E8 4A80			 TST.L	   D0
000039EA 6606			 BNE.S	   X.11.37(PC)
000039EC 4EB900000000		 JSR	   E.FILE
000039F2 720D	      X.11.37	 MOVEQ	   #13,D1			         $D
000039F4 3F01			 MOVE.W	   D1,-(A7)
000039F6 7204			 MOVEQ	   #4,D1			         $4
000039F8 3F01			 MOVE.W	   D1,-(A7)
000039FA 487AF7A0		 PEA	   K.155(PC)			         CODE.+$319C
000039FE 2F00			 MOVE.L	   D0,-(A7)
00003A00 4EB900000000		 JSR	   T.WRITE
00003A06 4267			 CLR.W	   -(A7)
00003A08 322D809E		 MOVE.W	   STATIC.+158-32768(A5),D1	         FILESTATUS
00003A0C 48C1			 EXT.L	   D1
00003A0E 2D41FFF8		 MOVE.L	   D1,-8(A6)			         $FFFFFFF8
00003A12 486EFFF8		 PEA	   -8(A6)			         $FFFFFFF8
00003A16 2F00			 MOVE.L	   D0,-(A7)
00003A18 4EB900000000		 JSR	   T.WRITE
00003A1E 2F00			 MOVE.L	   D0,-(A7)00003A20 4EB900000000		 JSR	   T.WRTLN
		      *							       LINE 13/90
		      *							       LINE 13/93
00003A26 202D8008     L.11.30	 MOVE.L	   STATIC.+8-32768(A5),D0	         INTEGERFILE
00003A2A 4A80			 TST.L	   D0
00003A2C 6606			 BNE.S	   X.11.38(PC)
00003A2E 4EB900000000		 JSR	   E.FILE
00003A34 726E	      X.11.38	 MOVEQ	   #110,D1			         $6E
00003A36 2F01			 MOVE.L	   D1,-(A7)
00003A38 2F00			 MOVE.L	   D0,-(A7)
00003A3A 4EB900000000		 JSR	   I.SEEK
		      *							       LINE 13/94
00003A40 202D8008		 MOVE.L	   STATIC.+8-32768(A5),D0	         INTEGERFILE
00003A44 4A80			 TST.L	   D0
00003A46 6606			 BNE.S	   X.11.39(PC)
00003A48 4EB900000000		 JSR	   E.FILE
00003A4E 2F00	      X.11.39	 MOVE.L	   D0,-(A7)
00003A50 4EB900000000		 JSR	   Y.PUT
		      *							       LINE 13/95
00003A56 202D8008		 MOVE.L	   STATIC.+8-32768(A5),D0	         INTEGERFILE
00003A5A 4A80			 TST.L	   D0
00003A5C 6606			 BNE.S	   X.11.40(PC)
00003A5E 4EB900000000		 JSR	   E.FILE
00003A64 2F00	      X.11.40	 MOVE.L	   D0,-(A7)
00003A66 4EB900000000		 JSR	   I.EXTENT
00003A6C 706E			 MOVEQ	   #110,D0			         $6E
00003A6E B09F			 CMP.L	   (A7)+,D0
00003A70 6774			 BEQ.S	   L.11.32(PC)
		      *							       LINE 13/96
		      *							       LINE 13/97
00003A72 2D7C0000032C L.11.31	 MOVE.L	   #812,-4(A6)			         $32C  $FFFFFFFC
	 FFFC
00003A7A 6100C596		 BSR.L	   B.3(PC)			         ERROR = CODE.+$12
		      *							       LINE 13/98
00003A7E 202D0000		 MOVE.L	   TTYOUTPUT-32768(A5),D0	         TTYOUTPUT
00003A82 4A80			 TST.L	   D0
00003A84 6606			 BNE.S	   X.11.41(PC)
00003A86 4EB900000000		 JSR	   E.FILE
00003A8C 7238	      X.11.41	 MOVEQ	   #56,D1			         $38
00003A8E 3F01			 MOVE.W	   D1,-(A7)
00003A90 7204			 MOVEQ	   #4,D1			         $4
00003A92 3F01			 MOVE.W	   D1,-(A7)
00003A94 487AF714		 PEA	   K.156(PC)			         CODE.+$31AA
00003A98 2F00			 MOVE.L	   D0,-(A7)
00003A9A 4EB900000000		 JSR	   T.WRITE00003AA0 720B			 MOVEQ	   #11,D1			         $B
00003AA2 3F01			 MOVE.W	   D1,-(A7)
00003AA4 7204			 MOVEQ	   #4,D1			         $4
00003AA6 3F01			 MOVE.W	   D1,-(A7)
00003AA8 487AF738		 PEA	   K.157(PC)			         CODE.+$31E2
00003AAC 2F00			 MOVE.L	   D0,-(A7)
00003AAE 4EB900000000		 JSR	   T.WRITE
00003AB4 222D8008		 MOVE.L	   STATIC.+8-32768(A5),D1	         INTEGERFILE
00003AB8 4A81			 TST.L	   D1
00003ABA 6606			 BNE.S	   X.11.42(PC)
00003ABC 4EB900000000		 JSR	   E.FILE
00003AC2 2F01	      X.11.42	 MOVE.L	   D1,-(A7)
00003AC4 4EB900000000		 JSR	   I.EXTENT
00003ACA 221F			 MOVE.L	   (A7)+,D1
00003ACC 4267			 CLR.W	   -(A7)
00003ACE 2D41FFF8		 MOVE.L	   D1,-8(A6)			         $FFFFFFF8
00003AD2 486EFFF8		 PEA	   -8(A6)			         $FFFFFFF8
00003AD6 2F00			 MOVE.L	   D0,-(A7)
00003AD8 4EB900000000		 JSR	   T.WRITE
00003ADE 2F00			 MOVE.L	   D0,-(A7)
00003AE0 4EB900000000		 JSR	   T.WRTLN
		      *							       LINE 13/100
		      *							       LINE 13/103
00003AE6	      L.11.32
00003AE6 7037	      L.11.33	 MOVEQ	   #55,D0			         $37
00003AE8 2B408058		 MOVE.L	   D0,STATIC.+88-32768(A5)	         INDEX
		      *							       LINE 13/104
00003AEC 202D8008     L.11.34	 MOVE.L	   STATIC.+8-32768(A5),D0	         INTEGERFILE
00003AF0 4A80			 TST.L	   D0
00003AF2 6606			 BNE.S	   X.11.43(PC)
00003AF4 4EB900000000		 JSR	   E.FILE
00003AFA 4A80	      X.11.43	 TST.L	   D0
00003AFC 6606			 BNE.S	   X.11.44(PC)
00003AFE 4EB900000000		 JSR	   E.FILE
00003B04 2F2D8058     X.11.44	 MOVE.L	   STATIC.+88-32768(A5),-(A7)	         INDEX
00003B08 2F00			 MOVE.L	   D0,-(A7)
00003B0A 4EB900000000		 JSR	   I.SEEK
00003B10 2040			 MOVEA.L   D0,A0
00003B12 2050			 MOVEA.L   (A0),A0
00003B14 7232			 MOVEQ	   #50,D1			         $32
00003B16 92AD8058		 SUB.L	   STATIC.+88-32768(A5),D1	         INDEX
00003B1A 4481			 NEG.L	   D1
00003B1C 2081			 MOVE.L	   D1,(A0)
00003B1E 2F00			 MOVE.L	   D0,-(A7)
00003B20 4EB900000000		 JSR	   Y.PUT00003B26 202D8058		 MOVE.L	   STATIC.+88-32768(A5),D0	         INDEX
00003B2A 5380			 SUBQ.L	   #1,D0			         $1
00003B2C 2B408058		 MOVE.L	   D0,STATIC.+88-32768(A5)	         INDEX
00003B30 7232			 MOVEQ	   #50,D1			         $32
00003B32 B081			 CMP.L	   D1,D0
00003B34 6CB6			 BGE.S	   L.11.34(PC)
		      *							       LINE 13/105
00003B36 202D8008     L.11.35	 MOVE.L	   STATIC.+8-32768(A5),D0	         INTEGERFILE
00003B3A 4A80			 TST.L	   D0
00003B3C 6606			 BNE.S	   X.11.45(PC)
00003B3E 4EB900000000		 JSR	   E.FILE
00003B44 4A80	      X.11.45	 TST.L	   D0
00003B46 6606			 BNE.S	   X.11.46(PC)
00003B48 4EB900000000		 JSR	   E.FILE
00003B4E 7231	      X.11.46	 MOVEQ	   #49,D1			         $31
00003B50 2F01			 MOVE.L	   D1,-(A7)
00003B52 2F00			 MOVE.L	   D0,-(A7)
00003B54 4EB900000000		 JSR	   I.SEEK
00003B5A 2040			 MOVEA.L   D0,A0
00003B5C 2050			 MOVEA.L   (A0),A0
00003B5E 2B50800C		 MOVE.L	   (A0),STATIC.+12-32768(A5)	         INTEGERVARIABLE
00003B62 2F00			 MOVE.L	   D0,-(A7)
00003B64 4EB900000000		 JSR	   Y.GET
		      *							       LINE 13/106
00003B6A 7031			 MOVEQ	   #49,D0			         $31
00003B6C B0AD800C		 CMP.L	   STATIC.+12-32768(A5),D0	         INTEGERVARIABLE
00003B70 67000094		 BEQ.L	   L.11.37(PC)
		      *							       LINE 13/107
		      *							       LINE 13/108
00003B74 2D7C0000032D L.11.36	 MOVE.L	   #813,-4(A6)			         $32D  $FFFFFFFC
	 FFFC
00003B7C 6100C494		 BSR.L	   B.3(PC)			         ERROR = CODE.+$12
		      *							       LINE 13/109
00003B80 202D0000		 MOVE.L	   TTYOUTPUT-32768(A5),D0	         TTYOUTPUT
00003B84 4A80			 TST.L	   D0
00003B86 6606			 BNE.S	   X.11.47(PC)
00003B88 4EB900000000		 JSR	   E.FILE
00003B8E 7233	      X.11.47	 MOVEQ	   #51,D1			         $33
00003B90 3F01			 MOVE.W	   D1,-(A7)
00003B92 7204			 MOVEQ	   #4,D1			         $4
00003B94 3F01			 MOVE.W	   D1,-(A7)
00003B96 487AF656		 PEA	   K.158(PC)			         CODE.+$31EE
00003B9A 2F00			 MOVE.L	   D0,-(A7)
00003B9C 4EB900000000		 JSR	   T.WRITE
00003BA2 7215			 MOVEQ	   #21,D1			         $1500003BA4 3F01			 MOVE.W	   D1,-(A7)
00003BA6 7204			 MOVEQ	   #4,D1			         $4
00003BA8 3F01			 MOVE.W	   D1,-(A7)
00003BAA 487AF676		 PEA	   K.159(PC)			         CODE.+$3222
00003BAE 2F00			 MOVE.L	   D0,-(A7)
00003BB0 4EB900000000		 JSR	   T.WRITE
00003BB6 2F00			 MOVE.L	   D0,-(A7)
00003BB8 4EB900000000		 JSR	   T.WRTLN
		      *							       LINE 13/111
00003BBE 202D0000		 MOVE.L	   TTYOUTPUT-32768(A5),D0	         TTYOUTPUT
00003BC2 4A80			 TST.L	   D0
00003BC4 6606			 BNE.S	   X.11.48(PC)
00003BC6 4EB900000000		 JSR	   E.FILE
00003BCC 7215	      X.11.48	 MOVEQ	   #21,D1			         $15
00003BCE 3F01			 MOVE.W	   D1,-(A7)
00003BD0 7204			 MOVEQ	   #4,D1			         $4
00003BD2 3F01			 MOVE.W	   D1,-(A7)
00003BD4 487AF662		 PEA	   K.160(PC)			         CODE.+$3238
00003BD8 2F00			 MOVE.L	   D0,-(A7)
00003BDA 4EB900000000		 JSR	   T.WRITE
00003BE0 222D8008		 MOVE.L	   STATIC.+8-32768(A5),D1	         INTEGERFILE
00003BE4 4A81			 TST.L	   D1
00003BE6 6606			 BNE.S	   X.11.49(PC)
00003BE8 4EB900000000		 JSR	   E.FILE
00003BEE 2041	      X.11.49	 MOVEA.L   D1,A0
00003BF0 2050			 MOVEA.L   (A0),A0
00003BF2 4267			 CLR.W	   -(A7)
00003BF4 4850			 PEA	   (A0)
00003BF6 2F00			 MOVE.L	   D0,-(A7)
00003BF8 4EB900000000		 JSR	   T.WRITE
00003BFE 2F00			 MOVE.L	   D0,-(A7)
00003C00 4EB900000000		 JSR	   T.WRTLN
		      *							       LINE 13/112
		      *							       LINE 13/113
00003C06 202D8008     L.11.37	 MOVE.L	   STATIC.+8-32768(A5),D0	         INTEGERFILE
00003C0A 4A80			 TST.L	   D0
00003C0C 6606			 BNE.S	   X.11.50(PC)
00003C0E 4EB900000000		 JSR	   E.FILE
00003C14 4A80	      X.11.50	 TST.L	   D0
00003C16 6606			 BNE.S	   X.11.51(PC)
00003C18 4EB900000000		 JSR	   E.FILE
00003C1E 7238	      X.11.51	 MOVEQ	   #56,D1			         $38
00003C20 2F01			 MOVE.L	   D1,-(A7)
00003C22 2F00			 MOVE.L	   D0,-(A7)
00003C24 4EB900000000		 JSR	   I.SEEK00003C2A 2040			 MOVEA.L   D0,A0
00003C2C 2050			 MOVEA.L   (A0),A0
00003C2E 2B50800C		 MOVE.L	   (A0),STATIC.+12-32768(A5)	         INTEGERVARIABLE
00003C32 2F00			 MOVE.L	   D0,-(A7)
00003C34 4EB900000000		 JSR	   Y.GET
		      *							       LINE 13/114
00003C3A 7038			 MOVEQ	   #56,D0			         $38
00003C3C B0AD800C		 CMP.L	   STATIC.+12-32768(A5),D0	         INTEGERVARIABLE
00003C40 67000094		 BEQ.L	   L.11.39(PC)
		      *							       LINE 13/115
		      *							       LINE 13/116
00003C44 2D7C0000032E L.11.38	 MOVE.L	   #814,-4(A6)			         $32E  $FFFFFFFC
	 FFFC
00003C4C 6100C3C4		 BSR.L	   B.3(PC)			         ERROR = CODE.+$12
		      *							       LINE 13/117
00003C50 202D0000		 MOVE.L	   TTYOUTPUT-32768(A5),D0	         TTYOUTPUT
00003C54 4A80			 TST.L	   D0
00003C56 6606			 BNE.S	   X.11.52(PC)
00003C58 4EB900000000		 JSR	   E.FILE
00003C5E 7233	      X.11.52	 MOVEQ	   #51,D1			         $33
00003C60 3F01			 MOVE.W	   D1,-(A7)
00003C62 7204			 MOVEQ	   #4,D1			         $4
00003C64 3F01			 MOVE.W	   D1,-(A7)
00003C66 487AF5E6		 PEA	   K.161(PC)			         CODE.+$324E
00003C6A 2F00			 MOVE.L	   D0,-(A7)
00003C6C 4EB900000000		 JSR	   T.WRITE
00003C72 7215			 MOVEQ	   #21,D1			         $15
00003C74 3F01			 MOVE.W	   D1,-(A7)
00003C76 7204			 MOVEQ	   #4,D1			         $4
00003C78 3F01			 MOVE.W	   D1,-(A7)
00003C7A 487AF606		 PEA	   K.162(PC)			         CODE.+$3282
00003C7E 2F00			 MOVE.L	   D0,-(A7)
00003C80 4EB900000000		 JSR	   T.WRITE
00003C86 2F00			 MOVE.L	   D0,-(A7)
00003C88 4EB900000000		 JSR	   T.WRTLN
		      *							       LINE 13/119
00003C8E 202D0000		 MOVE.L	   TTYOUTPUT-32768(A5),D0	         TTYOUTPUT
00003C92 4A80			 TST.L	   D0
00003C94 6606			 BNE.S	   X.11.53(PC)
00003C96 4EB900000000		 JSR	   E.FILE
00003C9C 7215	      X.11.53	 MOVEQ	   #21,D1			         $15
00003C9E 3F01			 MOVE.W	   D1,-(A7)
00003CA0 7204			 MOVEQ	   #4,D1			         $4
00003CA2 3F01			 MOVE.W	   D1,-(A7)
00003CA4 487AF5F2		 PEA	   K.163(PC)			         CODE.+$329800003CA8 2F00			 MOVE.L	   D0,-(A7)
00003CAA 4EB900000000		 JSR	   T.WRITE
00003CB0 222D8008		 MOVE.L	   STATIC.+8-32768(A5),D1	         INTEGERFILE
00003CB4 4A81			 TST.L	   D1
00003CB6 6606			 BNE.S	   X.11.54(PC)
00003CB8 4EB900000000		 JSR	   E.FILE
00003CBE 2041	      X.11.54	 MOVEA.L   D1,A0
00003CC0 2050			 MOVEA.L   (A0),A0
00003CC2 4267			 CLR.W	   -(A7)
00003CC4 4850			 PEA	   (A0)
00003CC6 2F00			 MOVE.L	   D0,-(A7)
00003CC8 4EB900000000		 JSR	   T.WRITE
00003CCE 2F00			 MOVE.L	   D0,-(A7)
00003CD0 4EB900000000		 JSR	   T.WRTLN
		      *							       LINE 13/120
		      *							       LINE 13/123
00003CD6 202D8008     L.11.39	 MOVE.L	   STATIC.+8-32768(A5),D0	         INTEGERFILE
00003CDA 4A80			 TST.L	   D0
00003CDC 6606			 BNE.S	   X.11.55(PC)
00003CDE 4EB900000000		 JSR	   E.FILE
00003CE4 2F00	      X.11.55	 MOVE.L	   D0,-(A7)
00003CE6 4EB900000000		 JSR	   I.CLOSE
		      *							       LINE 13/124
00003CEC 7004			 MOVEQ	   #4,D0			         $4
00003CEE 3F00			 MOVE.W	   D0,-(A7)
00003CF0 486D807A		 PEA	   STATIC.+120-32766(A5)	         REAL_FILENAME
00003CF4 3F2D8078		 MOVE.W	   STATIC.+120-32768(A5),-(A7)	         REAL_FILENAME
00003CF8 3F3C102A		 MOVE.W	   #4138,-(A7)			         $102A
00003CFC 4EB900000000		 JSR	   Y.INIT
00003D02 2B5F8008		 MOVE.L	   (A7)+,STATIC.+8-32768(A5)	         INTEGERFILE
		      *							       LINE 13/125
00003D06 202D8008		 MOVE.L	   STATIC.+8-32768(A5),D0	         INTEGERFILE
00003D0A 4A80			 TST.L	   D0
00003D0C 6606			 BNE.S	   X.11.56(PC)
00003D0E 4EB900000000		 JSR	   E.FILE
00003D14 2F00	      X.11.56	 MOVE.L	   D0,-(A7)
00003D16 4EB900000000		 JSR	   I.EXTENT
00003D1C 706E			 MOVEQ	   #110,D0			         $6E
00003D1E B09F			 CMP.L	   (A7)+,D0
00003D20 6612			 BNE.S	   L.11.41(PC)
00003D22 2F2D8008     L.11.40	 MOVE.L	   STATIC.+8-32768(A5),-(A7)	         INTEGERFILE
00003D26 4EB900000000		 JSR	   I.CURSOR
00003D2C 706F			 MOVEQ	   #111,D0			         $6F
00003D2E B09F			 CMP.L	   (A7)+,D0
00003D30 670000A8		 BEQ.L	   L.11.42(PC)		      *							       LINE 13/126
		      *							       LINE 13/127
00003D34 2D7C0000032F L.11.41	 MOVE.L	   #815,-4(A6)			         $32F  $FFFFFFFC
	 FFFC
00003D3C 6100C2D4		 BSR.L	   B.3(PC)			         ERROR = CODE.+$12
		      *							       LINE 13/128
00003D40 202D0000		 MOVE.L	   TTYOUTPUT-32768(A5),D0	         TTYOUTPUT
00003D44 4A80			 TST.L	   D0
00003D46 6606			 BNE.S	   X.11.57(PC)
00003D48 4EB900000000		 JSR	   E.FILE
00003D4E 7237	      X.11.57	 MOVEQ	   #55,D1			         $37
00003D50 3F01			 MOVE.W	   D1,-(A7)
00003D52 7204			 MOVEQ	   #4,D1			         $4
00003D54 3F01			 MOVE.W	   D1,-(A7)
00003D56 487AF556		 PEA	   K.164(PC)			         CODE.+$32AE
00003D5A 2F00			 MOVE.L	   D0,-(A7)
00003D5C 4EB900000000		 JSR	   T.WRITE
00003D62 721A			 MOVEQ	   #26,D1			         $1A
00003D64 3F01			 MOVE.W	   D1,-(A7)
00003D66 7204			 MOVEQ	   #4,D1			         $4
00003D68 3F01			 MOVE.W	   D1,-(A7)
00003D6A 487AF57A		 PEA	   K.165(PC)			         CODE.+$32E6
00003D6E 2F00			 MOVE.L	   D0,-(A7)
00003D70 4EB900000000		 JSR	   T.WRITE
00003D76 222D8008		 MOVE.L	   STATIC.+8-32768(A5),D1	         INTEGERFILE
00003D7A 4A81			 TST.L	   D1
00003D7C 6606			 BNE.S	   X.11.58(PC)
00003D7E 4EB900000000		 JSR	   E.FILE
00003D84 2F01	      X.11.58	 MOVE.L	   D1,-(A7)
00003D86 4EB900000000		 JSR	   I.EXTENT
00003D8C 221F			 MOVE.L	   (A7)+,D1
00003D8E 4267			 CLR.W	   -(A7)
00003D90 2D41FFF8		 MOVE.L	   D1,-8(A6)			         $FFFFFFF8
00003D94 486EFFF8		 PEA	   -8(A6)			         $FFFFFFF8
00003D98 2F00			 MOVE.L	   D0,-(A7)
00003D9A 4EB900000000		 JSR	   T.WRITE
00003DA0 7208			 MOVEQ	   #8,D1			         $8
00003DA2 3F01			 MOVE.W	   D1,-(A7)
00003DA4 7204			 MOVEQ	   #4,D1			         $4
00003DA6 3F01			 MOVE.W	   D1,-(A7)
00003DA8 487AF556		 PEA	   K.166(PC)			         CODE.+$3300
00003DAC 2F00			 MOVE.L	   D0,-(A7)
00003DAE 4EB900000000		 JSR	   T.WRITE
00003DB4 2F2D8008		 MOVE.L	   STATIC.+8-32768(A5),-(A7)	         INTEGERFILE
00003DB8 4EB900000000		 JSR	   I.CURSOR00003DBE 221F			 MOVE.L	   (A7)+,D1
00003DC0 4267			 CLR.W	   -(A7)
00003DC2 2D41FFF4		 MOVE.L	   D1,-12(A6)			         $FFFFFFF4
00003DC6 486EFFF4		 PEA	   -12(A6)			         $FFFFFFF4
00003DCA 2F00			 MOVE.L	   D0,-(A7)
00003DCC 4EB900000000		 JSR	   T.WRITE
00003DD2 2F00			 MOVE.L	   D0,-(A7)
00003DD4 4EB900000000		 JSR	   T.WRTLN
		      *							       LINE 13/131
		      *							       LINE 13/134
00003DDA 202D8008     L.11.42	 MOVE.L	   STATIC.+8-32768(A5),D0	         INTEGERFILE
00003DDE 4A80			 TST.L	   D0
00003DE0 6606			 BNE.S	   X.11.59(PC)
00003DE2 4EB900000000		 JSR	   E.FILE
00003DE8 2F00	      X.11.59	 MOVE.L	   D0,-(A7)
00003DEA 4EB900000000		 JSR	   I.CLOSE
		      *							       LINE 13/135
00003DF0 7004			 MOVEQ	   #4,D0			         $4
00003DF2 3F00			 MOVE.W	   D0,-(A7)
00003DF4 486D807A		 PEA	   STATIC.+120-32766(A5)	         REAL_FILENAME
00003DF8 3F2D8078		 MOVE.W	   STATIC.+120-32768(A5),-(A7)	         REAL_FILENAME
00003DFC 3F3C042A		 MOVE.W	   #1066,-(A7)			         $42A
00003E00 4EB900000000		 JSR	   Y.INIT
00003E06 2B5F8008		 MOVE.L	   (A7)+,STATIC.+8-32768(A5)	         INTEGERFILE
		      *							       LINE 13/136
00003E0A 7001	      L.11.43	 MOVEQ	   #1,D0			         $1
00003E0C 2B408058		 MOVE.L	   D0,STATIC.+88-32768(A5)	         INDEX
		      *							       LINE 13/137
00003E10 202D8008     L.11.44	 MOVE.L	   STATIC.+8-32768(A5),D0	         INTEGERFILE
00003E14 4A80			 TST.L	   D0
00003E16 6606			 BNE.S	   X.11.60(PC)
00003E18 4EB900000000		 JSR	   E.FILE
00003E1E 2040	      X.11.60	 MOVEA.L   D0,A0
00003E20 2050			 MOVEA.L   (A0),A0
00003E22 20AD8058		 MOVE.L	   STATIC.+88-32768(A5),(A0)	         INDEX
00003E26 2F00			 MOVE.L	   D0,-(A7)
00003E28 4EB900000000		 JSR	   Y.PUT
00003E2E 202D8058		 MOVE.L	   STATIC.+88-32768(A5),D0	         INDEX
00003E32 5280			 ADDQ.L	   #1,D0			         $1
00003E34 2B408058		 MOVE.L	   D0,STATIC.+88-32768(A5)	         INDEX
00003E38 7264			 MOVEQ	   #100,D1			         $64
00003E3A B081			 CMP.L	   D1,D0
00003E3C 6FD2			 BLE.S	   L.11.44(PC)
		      *							       LINE 13/138
00003E3E 202D8008     L.11.45	 MOVE.L	   STATIC.+8-32768(A5),D0	         INTEGERFILE00003E42 4A80			 TST.L	   D0
00003E44 6606			 BNE.S	   X.11.61(PC)
00003E46 4EB900000000		 JSR	   E.FILE
00003E4C 2F00	      X.11.61	 MOVE.L	   D0,-(A7)
00003E4E 4EB900000000		 JSR	   Y.EMPTY
		      *							       LINE 13/139
00003E54 202D8008		 MOVE.L	   STATIC.+8-32768(A5),D0	         INTEGERFILE
00003E58 4A80			 TST.L	   D0
00003E5A 6606			 BNE.S	   X.11.62(PC)
00003E5C 4EB900000000		 JSR	   E.FILE
00003E62 2F00	      X.11.62	 MOVE.L	   D0,-(A7)
00003E64 4EB900000000		 JSR	   I.FILSTA
00003E6A 301F			 MOVE.W	   (A7)+,D0
00003E6C 4A40			 TST.W	   D0
00003E6E 6C06			 BGE.S	   X.11.63(PC)
00003E70 4EB900000000 X.11.64	 JSR	   E.VALUE
00003E76 720D	      X.11.63	 MOVEQ	   #13,D1			         $D
00003E78 B041			 CMP.W	   D1,D0
00003E7A 6EF4			 BGT.S	   X.11.64(PC)
00003E7C 3B40809E		 MOVE.W	   D0,STATIC.+158-32768(A5)	         FILESTATUS
		      *							       LINE 13/140
00003E80 202D8008		 MOVE.L	   STATIC.+8-32768(A5),D0	         INTEGERFILE
00003E84 4A80			 TST.L	   D0
00003E86 6606			 BNE.S	   X.11.65(PC)
00003E88 4EB900000000		 JSR	   E.FILE
00003E8E 2F00	      X.11.65	 MOVE.L	   D0,-(A7)
00003E90 4EB900000000		 JSR	   I.EXTENT
00003E96 4A9F			 TST.L	   (A7)+
00003E98 6608			 BNE.S	   L.11.47(PC)
00003E9A 4A6D809E     L.11.46	 TST.W	   STATIC.+158-32768(A5)	         FILESTATUS
00003E9E 670000A4		 BEQ.L	   L.11.48(PC)
		      *							       LINE 13/141
		      *							       LINE 13/142
00003EA2 2D7C00000330 L.11.47	 MOVE.L	   #816,-4(A6)			         $330  $FFFFFFFC
	 FFFC
00003EAA 6100C166		 BSR.L	   B.3(PC)			         ERROR = CODE.+$12
		      *							       LINE 13/143
00003EAE 202D0000		 MOVE.L	   TTYOUTPUT-32768(A5),D0	         TTYOUTPUT
00003EB2 4A80			 TST.L	   D0
00003EB4 6606			 BNE.S	   X.11.66(PC)
00003EB6 4EB900000000		 JSR	   E.FILE
00003EBC 7229	      X.11.66	 MOVEQ	   #41,D1			         $29
00003EBE 3F01			 MOVE.W	   D1,-(A7)
00003EC0 7204			 MOVEQ	   #4,D1			         $4
00003EC2 3F01			 MOVE.W	   D1,-(A7)00003EC4 487AF442		 PEA	   K.167(PC)			         CODE.+$3308
00003EC8 2F00			 MOVE.L	   D0,-(A7)
00003ECA 4EB900000000		 JSR	   T.WRITE
00003ED0 222D8008		 MOVE.L	   STATIC.+8-32768(A5),D1	         INTEGERFILE
00003ED4 4A81			 TST.L	   D1
00003ED6 6606			 BNE.S	   X.11.67(PC)
00003ED8 4EB900000000		 JSR	   E.FILE
00003EDE 2F01	      X.11.67	 MOVE.L	   D1,-(A7)
00003EE0 4EB900000000		 JSR	   I.EXTENT
00003EE6 221F			 MOVE.L	   (A7)+,D1
00003EE8 4267			 CLR.W	   -(A7)
00003EEA 2D41FFF8		 MOVE.L	   D1,-8(A6)			         $FFFFFFF8
00003EEE 486EFFF8		 PEA	   -8(A6)			         $FFFFFFF8
00003EF2 2F00			 MOVE.L	   D0,-(A7)
00003EF4 4EB900000000		 JSR	   T.WRITE
00003EFA 2F00			 MOVE.L	   D0,-(A7)
00003EFC 4EB900000000		 JSR	   T.WRTLN
		      *							       LINE 13/145
00003F02 202D0000		 MOVE.L	   TTYOUTPUT-32768(A5),D0	         TTYOUTPUT
00003F06 4A80			 TST.L	   D0
00003F08 6606			 BNE.S	   X.11.68(PC)
00003F0A 4EB900000000		 JSR	   E.FILE
00003F10 720D	      X.11.68	 MOVEQ	   #13,D1			         $D
00003F12 3F01			 MOVE.W	   D1,-(A7)
00003F14 7204			 MOVEQ	   #4,D1			         $4
00003F16 3F01			 MOVE.W	   D1,-(A7)
00003F18 487AF418		 PEA	   K.168(PC)			         CODE.+$3332
00003F1C 2F00			 MOVE.L	   D0,-(A7)
00003F1E 4EB900000000		 JSR	   T.WRITE
00003F24 4267			 CLR.W	   -(A7)
00003F26 322D809E		 MOVE.W	   STATIC.+158-32768(A5),D1	         FILESTATUS
00003F2A 48C1			 EXT.L	   D1
00003F2C 2D41FFF8		 MOVE.L	   D1,-8(A6)			         $FFFFFFF8
00003F30 486EFFF8		 PEA	   -8(A6)			         $FFFFFFF8
00003F34 2F00			 MOVE.L	   D0,-(A7)
00003F36 4EB900000000		 JSR	   T.WRITE
00003F3C 2F00			 MOVE.L	   D0,-(A7)
00003F3E 4EB900000000		 JSR	   T.WRTLN
		      *							       LINE 13/146
		      *							       LINE 13/149
00003F44 202D8008     L.11.48	 MOVE.L	   STATIC.+8-32768(A5),D0	         INTEGERFILE
00003F48 4A80			 TST.L	   D0
00003F4A 6606			 BNE.S	   X.11.69(PC)
00003F4C 4EB900000000		 JSR	   E.FILE
00003F52 2F00	      X.11.69	 MOVE.L	   D0,-(A7)00003F54 4EB900000000		 JSR	   I.SCRTCH
		      *							       LINE 13/150
00003F5A 4EB900000000		 JSR	   I.GENSTA
00003F60 301F			 MOVE.W	   (A7)+,D0
00003F62 4A40			 TST.W	   D0
00003F64 6C06			 BGE.S	   X.11.70(PC)
00003F66 4EB900000000 X.11.71	 JSR	   E.VALUE
00003F6C 720D	      X.11.70	 MOVEQ	   #13,D1			         $D
00003F6E B041			 CMP.W	   D1,D0
00003F70 6EF4			 BGT.S	   X.11.71(PC)
00003F72 3B40809E		 MOVE.W	   D0,STATIC.+158-32768(A5)	         FILESTATUS
		      *							       LINE 13/151
00003F76 4A6D809E		 TST.W	   STATIC.+158-32768(A5)	         FILESTATUS
00003F7A 674E			 BEQ.S	   L.11.50(PC)
		      *							       LINE 13/152
		      *							       LINE 13/153
00003F7C 2D7C00000331 L.11.49	 MOVE.L	   #817,-4(A6)			         $331  $FFFFFFFC
	 FFFC
00003F84 6100C08C		 BSR.L	   B.3(PC)			         ERROR = CODE.+$12
		      *							       LINE 13/154
00003F88 202D0000		 MOVE.L	   TTYOUTPUT-32768(A5),D0	         TTYOUTPUT
00003F8C 4A80			 TST.L	   D0
00003F8E 6606			 BNE.S	   X.11.72(PC)
00003F90 4EB900000000		 JSR	   E.FILE
00003F96 721E	      X.11.72	 MOVEQ	   #30,D1			         $1E
00003F98 3F01			 MOVE.W	   D1,-(A7)
00003F9A 7204			 MOVEQ	   #4,D1			         $4
00003F9C 3F01			 MOVE.W	   D1,-(A7)
00003F9E 487AF3A0		 PEA	   K.169(PC)			         CODE.+$3340
00003FA2 2F00			 MOVE.L	   D0,-(A7)
00003FA4 4EB900000000		 JSR	   T.WRITE
00003FAA 4267			 CLR.W	   -(A7)
00003FAC 322D809E		 MOVE.W	   STATIC.+158-32768(A5),D1	         FILESTATUS
00003FB0 48C1			 EXT.L	   D1
00003FB2 2D41FFF8		 MOVE.L	   D1,-8(A6)			         $FFFFFFF8
00003FB6 486EFFF8		 PEA	   -8(A6)			         $FFFFFFF8
00003FBA 2F00			 MOVE.L	   D0,-(A7)
00003FBC 4EB900000000		 JSR	   T.WRITE
00003FC2 2F00			 MOVE.L	   D0,-(A7)
00003FC4 4EB900000000		 JSR	   T.WRTLN
		      *							       LINE 13/155
		      *							       LINE 13/156
00003FCA 4E75	      L.11.50	 RTS	   
		      *
		      *		 Constant area for program EXE012		      *
00003FCC 23434E	      K.170	 DC.B	   '#CN'
00003FCF 00000001		 DS.B	   1
00003FD0 426567696E20 K.171	 DC.B	   'Begin EXE012'
00003FDC 456E64204558 K.172	 DC.B	   'End EXE012'
		      *
		      *		 Begin program EXE012
		      *
				 XDEF	   M.START 
00003FE6	      M.START 
00003FE6 7010	      B.1	 MOVEQ	   #16,D0			         $10
00003FE8 2F00			 MOVE.L	   D0,-(A7)
00003FEA 610E			 BSR.S	   X.1.1(PC)
00003FEC 00000000		 DC.L	   C.1
00003FF0 0000			 DC.W	   0				         $0
00003FF2 0006			 DC.W	   6				       String length word
00003FF4 455845303132		 DC.B	   'EXE012'
00003FFA 203CFFFFFFD2 X.1.1	 MOVE.L	   #T.1-4,D0			         -42
00004000 4EB900000000		 JSR	   M.ENTRY
		      *							       LINE 14/2
		      *							       LINE 14/3
00004006 487AFFC4     L.1.1	 PEA	   K.170(PC)			         CODE.+$3FCC
0000400A 7003			 MOVEQ	   #3,D0			         $3
0000400C 3F00			 MOVE.W	   D0,-(A7)
0000400E 7032			 MOVEQ	   #50,D0			         $32
00004010 3F00			 MOVE.W	   D0,-(A7)
00004012 4EB900000000		 JSR	   T.REWRIT
00004018 2B5F0000		 MOVE.L	   (A7)+,TTYOUTPUT-32768(A5)	         TTYOUTPUT
		      *							       LINE 14/4
0000401C 202D0000		 MOVE.L	   TTYOUTPUT-32768(A5),D0	         TTYOUTPUT
00004020 4A80			 TST.L	   D0
00004022 6606			 BNE.S	   X.1.2(PC)
00004024 4EB900000000		 JSR	   E.FILE
0000402A 720C	      X.1.2	 MOVEQ	   #12,D1			         $C
0000402C 3F01			 MOVE.W	   D1,-(A7)
0000402E 7204			 MOVEQ	   #4,D1			         $4
00004030 3F01			 MOVE.W	   D1,-(A7)
00004032 487AFF9C		 PEA	   K.171(PC)			         CODE.+$3FD0
00004036 2F00			 MOVE.L	   D0,-(A7)
00004038 4EB900000000		 JSR	   T.WRITE
0000403E 2F00			 MOVE.L	   D0,-(A7)
00004040 4EB900000000		 JSR	   T.WRTLN
		      *							       LINE 14/5
00004046 202D0000		 MOVE.L	   TTYOUTPUT-32768(A5),D0	         TTYOUTPUT
0000404A 4A80			 TST.L	   D00000404C 6606			 BNE.S	   X.1.3(PC)
0000404E 4EB900000000		 JSR	   E.FILE
00004054 2F00	      X.1.3	 MOVE.L	   D0,-(A7)
00004056 4EB900000000		 JSR	   T.BREAK
		      *							       LINE 14/6
0000405C 6100C16E		 BSR.L	   B.4(PC)			         TESTREALFILE = CODE.+
		      *							       LINE 14/7
00004060 6100C696		 BSR.L	   B.5(PC)			         TESTINTEGERFILE = COD
		      *							       LINE 14/8
00004064 6100CB64		 BSR.L	   B.6(PC)			         TESTBOOLEANFILE = COD
		      *							       LINE 14/9
00004068 6100D066		 BSR.L	   B.7(PC)			         TESTSTRINGFILE = CODE
		      *							       LINE 14/10
0000406C 6100D5BA		 BSR.L	   B.8(PC)			         TESTCHARFILE = CODE.+
		      *							       LINE 14/11
00004070 6100DA76		 BSR.L	   B.9(PC)			         TESTARRAYFILE = CODE.
		      *							       LINE 14/12
00004074 6100E492		 BSR.L	   B.10(PC)			         TESTRECORDFILE = CODE
		      *							       LINE 14/13
00004078 6100F2E4		 BSR.L	   B.11(PC)			         TESTRANDOMACCESS = CO
		      *							       LINE 14/14
0000407C 202D0000		 MOVE.L	   TTYOUTPUT-32768(A5),D0	         TTYOUTPUT
00004080 4A80			 TST.L	   D0
00004082 6606			 BNE.S	   X.1.4(PC)
00004084 4EB900000000		 JSR	   E.FILE
0000408A 720A	      X.1.4	 MOVEQ	   #10,D1			         $A
0000408C 3F01			 MOVE.W	   D1,-(A7)
0000408E 7204			 MOVEQ	   #4,D1			         $4
00004090 3F01			 MOVE.W	   D1,-(A7)
00004092 487AFF48		 PEA	   K.172(PC)			         CODE.+$3FDC
00004096 2F00			 MOVE.L	   D0,-(A7)
00004098 4EB900000000		 JSR	   T.WRITE
0000409E 2F00			 MOVE.L	   D0,-(A7)
000040A0 4EB900000000		 JSR	   T.WRTLN
		      *							       LINE 14/15
000040A6 202D0000		 MOVE.L	   TTYOUTPUT-32768(A5),D0	         TTYOUTPUT
000040AA 4A80			 TST.L	   D0
000040AC 6606			 BNE.S	   X.1.5(PC)
000040AE 4EB900000000		 JSR	   E.FILE
000040B4 2F00	      X.1.5	 MOVE.L	   D0,-(A7)
000040B6 4EB900000000		 JSR	   T.BREAK
		      *							       LINE 14/16
000040BC 4EB900000000		 JSR	   M.STOP
				 XREF	   TTYOUTPU
				 XREF	   E.FILE				 XREF	   T.WRITE
				 XREF	   T.WRTLN
				 XREF	   T.BREAK
				 XREF	   Y.INIT
				 XREF	   I.FILNAM
				 XREF	   Y.PUT
				 XREF	   I.CLOSE
				 XREF	   F.CMP
				 XREF	   Y.GET
				 XREF	   I.EOF
				 XREF	   C.CPFF
				 XREF	   T.PUT
				 XREF	   E.INDEX
				 XREF	   I.EXTENT
				 XREF	   I.CURSOR
				 XREF	   F.RANDOM
				 XREF	   F.FLOAT
				 XREF	   F.MUL
				 XREF	   F.TRUNC
				 XREF	   E.VALUE
				 XREF	   I.SEEK
				 XREF	   I.FILSTA
				 XREF	   Y.EMPTY
				 XREF	   I.SCRTCH
				 XREF	   I.GENSTA
				 XREF	   M.ENTRY
				 XREF	   T.REWRIT
				 XREF	   M.STOP
		      *
		      *		 Code area:      00003018 bytes (12312 decimal)
		      *		 Constant area:  000010AA bytes (4266 decimal)
		      *		 Static area:    000000A0 bytes (160 decimal)
		      *
	 00000000		 END
 <#^K